---
triple:          'arm64-apple-darwin'
binary-path:     'tests/test_gpu_scan_equals'
relocations:
  - { offset: 0x3FE6, size: 0x8, addend: 0x0, symName: __ZNSt3__112__to_addressB8ne180100ItEEPT_S2_, symObjAddr: 0xAAC, symBinAddr: 0x100001AB0, symSize: 0x14 }
  - { offset: 0x401B, size: 0x8, addend: 0x0, symName: __ZNSt3__119__libcpp_deallocateB8ne180100EPvmm, symObjAddr: 0xB14, symBinAddr: 0x100001B18, symSize: 0x60 }
  - { offset: 0x4080, size: 0x8, addend: 0x0, symName: __ZNSt3__124__is_overaligned_for_newB8ne180100Em, symObjAddr: 0xB74, symBinAddr: 0x100001B78, symSize: 0x20 }
  - { offset: 0x40AE, size: 0x8, addend: 0x0, symName: __ZNSt3__127__do_deallocate_handle_sizeB8ne180100IJSt11align_val_tEEEvPvmDpT_, symObjAddr: 0xB94, symBinAddr: 0x100001B98, symSize: 0x30 }
  - { offset: 0x4101, size: 0x8, addend: 0x0, symName: __ZNSt3__127__do_deallocate_handle_sizeB8ne180100IJEEEvPvmDpT_, symObjAddr: 0xBC4, symBinAddr: 0x100001BC8, symSize: 0x28 }
  - { offset: 0x413F, size: 0x8, addend: 0x0, symName: __ZNSt3__124__libcpp_operator_deleteB8ne180100IJPvSt11align_val_tEEEvDpT_, symObjAddr: 0xBEC, symBinAddr: 0x100001BF0, symSize: 0x2C }
  - { offset: 0x4188, size: 0x8, addend: 0x0, symName: __ZNSt3__124__libcpp_operator_deleteB8ne180100IJPvEEEvDpT_, symObjAddr: 0xC18, symBinAddr: 0x100001C1C, symSize: 0x24 }
  - { offset: 0x41BD, size: 0x8, addend: 0x0, symName: __ZNSt3__16fill_nB8ne180100IPtmtEET_S2_T0_RKT1_, symObjAddr: 0xCD4, symBinAddr: 0x100001CD8, symSize: 0x44 }
  - { offset: 0x4220, size: 0x8, addend: 0x0, symName: __ZNSt3__13minB8ne180100ImEERKT_S3_S3_, symObjAddr: 0xD18, symBinAddr: 0x100001D1C, symSize: 0x2C }
  - { offset: 0x4263, size: 0x8, addend: 0x0, symName: __ZNSt3__18__fill_nB8ne180100IPtmtEET_S2_T0_RKT1_, symObjAddr: 0x1054, symBinAddr: 0x100002058, symSize: 0x64 }
  - { offset: 0x42C6, size: 0x8, addend: 0x0, symName: __ZNSt3__121__convert_to_integralB8ne180100Em, symObjAddr: 0x10B8, symBinAddr: 0x1000020BC, symSize: 0x14 }
  - { offset: 0x42F2, size: 0x8, addend: 0x0, symName: __ZNSt3__13minB8ne180100ImNS_6__lessIvvEEEERKT_S5_S5_T0_, symObjAddr: 0x10CC, symBinAddr: 0x1000020D0, symSize: 0x54 }
  - { offset: 0x4391, size: 0x8, addend: 0x0, symName: __ZNSt3__119__allocate_at_leastB8ne180100INS_9allocatorItEEEENS_19__allocation_resultINS_16allocator_traitsIT_E7pointerEEERS5_m, symObjAddr: 0x13B0, symBinAddr: 0x1000023B4, symSize: 0x40 }
  - { offset: 0x45BE, size: 0x8, addend: 0x0, symName: __ZNSt3__120__throw_length_errorB8ne180100EPKc, symObjAddr: 0x14B8, symBinAddr: 0x1000024BC, symSize: 0x64 }
  - { offset: 0x45E6, size: 0x8, addend: 0x0, symName: __ZNSt3__117__libcpp_allocateB8ne180100Emm, symObjAddr: 0x1620, symBinAddr: 0x100002624, symSize: 0x60 }
  - { offset: 0x4640, size: 0x8, addend: 0x0, symName: __ZNSt3__121__libcpp_operator_newB8ne180100IJmSt11align_val_tEEEPvDpT_, symObjAddr: 0x1680, symBinAddr: 0x100002684, symSize: 0x2C }
  - { offset: 0x468D, size: 0x8, addend: 0x0, symName: __ZNSt3__121__libcpp_operator_newB8ne180100IJmEEEPvDpT_, symObjAddr: 0x16AC, symBinAddr: 0x1000026B0, symSize: 0x24 }
  - { offset: 0x46C6, size: 0x8, addend: 0x0, symName: __ZNSt3__13maxB8ne180100ImEERKT_S3_S3_, symObjAddr: 0x16D0, symBinAddr: 0x1000026D4, symSize: 0x2C }
  - { offset: 0x4709, size: 0x8, addend: 0x0, symName: __ZNSt3__13maxB8ne180100ImNS_6__lessIvvEEEERKT_S5_S5_T0_, symObjAddr: 0x16FC, symBinAddr: 0x100002700, symSize: 0x54 }
  - { offset: 0x4763, size: 0x8, addend: 0x0, symName: __ZNSt3__142__uninitialized_allocator_move_if_noexceptB8ne180100INS_9allocatorItEENS_16reverse_iteratorIPtEES5_tvEET1_RT_T0_S9_S6_, symObjAddr: 0x1E94, symBinAddr: 0x100002E98, symSize: 0x78 }
  - { offset: 0x47E0, size: 0x8, addend: 0x0, symName: __ZNSt3__14swapB8ne180100IPtEENS_9enable_ifIXaasr21is_move_constructibleIT_EE5valuesr18is_move_assignableIS3_EE5valueEvE4typeERS3_S6_, symObjAddr: 0x1F58, symBinAddr: 0x100002F5C, symSize: 0x3C }
  - { offset: 0x4831, size: 0x8, addend: 0x0, symName: __ZNSt3__14moveB8ne180100INS_16reverse_iteratorIPtEES3_EET0_T_S5_S4_, symObjAddr: 0x1F94, symBinAddr: 0x100002F98, symSize: 0x78 }
  - { offset: 0x488B, size: 0x8, addend: 0x0, symName: __ZNSt3__16__moveB8ne180100INS_17_ClassicAlgPolicyENS_16reverse_iteratorIPtEES4_S4_EENS_4pairIT0_T2_EES6_T1_S7_, symObjAddr: 0x200C, symBinAddr: 0x100003010, symSize: 0x64 }
  - { offset: 0x48F7, size: 0x8, addend: 0x0, symName: __ZNSt3__123__dispatch_copy_or_moveB8ne180100INS_17_ClassicAlgPolicyENS_11__move_loopIS1_EENS_14__move_trivialENS_16reverse_iteratorIPtEES7_S7_EENS_4pairIT2_T4_EES9_T3_SA_, symObjAddr: 0x2070, symBinAddr: 0x100003074, symSize: 0x64 }
  - { offset: 0x4975, size: 0x8, addend: 0x0, symName: __ZNSt3__121__unwrap_and_dispatchB8ne180100INS_10__overloadINS_11__move_loopINS_17_ClassicAlgPolicyEEENS_14__move_trivialEEENS_16reverse_iteratorIPtEES9_S9_Li0EEENS_4pairIT0_T2_EESB_T1_SC_, symObjAddr: 0x20D4, symBinAddr: 0x1000030D8, symSize: 0x12C }
  - { offset: 0x4A05, size: 0x8, addend: 0x0, symName: __ZNSt3__114__unwrap_rangeB8ne180100INS_16reverse_iteratorIPtEES3_EENS_4pairIT0_S5_EET_S7_, symObjAddr: 0x2200, symBinAddr: 0x100003204, symSize: 0x84 }
  - { offset: 0x4B80, size: 0x8, addend: 0x0, symName: __ZNSt3__113__unwrap_iterB8ne180100INS_16reverse_iteratorIPtEENS_18__unwrap_iter_implIS3_Lb0EEELi0EEEDTclsrT0_8__unwrapclsr3stdE7declvalIT_EEEES7_, symObjAddr: 0x2324, symBinAddr: 0x100003328, symSize: 0x44 }
  - { offset: 0x4BC4, size: 0x8, addend: 0x0, symName: __ZNSt3__19make_pairB8ne180100INS_16reverse_iteratorIPtEES3_EENS_4pairINS_18__unwrap_ref_decayIT_E4typeENS5_IT0_E4typeEEEOS6_OS9_, symObjAddr: 0x2368, symBinAddr: 0x10000336C, symSize: 0x38 }
  - { offset: 0x4C13, size: 0x8, addend: 0x0, symName: __ZNSt3__114__rewrap_rangeB8ne180100INS_16reverse_iteratorIPtEES3_EET_S4_T0_, symObjAddr: 0x23A0, symBinAddr: 0x1000033A4, symSize: 0x5C }
  - { offset: 0x4C5F, size: 0x8, addend: 0x0, symName: __ZNSt3__113__rewrap_iterB8ne180100INS_16reverse_iteratorIPtEES3_NS_18__unwrap_iter_implIS3_Lb0EEEEET_S6_T0_, symObjAddr: 0x23FC, symBinAddr: 0x100003400, symSize: 0x74 }
  - { offset: 0x4CB4, size: 0x8, addend: 0x0, symName: __ZNSt3__1neB8ne180100IPtS1_EEbRKNS_16reverse_iteratorIT_EERKNS2_IT0_EE, symObjAddr: 0x2470, symBinAddr: 0x100003474, symSize: 0x48 }
  - { offset: 0x5C6C, size: 0x8, addend: 0x0, symName: __ZSt28__throw_bad_array_new_lengthB8ne180100v, symObjAddr: 0x15EC, symBinAddr: 0x1000025F0, symSize: 0x34 }
  - { offset: 0x6030, size: 0x8, addend: 0x0, symName: __ZNSt3__16vectorItNS_9allocatorItEEE26__swap_out_circular_bufferERNS_14__split_bufferItRS2_EE, symObjAddr: 0x1A18, symBinAddr: 0x100002A1C, symSize: 0x110 }
  - { offset: 0x616C, size: 0x8, addend: 0x0, symName: __ZN10MasterPage7initnewEiti, symObjAddr: 0x0, symBinAddr: 0x100001004, symSize: 0x18C }
  - { offset: 0x61C0, size: 0x8, addend: 0x0, symName: __ZN10MasterPageC1Ev, symObjAddr: 0x18C, symBinAddr: 0x100001190, symSize: 0x2C }
  - { offset: 0x61EA, size: 0x8, addend: 0x0, symName: __ZNSt3__16vectorItNS_9allocatorItEEE6assignEmRKt, symObjAddr: 0x1B8, symBinAddr: 0x1000011BC, symSize: 0x108 }
  - { offset: 0x624B, size: 0x8, addend: 0x0, symName: __ZNSt3__16vectorItNS_9allocatorItEEE4dataB8ne180100Ev, symObjAddr: 0x2C0, symBinAddr: 0x1000012C4, symSize: 0x28 }
  - { offset: 0x626F, size: 0x8, addend: 0x0, symName: __ZN10MasterPageD1Ev, symObjAddr: 0x2E8, symBinAddr: 0x1000012EC, symSize: 0x2C }
  - { offset: 0x6299, size: 0x8, addend: 0x0, symName: __ZN10MasterPage4loadEi, symObjAddr: 0x314, symBinAddr: 0x100001318, symSize: 0x134 }
  - { offset: 0x62CC, size: 0x8, addend: 0x0, symName: __ZNSt3__16vectorItNS_9allocatorItEEE6resizeEm, symObjAddr: 0x448, symBinAddr: 0x10000144C, symSize: 0x94 }
  - { offset: 0x6310, size: 0x8, addend: 0x0, symName: __ZNK10MasterPage5flushEi, symObjAddr: 0x4DC, symBinAddr: 0x1000014E0, symSize: 0xB4 }
  - { offset: 0x6344, size: 0x8, addend: 0x0, symName: __ZNKSt3__16vectorItNS_9allocatorItEEE4dataB8ne180100Ev, symObjAddr: 0x590, symBinAddr: 0x100001594, symSize: 0x28 }
  - { offset: 0x6368, size: 0x8, addend: 0x0, symName: __ZNKSt3__16vectorItNS_9allocatorItEEE4sizeB8ne180100Ev, symObjAddr: 0x5B8, symBinAddr: 0x1000015BC, symSize: 0x28 }
  - { offset: 0x638C, size: 0x8, addend: 0x0, symName: __ZN10MasterPageC2Ev, symObjAddr: 0x5E0, symBinAddr: 0x1000015E4, symSize: 0x30 }
  - { offset: 0x63B6, size: 0x8, addend: 0x0, symName: __ZNSt3__16vectorItNS_9allocatorItEEEC1B8ne180100Ev, symObjAddr: 0x610, symBinAddr: 0x100001614, symSize: 0x2C }
  - { offset: 0x63DE, size: 0x8, addend: 0x0, symName: __ZNSt3__16vectorItNS_9allocatorItEEEC2B8ne180100Ev, symObjAddr: 0x63C, symBinAddr: 0x100001640, symSize: 0x4C }
  - { offset: 0x6415, size: 0x8, addend: 0x0, symName: __ZNSt3__117__compressed_pairIPtNS_9allocatorItEEEC1B8ne180100IDnNS_18__default_init_tagEEEOT_OT0_, symObjAddr: 0x688, symBinAddr: 0x10000168C, symSize: 0x3C }
  - { offset: 0x646B, size: 0x8, addend: 0x0, symName: __ZNSt3__117__compressed_pairIPtNS_9allocatorItEEEC2B8ne180100IDnNS_18__default_init_tagEEEOT_OT0_, symObjAddr: 0x6D4, symBinAddr: 0x1000016D8, symSize: 0x40 }
  - { offset: 0x64C1, size: 0x8, addend: 0x0, symName: __ZNSt3__122__compressed_pair_elemIPtLi0ELb0EEC2B8ne180100IDnvEEOT_, symObjAddr: 0x714, symBinAddr: 0x100001718, symSize: 0x1C }
  - { offset: 0x6501, size: 0x8, addend: 0x0, symName: __ZNSt3__122__compressed_pair_elemINS_9allocatorItEELi1ELb1EEC2B8ne180100ENS_18__default_init_tagE, symObjAddr: 0x730, symBinAddr: 0x100001734, symSize: 0x2C }
  - { offset: 0x6533, size: 0x8, addend: 0x0, symName: __ZNSt3__19allocatorItEC2B8ne180100Ev, symObjAddr: 0x75C, symBinAddr: 0x100001760, symSize: 0x2C }
  - { offset: 0x655B, size: 0x8, addend: 0x0, symName: __ZNSt3__116__non_trivial_ifILb1ENS_9allocatorItEEEC2B8ne180100Ev, symObjAddr: 0x788, symBinAddr: 0x10000178C, symSize: 0x14 }
  - { offset: 0x6583, size: 0x8, addend: 0x0, symName: __ZN10MasterPageD2Ev, symObjAddr: 0x79C, symBinAddr: 0x1000017A0, symSize: 0x30 }
  - { offset: 0x65AD, size: 0x8, addend: 0x0, symName: __ZNSt3__16vectorItNS_9allocatorItEEED1B8ne180100Ev, symObjAddr: 0x7CC, symBinAddr: 0x1000017D0, symSize: 0x2C }
  - { offset: 0x65D5, size: 0x8, addend: 0x0, symName: __ZNSt3__16vectorItNS_9allocatorItEEED2B8ne180100Ev, symObjAddr: 0x7F8, symBinAddr: 0x1000017FC, symSize: 0x44 }
  - { offset: 0x65FD, size: 0x8, addend: 0x0, symName: __ZNSt3__16vectorItNS_9allocatorItEEE16__destroy_vectorC1B8ne180100ERS3_, symObjAddr: 0x83C, symBinAddr: 0x100001840, symSize: 0x34 }
  - { offset: 0x6634, size: 0x8, addend: 0x0, symName: __ZNSt3__16vectorItNS_9allocatorItEEE16__destroy_vectorclB8ne180100Ev, symObjAddr: 0x870, symBinAddr: 0x100001874, symSize: 0x90 }
  - { offset: 0x6658, size: 0x8, addend: 0x0, symName: __ZNSt3__16vectorItNS_9allocatorItEEE16__destroy_vectorC2B8ne180100ERS3_, symObjAddr: 0x900, symBinAddr: 0x100001904, symSize: 0x20 }
  - { offset: 0x668F, size: 0x8, addend: 0x0, symName: __ZNSt3__16vectorItNS_9allocatorItEEE7__clearB8ne180100Ev, symObjAddr: 0x920, symBinAddr: 0x100001924, symSize: 0x28 }
  - { offset: 0x66B3, size: 0x8, addend: 0x0, symName: __ZNKSt3__16vectorItNS_9allocatorItEEE17__annotate_deleteB8ne180100Ev, symObjAddr: 0x948, symBinAddr: 0x10000194C, symSize: 0x10 }
  - { offset: 0x66D7, size: 0x8, addend: 0x0, symName: __ZNSt3__116allocator_traitsINS_9allocatorItEEE10deallocateB8ne180100ERS2_Ptm, symObjAddr: 0x958, symBinAddr: 0x10000195C, symSize: 0x34 }
  - { offset: 0x6718, size: 0x8, addend: 0x0, symName: __ZNSt3__16vectorItNS_9allocatorItEEE7__allocB8ne180100Ev, symObjAddr: 0x98C, symBinAddr: 0x100001990, symSize: 0x28 }
  - { offset: 0x673C, size: 0x8, addend: 0x0, symName: __ZNKSt3__16vectorItNS_9allocatorItEEE8capacityB8ne180100Ev, symObjAddr: 0x9B4, symBinAddr: 0x1000019B8, symSize: 0x40 }
  - { offset: 0x6760, size: 0x8, addend: 0x0, symName: __ZNSt3__16vectorItNS_9allocatorItEEE22__base_destruct_at_endB8ne180100EPt, symObjAddr: 0x9F4, symBinAddr: 0x1000019F8, symSize: 0x8C }
  - { offset: 0x67A2, size: 0x8, addend: 0x0, symName: __ZNSt3__116allocator_traitsINS_9allocatorItEEE7destroyB8ne180100ItvEEvRS2_PT_, symObjAddr: 0xA80, symBinAddr: 0x100001A84, symSize: 0x2C }
  - { offset: 0x67DE, size: 0x8, addend: 0x0, symName: __ZNSt3__19allocatorItE7destroyB8ne180100EPt, symObjAddr: 0xAC0, symBinAddr: 0x100001AC4, symSize: 0x14 }
  - { offset: 0x6810, size: 0x8, addend: 0x0, symName: __ZNSt3__19allocatorItE10deallocateB8ne180100EPtm, symObjAddr: 0xAD4, symBinAddr: 0x100001AD8, symSize: 0x40 }
  - { offset: 0x6850, size: 0x8, addend: 0x0, symName: __ZNSt3__117__compressed_pairIPtNS_9allocatorItEEE6secondB8ne180100Ev, symObjAddr: 0xC3C, symBinAddr: 0x100001C40, symSize: 0x24 }
  - { offset: 0x6874, size: 0x8, addend: 0x0, symName: __ZNSt3__122__compressed_pair_elemINS_9allocatorItEELi1ELb1EE5__getB8ne180100Ev, symObjAddr: 0xC60, symBinAddr: 0x100001C64, symSize: 0x14 }
  - { offset: 0x6898, size: 0x8, addend: 0x0, symName: __ZNKSt3__16vectorItNS_9allocatorItEEE9__end_capB8ne180100Ev, symObjAddr: 0xC74, symBinAddr: 0x100001C78, symSize: 0x28 }
  - { offset: 0x68BC, size: 0x8, addend: 0x0, symName: __ZNKSt3__117__compressed_pairIPtNS_9allocatorItEEE5firstB8ne180100Ev, symObjAddr: 0xC9C, symBinAddr: 0x100001CA0, symSize: 0x24 }
  - { offset: 0x68E0, size: 0x8, addend: 0x0, symName: __ZNKSt3__122__compressed_pair_elemIPtLi0ELb0EE5__getB8ne180100Ev, symObjAddr: 0xCC0, symBinAddr: 0x100001CC4, symSize: 0x14 }
  - { offset: 0x6904, size: 0x8, addend: 0x0, symName: __ZNSt3__16vectorItNS_9allocatorItEEE18__construct_at_endEmRKt, symObjAddr: 0xD44, symBinAddr: 0x100001D48, symSize: 0xD0 }
  - { offset: 0x6983, size: 0x8, addend: 0x0, symName: __ZNSt3__16vectorItNS_9allocatorItEEE17__destruct_at_endB8ne180100EPt, symObjAddr: 0xE14, symBinAddr: 0x100001E18, symSize: 0x4C }
  - { offset: 0x69C5, size: 0x8, addend: 0x0, symName: __ZNSt3__16vectorItNS_9allocatorItEEE13__vdeallocateEv, symObjAddr: 0xE60, symBinAddr: 0x100001E64, symSize: 0x94 }
  - { offset: 0x69EB, size: 0x8, addend: 0x0, symName: __ZNSt3__16vectorItNS_9allocatorItEEE11__vallocateB8ne180100Em, symObjAddr: 0xEF4, symBinAddr: 0x100001EF8, symSize: 0xAC }
  - { offset: 0x6A2D, size: 0x8, addend: 0x0, symName: __ZNKSt3__16vectorItNS_9allocatorItEEE11__recommendB8ne180100Em, symObjAddr: 0xFA0, symBinAddr: 0x100001FA4, symSize: 0xB4 }
  - { offset: 0x6A94, size: 0x8, addend: 0x0, symName: __ZNKSt3__16__lessIvvEclB8ne180100ImmEEbRKT_RKT0_, symObjAddr: 0x1120, symBinAddr: 0x100002124, symSize: 0x34 }
  - { offset: 0x6AFF, size: 0x8, addend: 0x0, symName: __ZNSt3__16vectorItNS_9allocatorItEEE21_ConstructTransactionC1B8ne180100ERS3_m, symObjAddr: 0x1154, symBinAddr: 0x100002158, symSize: 0x3C }
  - { offset: 0x6B45, size: 0x8, addend: 0x0, symName: __ZNSt3__116allocator_traitsINS_9allocatorItEEE9constructB8ne180100ItJRKtEvEEvRS2_PT_DpOT0_, symObjAddr: 0x1190, symBinAddr: 0x100002194, symSize: 0x34 }
  - { offset: 0x6B9B, size: 0x8, addend: 0x0, symName: __ZNSt3__16vectorItNS_9allocatorItEEE21_ConstructTransactionD1B8ne180100Ev, symObjAddr: 0x11C4, symBinAddr: 0x1000021C8, symSize: 0x2C }
  - { offset: 0x6BC3, size: 0x8, addend: 0x0, symName: __ZNSt3__16vectorItNS_9allocatorItEEE21_ConstructTransactionC2B8ne180100ERS3_m, symObjAddr: 0x11F0, symBinAddr: 0x1000021F4, symSize: 0x44 }
  - { offset: 0x6C09, size: 0x8, addend: 0x0, symName: __ZNSt3__19allocatorItE9constructB8ne180100ItJRKtEEEvPT_DpOT0_, symObjAddr: 0x1234, symBinAddr: 0x100002238, symSize: 0x28 }
  - { offset: 0x6C5D, size: 0x8, addend: 0x0, symName: __ZNSt3__16vectorItNS_9allocatorItEEE21_ConstructTransactionD2B8ne180100Ev, symObjAddr: 0x125C, symBinAddr: 0x100002260, symSize: 0x20 }
  - { offset: 0x6C85, size: 0x8, addend: 0x0, symName: __ZNKSt3__16vectorItNS_9allocatorItEEE17__annotate_shrinkB8ne180100Em, symObjAddr: 0x127C, symBinAddr: 0x100002280, symSize: 0x14 }
  - { offset: 0x6CB8, size: 0x8, addend: 0x0, symName: __ZNSt3__16vectorItNS_9allocatorItEEE5clearB8ne180100Ev, symObjAddr: 0x1290, symBinAddr: 0x100002294, symSize: 0x44 }
  - { offset: 0x6CEB, size: 0x8, addend: 0x0, symName: __ZNSt3__16vectorItNS_9allocatorItEEE9__end_capB8ne180100Ev, symObjAddr: 0x12D4, symBinAddr: 0x1000022D8, symSize: 0x28 }
  - { offset: 0x6D0F, size: 0x8, addend: 0x0, symName: __ZNSt3__117__compressed_pairIPtNS_9allocatorItEEE5firstB8ne180100Ev, symObjAddr: 0x12FC, symBinAddr: 0x100002300, symSize: 0x24 }
  - { offset: 0x6D33, size: 0x8, addend: 0x0, symName: __ZNSt3__122__compressed_pair_elemIPtLi0ELb0EE5__getB8ne180100Ev, symObjAddr: 0x1320, symBinAddr: 0x100002324, symSize: 0x14 }
  - { offset: 0x6D57, size: 0x8, addend: 0x0, symName: __ZNKSt3__16vectorItNS_9allocatorItEEE8max_sizeEv, symObjAddr: 0x1334, symBinAddr: 0x100002338, symSize: 0x60 }
  - { offset: 0x6D7D, size: 0x8, addend: 0x0, symName: __ZNKSt3__16vectorItNS_9allocatorItEEE20__throw_length_errorB8ne180100Ev, symObjAddr: 0x1394, symBinAddr: 0x100002398, symSize: 0x1C }
  - { offset: 0x6DA1, size: 0x8, addend: 0x0, symName: __ZNKSt3__16vectorItNS_9allocatorItEEE14__annotate_newB8ne180100Em, symObjAddr: 0x13F0, symBinAddr: 0x1000023F4, symSize: 0x14 }
  - { offset: 0x6DDE, size: 0x8, addend: 0x0, symName: __ZNSt3__116allocator_traitsINS_9allocatorItEEE8max_sizeB8ne180100IS2_vEEmRKS2_, symObjAddr: 0x1404, symBinAddr: 0x100002408, symSize: 0x24 }
  - { offset: 0x6E0B, size: 0x8, addend: 0x0, symName: __ZNKSt3__16vectorItNS_9allocatorItEEE7__allocB8ne180100Ev, symObjAddr: 0x1428, symBinAddr: 0x10000242C, symSize: 0x28 }
  - { offset: 0x6E2F, size: 0x8, addend: 0x0, symName: __ZNSt3__114numeric_limitsIlE3maxB8ne180100Ev, symObjAddr: 0x1450, symBinAddr: 0x100002454, symSize: 0x14 }
  - { offset: 0x6E42, size: 0x8, addend: 0x0, symName: __ZNKSt3__19allocatorItE8max_sizeB8ne180100Ev, symObjAddr: 0x1464, symBinAddr: 0x100002468, symSize: 0x14 }
  - { offset: 0x6E66, size: 0x8, addend: 0x0, symName: __ZNKSt3__117__compressed_pairIPtNS_9allocatorItEEE6secondB8ne180100Ev, symObjAddr: 0x1478, symBinAddr: 0x10000247C, symSize: 0x24 }
  - { offset: 0x6E8A, size: 0x8, addend: 0x0, symName: __ZNKSt3__122__compressed_pair_elemINS_9allocatorItEELi1ELb1EE5__getB8ne180100Ev, symObjAddr: 0x149C, symBinAddr: 0x1000024A0, symSize: 0x14 }
  - { offset: 0x6EAE, size: 0x8, addend: 0x0, symName: __ZNSt3__123__libcpp_numeric_limitsIlLb1EE3maxB8ne180100Ev, symObjAddr: 0x14B0, symBinAddr: 0x1000024B4, symSize: 0x8 }
  - { offset: 0x6EC1, size: 0x8, addend: 0x0, symName: __ZNSt12length_errorC1B8ne180100EPKc, symObjAddr: 0x151C, symBinAddr: 0x100002520, symSize: 0x34 }
  - { offset: 0x6EF7, size: 0x8, addend: 0x0, symName: __ZNSt12length_errorC2B8ne180100EPKc, symObjAddr: 0x1550, symBinAddr: 0x100002554, symSize: 0x44 }
  - { offset: 0x6F2D, size: 0x8, addend: 0x0, symName: __ZNSt3__19allocatorItE8allocateB8ne180100Em, symObjAddr: 0x1594, symBinAddr: 0x100002598, symSize: 0x58 }
  - { offset: 0x6F5F, size: 0x8, addend: 0x0, symName: __ZNSt3__16vectorItNS_9allocatorItEEE8__appendEm, symObjAddr: 0x1750, symBinAddr: 0x100002754, symSize: 0x108 }
  - { offset: 0x6FB8, size: 0x8, addend: 0x0, symName: __ZNSt3__16vectorItNS_9allocatorItEEE18__construct_at_endEm, symObjAddr: 0x1858, symBinAddr: 0x10000285C, symSize: 0xC8 }
  - { offset: 0x7028, size: 0x8, addend: 0x0, symName: __ZNSt3__114__split_bufferItRNS_9allocatorItEEEC1EmmS3_, symObjAddr: 0x1920, symBinAddr: 0x100002924, symSize: 0x44 }
  - { offset: 0x707C, size: 0x8, addend: 0x0, symName: __ZNSt3__114__split_bufferItRNS_9allocatorItEEE18__construct_at_endEm, symObjAddr: 0x1964, symBinAddr: 0x100002968, symSize: 0xB4 }
  - { offset: 0x70BD, size: 0x8, addend: 0x0, symName: __ZNSt3__114__split_bufferItRNS_9allocatorItEEED1Ev, symObjAddr: 0x1B28, symBinAddr: 0x100002B2C, symSize: 0x2C }
  - { offset: 0x70E7, size: 0x8, addend: 0x0, symName: __ZNSt3__116allocator_traitsINS_9allocatorItEEE9constructB8ne180100ItJEvEEvRS2_PT_DpOT0_, symObjAddr: 0x1B54, symBinAddr: 0x100002B58, symSize: 0x2C }
  - { offset: 0x7128, size: 0x8, addend: 0x0, symName: __ZNSt3__19allocatorItE9constructB8ne180100ItJEEEvPT_DpOT0_, symObjAddr: 0x1B80, symBinAddr: 0x100002B84, symSize: 0x1C }
  - { offset: 0x7168, size: 0x8, addend: 0x0, symName: __ZNSt3__114__split_bufferItRNS_9allocatorItEEEC2EmmS3_, symObjAddr: 0x1B9C, symBinAddr: 0x100002BA0, symSize: 0xD4 }
  - { offset: 0x71D9, size: 0x8, addend: 0x0, symName: __ZNSt3__117__compressed_pairIPtRNS_9allocatorItEEEC1B8ne180100IDnS4_EEOT_OT0_, symObjAddr: 0x1C70, symBinAddr: 0x100002C74, symSize: 0x3C }
  - { offset: 0x722F, size: 0x8, addend: 0x0, symName: __ZNSt3__114__split_bufferItRNS_9allocatorItEEE7__allocB8ne180100Ev, symObjAddr: 0x1CAC, symBinAddr: 0x100002CB0, symSize: 0x28 }
  - { offset: 0x7253, size: 0x8, addend: 0x0, symName: __ZNSt3__114__split_bufferItRNS_9allocatorItEEE9__end_capB8ne180100Ev, symObjAddr: 0x1CD4, symBinAddr: 0x100002CD8, symSize: 0x28 }
  - { offset: 0x7277, size: 0x8, addend: 0x0, symName: __ZNSt3__117__compressed_pairIPtRNS_9allocatorItEEEC2B8ne180100IDnS4_EEOT_OT0_, symObjAddr: 0x1CFC, symBinAddr: 0x100002D00, symSize: 0x48 }
  - { offset: 0x72CD, size: 0x8, addend: 0x0, symName: __ZNSt3__122__compressed_pair_elemIRNS_9allocatorItEELi1ELb0EEC2B8ne180100IS3_vEEOT_, symObjAddr: 0x1D44, symBinAddr: 0x100002D48, symSize: 0x20 }
  - { offset: 0x730D, size: 0x8, addend: 0x0, symName: __ZNSt3__117__compressed_pairIPtRNS_9allocatorItEEE6secondB8ne180100Ev, symObjAddr: 0x1D64, symBinAddr: 0x100002D68, symSize: 0x28 }
  - { offset: 0x7331, size: 0x8, addend: 0x0, symName: __ZNSt3__122__compressed_pair_elemIRNS_9allocatorItEELi1ELb0EE5__getB8ne180100Ev, symObjAddr: 0x1D8C, symBinAddr: 0x100002D90, symSize: 0x18 }
  - { offset: 0x7355, size: 0x8, addend: 0x0, symName: __ZNSt3__117__compressed_pairIPtRNS_9allocatorItEEE5firstB8ne180100Ev, symObjAddr: 0x1DA4, symBinAddr: 0x100002DA8, symSize: 0x24 }
  - { offset: 0x7383, size: 0x8, addend: 0x0, symName: __ZNSt3__114__split_bufferItRNS_9allocatorItEEE21_ConstructTransactionC1B8ne180100EPPtm, symObjAddr: 0x1DC8, symBinAddr: 0x100002DCC, symSize: 0x3C }
  - { offset: 0x73C7, size: 0x8, addend: 0x0, symName: __ZNSt3__114__split_bufferItRNS_9allocatorItEEE21_ConstructTransactionD1B8ne180100Ev, symObjAddr: 0x1E04, symBinAddr: 0x100002E08, symSize: 0x2C }
  - { offset: 0x73EF, size: 0x8, addend: 0x0, symName: __ZNSt3__114__split_bufferItRNS_9allocatorItEEE21_ConstructTransactionC2B8ne180100EPPtm, symObjAddr: 0x1E30, symBinAddr: 0x100002E34, symSize: 0x44 }
  - { offset: 0x7433, size: 0x8, addend: 0x0, symName: __ZNSt3__114__split_bufferItRNS_9allocatorItEEE21_ConstructTransactionD2B8ne180100Ev, symObjAddr: 0x1E74, symBinAddr: 0x100002E78, symSize: 0x20 }
  - { offset: 0x745B, size: 0x8, addend: 0x0, symName: __ZNSt3__116reverse_iteratorIPtEC1B8ne180100ES1_, symObjAddr: 0x1F0C, symBinAddr: 0x100002F10, symSize: 0x34 }
  - { offset: 0x7491, size: 0x8, addend: 0x0, symName: __ZNKSt3__116reverse_iteratorIPtE4baseB8ne180100Ev, symObjAddr: 0x1F40, symBinAddr: 0x100002F44, symSize: 0x18 }
  - { offset: 0x74D8, size: 0x8, addend: 0x0, symName: __ZNKSt3__111__move_loopINS_17_ClassicAlgPolicyEEclB8ne180100INS_16reverse_iteratorIPtEES6_S6_EENS_4pairIT_T1_EES8_T0_S9_, symObjAddr: 0x2284, symBinAddr: 0x100003288, symSize: 0xA0 }
  - { offset: 0x7546, size: 0x8, addend: 0x0, symName: __ZNSt3__18_IterOpsINS_17_ClassicAlgPolicyEE11__iter_moveB8ne180100IRNS_16reverse_iteratorIPtEELi0EEEDTclsr3stdE4movedeclsr3stdE7declvalIRT_EEEEOS8_, symObjAddr: 0x24B8, symBinAddr: 0x1000034BC, symSize: 0x28 }
  - { offset: 0x7577, size: 0x8, addend: 0x0, symName: __ZNKSt3__116reverse_iteratorIPtEdeB8ne180100Ev, symObjAddr: 0x24E0, symBinAddr: 0x1000034E4, symSize: 0x28 }
  - { offset: 0x75A9, size: 0x8, addend: 0x0, symName: __ZNSt3__116reverse_iteratorIPtEppB8ne180100Ev, symObjAddr: 0x2508, symBinAddr: 0x10000350C, symSize: 0x20 }
  - { offset: 0x75CD, size: 0x8, addend: 0x0, symName: __ZNSt3__18_IterOpsINS_17_ClassicAlgPolicyEE25__validate_iter_referenceB8ne180100IRNS_16reverse_iteratorIPtEEEEvv, symObjAddr: 0x2528, symBinAddr: 0x10000352C, symSize: 0x4 }
  - { offset: 0x75EA, size: 0x8, addend: 0x0, symName: __ZNSt3__118__unwrap_iter_implINS_16reverse_iteratorIPtEELb0EE8__unwrapB8ne180100ES3_, symObjAddr: 0x252C, symBinAddr: 0x100003530, symSize: 0x24 }
  - { offset: 0x7611, size: 0x8, addend: 0x0, symName: __ZNSt3__14pairINS_16reverse_iteratorIPtEES3_EC1B8ne180100IS3_S3_Li0EEEOT_OT0_, symObjAddr: 0x2550, symBinAddr: 0x100003554, symSize: 0x3C }
  - { offset: 0x766D, size: 0x8, addend: 0x0, symName: __ZNSt3__14pairINS_16reverse_iteratorIPtEES3_EC2B8ne180100IS3_S3_Li0EEEOT_OT0_, symObjAddr: 0x258C, symBinAddr: 0x100003590, symSize: 0x34 }
  - { offset: 0x76C9, size: 0x8, addend: 0x0, symName: __ZNSt3__118__unwrap_iter_implINS_16reverse_iteratorIPtEELb0EE8__rewrapB8ne180100ES3_S3_, symObjAddr: 0x25C0, symBinAddr: 0x1000035C4, symSize: 0x2C }
  - { offset: 0x76F5, size: 0x8, addend: 0x0, symName: __ZNSt3__116reverse_iteratorIPtEC2B8ne180100ES1_, symObjAddr: 0x25EC, symBinAddr: 0x1000035F0, symSize: 0x28 }
  - { offset: 0x772B, size: 0x8, addend: 0x0, symName: __ZNSt3__114__split_bufferItRNS_9allocatorItEEED2Ev, symObjAddr: 0x2614, symBinAddr: 0x100003618, symSize: 0x8C }
  - { offset: 0x7755, size: 0x8, addend: 0x0, symName: __ZNSt3__114__split_bufferItRNS_9allocatorItEEE5clearB8ne180100Ev, symObjAddr: 0x26A0, symBinAddr: 0x1000036A4, symSize: 0x28 }
  - { offset: 0x7779, size: 0x8, addend: 0x0, symName: __ZNKSt3__114__split_bufferItRNS_9allocatorItEEE8capacityB8ne180100Ev, symObjAddr: 0x26C8, symBinAddr: 0x1000036CC, symSize: 0x40 }
  - { offset: 0x779D, size: 0x8, addend: 0x0, symName: __ZNSt3__114__split_bufferItRNS_9allocatorItEEE17__destruct_at_endB8ne180100EPt, symObjAddr: 0x2708, symBinAddr: 0x10000370C, symSize: 0x2C }
  - { offset: 0x77CF, size: 0x8, addend: 0x0, symName: __ZNSt3__114__split_bufferItRNS_9allocatorItEEE17__destruct_at_endB8ne180100EPtNS_17integral_constantIbLb0EEE, symObjAddr: 0x2734, symBinAddr: 0x100003738, symSize: 0x80 }
  - { offset: 0x780D, size: 0x8, addend: 0x0, symName: __ZNKSt3__114__split_bufferItRNS_9allocatorItEEE9__end_capB8ne180100Ev, symObjAddr: 0x27B4, symBinAddr: 0x1000037B8, symSize: 0x28 }
  - { offset: 0x7831, size: 0x8, addend: 0x0, symName: __ZNKSt3__117__compressed_pairIPtRNS_9allocatorItEEE5firstB8ne180100Ev, symObjAddr: 0x27DC, symBinAddr: 0x1000037E0, symSize: 0x24 }
  - { offset: 0x9C50, size: 0x8, addend: 0x0, symName: __ZNSt3__17nulloptE, symObjAddr: 0x477A, symBinAddr: 0x10003AB46, symSize: 0x0 }
  - { offset: 0x9CA6, size: 0x8, addend: 0x0, symName: __ZNSt3__18in_placeE, symObjAddr: 0x477B, symBinAddr: 0x10003AB47, symSize: 0x0 }
  - { offset: 0xDE19, size: 0x8, addend: 0x0, symName: __ZNSt3__18__fill_nB8ne180100ILb1ENS_6vectorIbNS_9allocatorIbEEEEEEvNS_14__bit_iteratorIT0_Lb0EXLi0EEEENS6_9size_typeE, symObjAddr: 0x2CFC, symBinAddr: 0x100006138, symSize: 0x164 }
  - { offset: 0xDEDF, size: 0x8, addend: 0x0, symName: __ZNSt3__18__fill_nB8ne180100ILb0ENS_6vectorIbNS_9allocatorIbEEEEEEvNS_14__bit_iteratorIT0_Lb0EXLi0EEEENS6_9size_typeE, symObjAddr: 0x2E94, symBinAddr: 0x1000062D0, symSize: 0x160 }
  - { offset: 0x10451, size: 0x8, addend: 0x0, symName: __ZNSt3__122__make_exception_guardB8ne180100INS_6vectorIjNS_9allocatorIjEEE16__destroy_vectorEEENS_28__exception_guard_exceptionsIT_EES7_, symObjAddr: 0x1818, symBinAddr: 0x10000500C, symSize: 0x40 }
  - { offset: 0x10486, size: 0x8, addend: 0x0, symName: __ZNSt3__119__allocate_at_leastB8ne180100INS_9allocatorIjEEEENS_19__allocation_resultINS_16allocator_traitsIT_E7pointerEEERS5_m, symObjAddr: 0x1C04, symBinAddr: 0x1000053F8, symSize: 0x40 }
  - { offset: 0x104C9, size: 0x8, addend: 0x0, symName: __ZNSt3__112__to_addressB8ne180100IjEEPT_S2_, symObjAddr: 0x2120, symBinAddr: 0x100005664, symSize: 0x14 }
  - { offset: 0x104FE, size: 0x8, addend: 0x0, symName: __ZNSt3__119__allocate_at_leastB8ne180100INS_9allocatorImEEEENS_19__allocation_resultINS_16allocator_traitsIT_E7pointerEEERS5_m, symObjAddr: 0x29BC, symBinAddr: 0x100005DF8, symSize: 0x40 }
  - { offset: 0x1072F, size: 0x8, addend: 0x0, symName: __ZNSt3__16fill_nB8ne180100INS_6vectorIbNS_9allocatorIbEEEEEEvNS_14__bit_iteratorIT_Lb0EXLi0EEEENS6_9size_typeEb, symObjAddr: 0x2C04, symBinAddr: 0x100006040, symSize: 0x94 }
  - { offset: 0x1077D, size: 0x8, addend: 0x0, symName: __ZNSt3__16fill_nB8ne180100IPmmmEET_S2_T0_RKT1_, symObjAddr: 0x2FF4, symBinAddr: 0x100006430, symSize: 0x44 }
  - { offset: 0x107E0, size: 0x8, addend: 0x0, symName: __ZNSt3__112__to_addressB8ne180100ImEEPT_S2_, symObjAddr: 0x3038, symBinAddr: 0x100006474, symSize: 0x14 }
  - { offset: 0x10815, size: 0x8, addend: 0x0, symName: __ZNSt3__18__fill_nB8ne180100IPmmmEET_S2_T0_RKT1_, symObjAddr: 0x304C, symBinAddr: 0x100006488, symSize: 0x64 }
  - { offset: 0x10878, size: 0x8, addend: 0x0, symName: __ZNSt3__112__to_addressB8ne180100IKcEEPT_S3_, symObjAddr: 0x3814, symBinAddr: 0x100006C3C, symSize: 0x14 }
  - { offset: 0x108E0, size: 0x8, addend: 0x0, symName: __ZNSt3__122__make_exception_guardB8ne180100INS_6vectorIhNS_9allocatorIhEEE16__destroy_vectorEEENS_28__exception_guard_exceptionsIT_EES7_, symObjAddr: 0x3A60, symBinAddr: 0x100006E88, symSize: 0x40 }
  - { offset: 0x10915, size: 0x8, addend: 0x0, symName: __ZNSt3__119__allocate_at_leastB8ne180100INS_9allocatorIhEEEENS_19__allocation_resultINS_16allocator_traitsIT_E7pointerEEERS5_m, symObjAddr: 0x3E4C, symBinAddr: 0x100007274, symSize: 0x40 }
  - { offset: 0x10958, size: 0x8, addend: 0x0, symName: __ZNSt3__112__to_addressB8ne180100IhEEPT_S2_, symObjAddr: 0x40B8, symBinAddr: 0x1000074E0, symSize: 0x14 }
  - { offset: 0x12033, size: 0x8, addend: 0x0, symName: __ZN10ColumnFileC2ERKNSt3__112basic_stringIcNS0_11char_traitsIcEENS0_9allocatorIcEEEER10MasterPaget, symObjAddr: 0x0, symBinAddr: 0x100003804, symSize: 0xBC }
  - { offset: 0x12087, size: 0x8, addend: 0x0, symName: __ZNKSt3__112basic_stringIcNS_11char_traitsIcEENS_9allocatorIcEEE5c_strB8ne180100Ev, symObjAddr: 0xBC, symBinAddr: 0x1000038C0, symSize: 0x24 }
  - { offset: 0x120AB, size: 0x8, addend: 0x0, symName: __ZN10ColumnFileC1ERKNSt3__112basic_stringIcNS0_11char_traitsIcEENS0_9allocatorIcEEEER10MasterPaget, symObjAddr: 0xE0, symBinAddr: 0x1000038E4, symSize: 0x44 }
  - { offset: 0x120FF, size: 0x8, addend: 0x0, symName: __ZN10ColumnFileD2Ev, symObjAddr: 0x124, symBinAddr: 0x100003928, symSize: 0x5C }
  - { offset: 0x12129, size: 0x8, addend: 0x0, symName: __ZN10ColumnFileD1Ev, symObjAddr: 0x190, symBinAddr: 0x100003984, symSize: 0x2C }
  - { offset: 0x12153, size: 0x8, addend: 0x0, symName: __ZN10ColumnFile19allocateOrFetchPageEv, symObjAddr: 0x1BC, symBinAddr: 0x1000039B0, symSize: 0x164 }
  - { offset: 0x121B7, size: 0x8, addend: 0x0, symName: __ZNK10ColumnFile10headPageIDEv, symObjAddr: 0x320, symBinAddr: 0x100003B14, symSize: 0x38 }
  - { offset: 0x121DC, size: 0x8, addend: 0x0, symName: __ZL15computeCapacityt, symObjAddr: 0x358, symBinAddr: 0x100003B4C, symSize: 0xB4 }
  - { offset: 0x12232, size: 0x8, addend: 0x0, symName: __ZN10ColumnPageC1Ett, symObjAddr: 0x40C, symBinAddr: 0x100003C00, symSize: 0x3C }
  - { offset: 0x12276, size: 0x8, addend: 0x0, symName: __ZN10ColumnFile9flushPageERK10ColumnPage, symObjAddr: 0x448, symBinAddr: 0x100003C3C, symSize: 0x36C }
  - { offset: 0x12314, size: 0x8, addend: 0x0, symName: __ZN10ColumnFile13setHeadPageIDEt, symObjAddr: 0x7B4, symBinAddr: 0x100003FA8, symSize: 0x48 }
  - { offset: 0x12346, size: 0x8, addend: 0x0, symName: __ZN10ColumnFile11flushMasterEv, symObjAddr: 0x7FC, symBinAddr: 0x100003FF0, symSize: 0x2C }
  - { offset: 0x1236C, size: 0x8, addend: 0x0, symName: __ZN10ColumnPageD1Ev, symObjAddr: 0x828, symBinAddr: 0x10000401C, symSize: 0x2C }
  - { offset: 0x12396, size: 0x8, addend: 0x0, symName: __ZN10ColumnFile8loadPageEt, symObjAddr: 0x854, symBinAddr: 0x100004048, symSize: 0x3DC }
  - { offset: 0x12481, size: 0x8, addend: 0x0, symName: __ZNSt3__16vectorIjNS_9allocatorIjEEE4dataB8ne180100Ev, symObjAddr: 0xC30, symBinAddr: 0x100004424, symSize: 0x28 }
  - { offset: 0x124A5, size: 0x8, addend: 0x0, symName: __ZNSt3__16vectorIhNS_9allocatorIhEEEC1Em, symObjAddr: 0xC58, symBinAddr: 0x10000444C, symSize: 0x34 }
  - { offset: 0x124DE, size: 0x8, addend: 0x0, symName: __ZNSt3__16vectorIhNS_9allocatorIhEEE4dataB8ne180100Ev, symObjAddr: 0xC8C, symBinAddr: 0x100004480, symSize: 0x28 }
  - { offset: 0x12503, size: 0x8, addend: 0x0, symName: __ZNSt3__16vectorIhNS_9allocatorIhEEEixB8ne180100Em, symObjAddr: 0xCB4, symBinAddr: 0x1000044A8, symSize: 0x24 }
  - { offset: 0x12538, size: 0x8, addend: 0x0, symName: __ZNSt3__16vectorIbNS_9allocatorIbEEEixB8ne180100Em, symObjAddr: 0xCD8, symBinAddr: 0x1000044CC, symSize: 0x3C }
  - { offset: 0x1256B, size: 0x8, addend: 0x0, symName: __ZNSt3__115__bit_referenceINS_6vectorIbNS_9allocatorIbEEEELb1EEaSB8ne180100Eb, symObjAddr: 0xD14, symBinAddr: 0x100004508, symSize: 0x6C }
  - { offset: 0x1259D, size: 0x8, addend: 0x0, symName: __ZNSt3__16vectorIhNS_9allocatorIhEEED1B8ne180100Ev, symObjAddr: 0xD80, symBinAddr: 0x100004574, symSize: 0x2C }
  - { offset: 0x125C5, size: 0x8, addend: 0x0, symName: __ZNKSt3__16vectorIjNS_9allocatorIjEEE4dataB8ne180100Ev, symObjAddr: 0xDAC, symBinAddr: 0x1000045A0, symSize: 0x28 }
  - { offset: 0x125E9, size: 0x8, addend: 0x0, symName: __ZNKSt3__16vectorIbNS_9allocatorIbEEEixB8ne180100Em, symObjAddr: 0xDD4, symBinAddr: 0x1000045C8, symSize: 0x3C }
  - { offset: 0x1261C, size: 0x8, addend: 0x0, symName: __ZNKSt3__121__bit_const_referenceINS_6vectorIbNS_9allocatorIbEEEEEcvbB8ne180100Ev, symObjAddr: 0xE10, symBinAddr: 0x100004604, symSize: 0x2C }
  - { offset: 0x12640, size: 0x8, addend: 0x0, symName: __ZN10ColumnFile9allocSlotEj, symObjAddr: 0xE3C, symBinAddr: 0x100004630, symSize: 0x14C }
  - { offset: 0x1269E, size: 0x8, addend: 0x0, symName: __ZNK10ColumnPage12findFreeSlotEv, symObjAddr: 0xF88, symBinAddr: 0x10000477C, symSize: 0xA8 }
  - { offset: 0x126DE, size: 0x8, addend: 0x0, symName: __ZN10ColumnPage10writeValueEij, symObjAddr: 0x1030, symBinAddr: 0x100004824, symSize: 0x44 }
  - { offset: 0x1271E, size: 0x8, addend: 0x0, symName: __ZN10ColumnPage8markUsedEi, symObjAddr: 0x1074, symBinAddr: 0x100004868, symSize: 0xC8 }
  - { offset: 0x12750, size: 0x8, addend: 0x0, symName: __ZN10ColumnFile9fetchSlotEj, symObjAddr: 0x113C, symBinAddr: 0x100004930, symSize: 0x138 }
  - { offset: 0x127AF, size: 0x8, addend: 0x0, symName: __ZN10ColumnFile16pageIdFromSlotIdEj, symObjAddr: 0x1274, symBinAddr: 0x100004A68, symSize: 0x1C }
  - { offset: 0x127D1, size: 0x8, addend: 0x0, symName: __ZN10ColumnFile17slotIdxFromSlotIdEj, symObjAddr: 0x1290, symBinAddr: 0x100004A84, symSize: 0x18 }
  - { offset: 0x127F3, size: 0x8, addend: 0x0, symName: __ZNSt3__18optionalIjEC1B8ne180100ENS_9nullopt_tE, symObjAddr: 0x12A8, symBinAddr: 0x100004A9C, symSize: 0x2C }
  - { offset: 0x12826, size: 0x8, addend: 0x0, symName: __ZNKSt3__115__bit_referenceINS_6vectorIbNS_9allocatorIbEEEELb1EEcvbB8ne180100Ev, symObjAddr: 0x12D4, symBinAddr: 0x100004AC8, symSize: 0x2C }
  - { offset: 0x1284A, size: 0x8, addend: 0x0, symName: __ZNK10ColumnPage9readValueEi, symObjAddr: 0x1300, symBinAddr: 0x100004AF4, symSize: 0x34 }
  - { offset: 0x12881, size: 0x8, addend: 0x0, symName: __ZNSt3__18optionalIjEC1B8ne180100IjLi0EEEOT_, symObjAddr: 0x1334, symBinAddr: 0x100004B28, symSize: 0x34 }
  - { offset: 0x128C7, size: 0x8, addend: 0x0, symName: __ZN10ColumnFile10deleteSlotEj, symObjAddr: 0x1368, symBinAddr: 0x100004B5C, symSize: 0x150 }
  - { offset: 0x12935, size: 0x8, addend: 0x0, symName: __ZN10ColumnPage11markDeletedEi, symObjAddr: 0x14B8, symBinAddr: 0x100004CAC, symSize: 0xCC }
  - { offset: 0x12968, size: 0x8, addend: 0x0, symName: __ZNSt3__16vectorItNS_9allocatorItEEEixB8ne180100Em, symObjAddr: 0x1584, symBinAddr: 0x100004D78, symSize: 0x24 }
  - { offset: 0x1299D, size: 0x8, addend: 0x0, symName: __ZN10ColumnPageC2Ett, symObjAddr: 0x15A8, symBinAddr: 0x100004D9C, symSize: 0xA4 }
  - { offset: 0x129E1, size: 0x8, addend: 0x0, symName: __ZNSt3__114numeric_limitsItE3maxB8ne180100Ev, symObjAddr: 0x164C, symBinAddr: 0x100004E40, symSize: 0x18 }
  - { offset: 0x129F4, size: 0x8, addend: 0x0, symName: __ZNSt3__16vectorIjNS_9allocatorIjEEEC1Em, symObjAddr: 0x1664, symBinAddr: 0x100004E58, symSize: 0x34 }
  - { offset: 0x12A2D, size: 0x8, addend: 0x0, symName: __ZNSt3__16vectorIbNS_9allocatorIbEEEC1EmRKb, symObjAddr: 0x1698, symBinAddr: 0x100004E8C, symSize: 0x3C }
  - { offset: 0x12A75, size: 0x8, addend: 0x0, symName: __ZNSt3__16vectorIjNS_9allocatorIjEEED1B8ne180100Ev, symObjAddr: 0x16D4, symBinAddr: 0x100004EC8, symSize: 0x2C }
  - { offset: 0x12A9D, size: 0x8, addend: 0x0, symName: __ZNSt3__123__libcpp_numeric_limitsItLb1EE3maxB8ne180100Ev, symObjAddr: 0x1700, symBinAddr: 0x100004EF4, symSize: 0x8 }
  - { offset: 0x12AB0, size: 0x8, addend: 0x0, symName: __ZNSt3__16vectorIjNS_9allocatorIjEEEC2Em, symObjAddr: 0x1708, symBinAddr: 0x100004EFC, symSize: 0xD4 }
  - { offset: 0x12B0D, size: 0x8, addend: 0x0, symName: __ZNSt3__117__compressed_pairIPjNS_9allocatorIjEEEC1B8ne180100IDnNS_18__default_init_tagEEEOT_OT0_, symObjAddr: 0x17DC, symBinAddr: 0x100004FD0, symSize: 0x3C }
  - { offset: 0x12B63, size: 0x8, addend: 0x0, symName: __ZNSt3__16vectorIjNS_9allocatorIjEEE16__destroy_vectorC1B8ne180100ERS3_, symObjAddr: 0x1858, symBinAddr: 0x10000504C, symSize: 0x34 }
  - { offset: 0x12B9A, size: 0x8, addend: 0x0, symName: __ZNSt3__16vectorIjNS_9allocatorIjEEE11__vallocateB8ne180100Em, symObjAddr: 0x188C, symBinAddr: 0x100005080, symSize: 0xAC }
  - { offset: 0x12BDC, size: 0x8, addend: 0x0, symName: __ZNSt3__16vectorIjNS_9allocatorIjEEE18__construct_at_endEm, symObjAddr: 0x1938, symBinAddr: 0x10000512C, symSize: 0xC8 }
  - { offset: 0x12C4C, size: 0x8, addend: 0x0, symName: __ZNSt3__128__exception_guard_exceptionsINS_6vectorIjNS_9allocatorIjEEE16__destroy_vectorEE10__completeB8ne180100Ev, symObjAddr: 0x1A00, symBinAddr: 0x1000051F4, symSize: 0x1C }
  - { offset: 0x12C70, size: 0x8, addend: 0x0, symName: __ZNSt3__128__exception_guard_exceptionsINS_6vectorIjNS_9allocatorIjEEE16__destroy_vectorEED1B8ne180100Ev, symObjAddr: 0x1A1C, symBinAddr: 0x100005210, symSize: 0x2C }
  - { offset: 0x12C98, size: 0x8, addend: 0x0, symName: __ZNSt3__117__compressed_pairIPjNS_9allocatorIjEEEC2B8ne180100IDnNS_18__default_init_tagEEEOT_OT0_, symObjAddr: 0x1A48, symBinAddr: 0x10000523C, symSize: 0x40 }
  - { offset: 0x12CEE, size: 0x8, addend: 0x0, symName: __ZNSt3__122__compressed_pair_elemIPjLi0ELb0EEC2B8ne180100IDnvEEOT_, symObjAddr: 0x1A88, symBinAddr: 0x10000527C, symSize: 0x1C }
  - { offset: 0x12D2E, size: 0x8, addend: 0x0, symName: __ZNSt3__122__compressed_pair_elemINS_9allocatorIjEELi1ELb1EEC2B8ne180100ENS_18__default_init_tagE, symObjAddr: 0x1AA4, symBinAddr: 0x100005298, symSize: 0x2C }
  - { offset: 0x12D60, size: 0x8, addend: 0x0, symName: __ZNSt3__19allocatorIjEC2B8ne180100Ev, symObjAddr: 0x1AD0, symBinAddr: 0x1000052C4, symSize: 0x2C }
  - { offset: 0x12D88, size: 0x8, addend: 0x0, symName: __ZNSt3__116__non_trivial_ifILb1ENS_9allocatorIjEEEC2B8ne180100Ev, symObjAddr: 0x1AFC, symBinAddr: 0x1000052F0, symSize: 0x14 }
  - { offset: 0x12DB0, size: 0x8, addend: 0x0, symName: __ZNSt3__128__exception_guard_exceptionsINS_6vectorIjNS_9allocatorIjEEE16__destroy_vectorEEC1B8ne180100ES5_, symObjAddr: 0x1B10, symBinAddr: 0x100005304, symSize: 0x34 }
  - { offset: 0x12DE6, size: 0x8, addend: 0x0, symName: __ZNSt3__128__exception_guard_exceptionsINS_6vectorIjNS_9allocatorIjEEE16__destroy_vectorEEC2B8ne180100ES5_, symObjAddr: 0x1B44, symBinAddr: 0x100005338, symSize: 0x24 }
  - { offset: 0x12E1C, size: 0x8, addend: 0x0, symName: __ZNSt3__16vectorIjNS_9allocatorIjEEE16__destroy_vectorC2B8ne180100ERS3_, symObjAddr: 0x1B68, symBinAddr: 0x10000535C, symSize: 0x20 }
  - { offset: 0x12E53, size: 0x8, addend: 0x0, symName: __ZNKSt3__16vectorIjNS_9allocatorIjEEE8max_sizeEv, symObjAddr: 0x1B88, symBinAddr: 0x10000537C, symSize: 0x60 }
  - { offset: 0x12E79, size: 0x8, addend: 0x0, symName: __ZNKSt3__16vectorIjNS_9allocatorIjEEE20__throw_length_errorB8ne180100Ev, symObjAddr: 0x1BE8, symBinAddr: 0x1000053DC, symSize: 0x1C }
  - { offset: 0x12E9D, size: 0x8, addend: 0x0, symName: __ZNSt3__16vectorIjNS_9allocatorIjEEE7__allocB8ne180100Ev, symObjAddr: 0x1C44, symBinAddr: 0x100005438, symSize: 0x28 }
  - { offset: 0x12EC1, size: 0x8, addend: 0x0, symName: __ZNSt3__16vectorIjNS_9allocatorIjEEE9__end_capB8ne180100Ev, symObjAddr: 0x1C6C, symBinAddr: 0x100005460, symSize: 0x28 }
  - { offset: 0x12EE5, size: 0x8, addend: 0x0, symName: __ZNKSt3__16vectorIjNS_9allocatorIjEEE14__annotate_newB8ne180100Em, symObjAddr: 0x1C94, symBinAddr: 0x100005488, symSize: 0x14 }
  - { offset: 0x12F22, size: 0x8, addend: 0x0, symName: __ZNSt3__116allocator_traitsINS_9allocatorIjEEE8max_sizeB8ne180100IS2_vEEmRKS2_, symObjAddr: 0x1CD4, symBinAddr: 0x10000549C, symSize: 0x24 }
  - { offset: 0x12F4F, size: 0x8, addend: 0x0, symName: __ZNKSt3__16vectorIjNS_9allocatorIjEEE7__allocB8ne180100Ev, symObjAddr: 0x1CF8, symBinAddr: 0x1000054C0, symSize: 0x28 }
  - { offset: 0x12F73, size: 0x8, addend: 0x0, symName: __ZNKSt3__19allocatorIjE8max_sizeB8ne180100Ev, symObjAddr: 0x1DBC, symBinAddr: 0x1000054E8, symSize: 0x14 }
  - { offset: 0x12F97, size: 0x8, addend: 0x0, symName: __ZNKSt3__117__compressed_pairIPjNS_9allocatorIjEEE6secondB8ne180100Ev, symObjAddr: 0x1DD0, symBinAddr: 0x1000054FC, symSize: 0x24 }
  - { offset: 0x12FBB, size: 0x8, addend: 0x0, symName: __ZNKSt3__122__compressed_pair_elemINS_9allocatorIjEELi1ELb1EE5__getB8ne180100Ev, symObjAddr: 0x1DF4, symBinAddr: 0x100005520, symSize: 0x14 }
  - { offset: 0x12FDF, size: 0x8, addend: 0x0, symName: __ZNSt3__19allocatorIjE8allocateB8ne180100Em, symObjAddr: 0x1EEC, symBinAddr: 0x100005534, symSize: 0x58 }
  - { offset: 0x13011, size: 0x8, addend: 0x0, symName: __ZNSt3__117__compressed_pairIPjNS_9allocatorIjEEE6secondB8ne180100Ev, symObjAddr: 0x2048, symBinAddr: 0x10000558C, symSize: 0x24 }
  - { offset: 0x13035, size: 0x8, addend: 0x0, symName: __ZNSt3__122__compressed_pair_elemINS_9allocatorIjEELi1ELb1EE5__getB8ne180100Ev, symObjAddr: 0x206C, symBinAddr: 0x1000055B0, symSize: 0x14 }
  - { offset: 0x13059, size: 0x8, addend: 0x0, symName: __ZNSt3__117__compressed_pairIPjNS_9allocatorIjEEE5firstB8ne180100Ev, symObjAddr: 0x2080, symBinAddr: 0x1000055C4, symSize: 0x24 }
  - { offset: 0x1307D, size: 0x8, addend: 0x0, symName: __ZNSt3__122__compressed_pair_elemIPjLi0ELb0EE5__getB8ne180100Ev, symObjAddr: 0x20A4, symBinAddr: 0x1000055E8, symSize: 0x14 }
  - { offset: 0x130BA, size: 0x8, addend: 0x0, symName: __ZNSt3__16vectorIjNS_9allocatorIjEEE21_ConstructTransactionC1B8ne180100ERS3_m, symObjAddr: 0x20B8, symBinAddr: 0x1000055FC, symSize: 0x3C }
  - { offset: 0x13100, size: 0x8, addend: 0x0, symName: __ZNSt3__116allocator_traitsINS_9allocatorIjEEE9constructB8ne180100IjJEvEEvRS2_PT_DpOT0_, symObjAddr: 0x20F4, symBinAddr: 0x100005638, symSize: 0x2C }
  - { offset: 0x13141, size: 0x8, addend: 0x0, symName: __ZNSt3__16vectorIjNS_9allocatorIjEEE21_ConstructTransactionD1B8ne180100Ev, symObjAddr: 0x2134, symBinAddr: 0x100005678, symSize: 0x2C }
  - { offset: 0x13169, size: 0x8, addend: 0x0, symName: __ZNSt3__16vectorIjNS_9allocatorIjEEE21_ConstructTransactionC2B8ne180100ERS3_m, symObjAddr: 0x2160, symBinAddr: 0x1000056A4, symSize: 0x44 }
  - { offset: 0x131AF, size: 0x8, addend: 0x0, symName: __ZNSt3__19allocatorIjE9constructB8ne180100IjJEEEvPT_DpOT0_, symObjAddr: 0x21A4, symBinAddr: 0x1000056E8, symSize: 0x1C }
  - { offset: 0x131EF, size: 0x8, addend: 0x0, symName: __ZNSt3__16vectorIjNS_9allocatorIjEEE21_ConstructTransactionD2B8ne180100Ev, symObjAddr: 0x21C0, symBinAddr: 0x100005704, symSize: 0x20 }
  - { offset: 0x13217, size: 0x8, addend: 0x0, symName: __ZNSt3__128__exception_guard_exceptionsINS_6vectorIjNS_9allocatorIjEEE16__destroy_vectorEED2B8ne180100Ev, symObjAddr: 0x21E0, symBinAddr: 0x100005724, symSize: 0x50 }
  - { offset: 0x1323F, size: 0x8, addend: 0x0, symName: __ZNSt3__16vectorIjNS_9allocatorIjEEE16__destroy_vectorclB8ne180100Ev, symObjAddr: 0x2230, symBinAddr: 0x100005774, symSize: 0x90 }
  - { offset: 0x13263, size: 0x8, addend: 0x0, symName: __ZNSt3__16vectorIjNS_9allocatorIjEEE7__clearB8ne180100Ev, symObjAddr: 0x22C0, symBinAddr: 0x100005804, symSize: 0x28 }
  - { offset: 0x13287, size: 0x8, addend: 0x0, symName: __ZNKSt3__16vectorIjNS_9allocatorIjEEE17__annotate_deleteB8ne180100Ev, symObjAddr: 0x22E8, symBinAddr: 0x10000582C, symSize: 0x10 }
  - { offset: 0x132AB, size: 0x8, addend: 0x0, symName: __ZNSt3__116allocator_traitsINS_9allocatorIjEEE10deallocateB8ne180100ERS2_Pjm, symObjAddr: 0x22F8, symBinAddr: 0x10000583C, symSize: 0x34 }
  - { offset: 0x132EC, size: 0x8, addend: 0x0, symName: __ZNKSt3__16vectorIjNS_9allocatorIjEEE8capacityB8ne180100Ev, symObjAddr: 0x232C, symBinAddr: 0x100005870, symSize: 0x40 }
  - { offset: 0x13310, size: 0x8, addend: 0x0, symName: __ZNSt3__16vectorIjNS_9allocatorIjEEE22__base_destruct_at_endB8ne180100EPj, symObjAddr: 0x236C, symBinAddr: 0x1000058B0, symSize: 0x8C }
  - { offset: 0x13352, size: 0x8, addend: 0x0, symName: __ZNSt3__116allocator_traitsINS_9allocatorIjEEE7destroyB8ne180100IjvEEvRS2_PT_, symObjAddr: 0x23F8, symBinAddr: 0x10000593C, symSize: 0x2C }
  - { offset: 0x1338E, size: 0x8, addend: 0x0, symName: __ZNSt3__19allocatorIjE7destroyB8ne180100EPj, symObjAddr: 0x2424, symBinAddr: 0x100005968, symSize: 0x14 }
  - { offset: 0x133C0, size: 0x8, addend: 0x0, symName: __ZNSt3__19allocatorIjE10deallocateB8ne180100EPjm, symObjAddr: 0x2438, symBinAddr: 0x10000597C, symSize: 0x40 }
  - { offset: 0x13400, size: 0x8, addend: 0x0, symName: __ZNKSt3__16vectorIjNS_9allocatorIjEEE9__end_capB8ne180100Ev, symObjAddr: 0x2580, symBinAddr: 0x1000059BC, symSize: 0x28 }
  - { offset: 0x13424, size: 0x8, addend: 0x0, symName: __ZNKSt3__117__compressed_pairIPjNS_9allocatorIjEEE5firstB8ne180100Ev, symObjAddr: 0x25A8, symBinAddr: 0x1000059E4, symSize: 0x24 }
  - { offset: 0x13448, size: 0x8, addend: 0x0, symName: __ZNKSt3__122__compressed_pair_elemIPjLi0ELb0EE5__getB8ne180100Ev, symObjAddr: 0x25CC, symBinAddr: 0x100005A08, symSize: 0x14 }
  - { offset: 0x1346C, size: 0x8, addend: 0x0, symName: __ZNSt3__16vectorIbNS_9allocatorIbEEEC2EmRKb, symObjAddr: 0x25E0, symBinAddr: 0x100005A1C, symSize: 0x90 }
  - { offset: 0x134B9, size: 0x8, addend: 0x0, symName: __ZNSt3__117__compressed_pairImNS_9allocatorImEEEC1B8ne180100IiNS_18__default_init_tagEEEOT_OT0_, symObjAddr: 0x2670, symBinAddr: 0x100005AAC, symSize: 0x3C }
  - { offset: 0x1350F, size: 0x8, addend: 0x0, symName: __ZNSt3__16vectorIbNS_9allocatorIbEEE11__vallocateB8ne180100Em, symObjAddr: 0x26AC, symBinAddr: 0x100005AE8, symSize: 0xA0 }
  - { offset: 0x13551, size: 0x8, addend: 0x0, symName: __ZNSt3__16vectorIbNS_9allocatorIbEEE18__construct_at_endB8ne180100Emb, symObjAddr: 0x274C, symBinAddr: 0x100005B88, symSize: 0x108 }
  - { offset: 0x135A4, size: 0x8, addend: 0x0, symName: __ZNSt3__117__compressed_pairImNS_9allocatorImEEEC2B8ne180100IiNS_18__default_init_tagEEEOT_OT0_, symObjAddr: 0x2854, symBinAddr: 0x100005C90, symSize: 0x40 }
  - { offset: 0x135FA, size: 0x8, addend: 0x0, symName: __ZNSt3__122__compressed_pair_elemImLi0ELb0EEC2B8ne180100IivEEOT_, symObjAddr: 0x2894, symBinAddr: 0x100005CD0, symSize: 0x24 }
  - { offset: 0x1363A, size: 0x8, addend: 0x0, symName: __ZNSt3__122__compressed_pair_elemINS_9allocatorImEELi1ELb1EEC2B8ne180100ENS_18__default_init_tagE, symObjAddr: 0x28B8, symBinAddr: 0x100005CF4, symSize: 0x2C }
  - { offset: 0x1366C, size: 0x8, addend: 0x0, symName: __ZNSt3__19allocatorImEC2B8ne180100Ev, symObjAddr: 0x28E4, symBinAddr: 0x100005D20, symSize: 0x2C }
  - { offset: 0x13694, size: 0x8, addend: 0x0, symName: __ZNSt3__116__non_trivial_ifILb1ENS_9allocatorImEEEC2B8ne180100Ev, symObjAddr: 0x2910, symBinAddr: 0x100005D4C, symSize: 0x14 }
  - { offset: 0x136BC, size: 0x8, addend: 0x0, symName: __ZNKSt3__16vectorIbNS_9allocatorIbEEE8max_sizeEv, symObjAddr: 0x2924, symBinAddr: 0x100005D60, symSize: 0x7C }
  - { offset: 0x13700, size: 0x8, addend: 0x0, symName: __ZNKSt3__16vectorIbNS_9allocatorIbEEE20__throw_length_errorB8ne180100Ev, symObjAddr: 0x29A0, symBinAddr: 0x100005DDC, symSize: 0x1C }
  - { offset: 0x13724, size: 0x8, addend: 0x0, symName: __ZNSt3__16vectorIbNS_9allocatorIbEEE7__allocB8ne180100Ev, symObjAddr: 0x29FC, symBinAddr: 0x100005E38, symSize: 0x28 }
  - { offset: 0x13748, size: 0x8, addend: 0x0, symName: __ZNSt3__16vectorIbNS_9allocatorIbEEE26__external_cap_to_internalB8ne180100Em, symObjAddr: 0x2A24, symBinAddr: 0x100005E60, symSize: 0x24 }
  - { offset: 0x1376B, size: 0x8, addend: 0x0, symName: __ZNSt3__16vectorIbNS_9allocatorIbEEE5__capB8ne180100Ev, symObjAddr: 0x2A48, symBinAddr: 0x100005E84, symSize: 0x28 }
  - { offset: 0x13799, size: 0x8, addend: 0x0, symName: __ZNSt3__116allocator_traitsINS_9allocatorImEEE8max_sizeB8ne180100IS2_vEEmRKS2_, symObjAddr: 0x2A70, symBinAddr: 0x100005EAC, symSize: 0x24 }
  - { offset: 0x137C6, size: 0x8, addend: 0x0, symName: __ZNKSt3__16vectorIbNS_9allocatorIbEEE7__allocB8ne180100Ev, symObjAddr: 0x2A94, symBinAddr: 0x100005ED0, symSize: 0x28 }
  - { offset: 0x137EA, size: 0x8, addend: 0x0, symName: __ZNSt3__114numeric_limitsImE3maxB8ne180100Ev, symObjAddr: 0x2ABC, symBinAddr: 0x100005EF8, symSize: 0x14 }
  - { offset: 0x137FD, size: 0x8, addend: 0x0, symName: __ZNSt3__16vectorIbNS_9allocatorIbEEE26__internal_cap_to_externalB8ne180100Em, symObjAddr: 0x2AD0, symBinAddr: 0x100005F0C, symSize: 0x18 }
  - { offset: 0x13820, size: 0x8, addend: 0x0, symName: __ZNKSt3__19allocatorImE8max_sizeB8ne180100Ev, symObjAddr: 0x2AE8, symBinAddr: 0x100005F24, symSize: 0x14 }
  - { offset: 0x13844, size: 0x8, addend: 0x0, symName: __ZNKSt3__117__compressed_pairImNS_9allocatorImEEE6secondB8ne180100Ev, symObjAddr: 0x2AFC, symBinAddr: 0x100005F38, symSize: 0x24 }
  - { offset: 0x13868, size: 0x8, addend: 0x0, symName: __ZNKSt3__122__compressed_pair_elemINS_9allocatorImEELi1ELb1EE5__getB8ne180100Ev, symObjAddr: 0x2B20, symBinAddr: 0x100005F5C, symSize: 0x14 }
  - { offset: 0x1388C, size: 0x8, addend: 0x0, symName: __ZNSt3__123__libcpp_numeric_limitsImLb1EE3maxB8ne180100Ev, symObjAddr: 0x2B34, symBinAddr: 0x100005F70, symSize: 0x8 }
  - { offset: 0x1389F, size: 0x8, addend: 0x0, symName: __ZNSt3__19allocatorImE8allocateB8ne180100Em, symObjAddr: 0x2B3C, symBinAddr: 0x100005F78, symSize: 0x58 }
  - { offset: 0x138D1, size: 0x8, addend: 0x0, symName: __ZNSt3__117__compressed_pairImNS_9allocatorImEEE6secondB8ne180100Ev, symObjAddr: 0x2B94, symBinAddr: 0x100005FD0, symSize: 0x24 }
  - { offset: 0x138F5, size: 0x8, addend: 0x0, symName: __ZNSt3__122__compressed_pair_elemINS_9allocatorImEELi1ELb1EE5__getB8ne180100Ev, symObjAddr: 0x2BB8, symBinAddr: 0x100005FF4, symSize: 0x14 }
  - { offset: 0x13919, size: 0x8, addend: 0x0, symName: __ZNSt3__117__compressed_pairImNS_9allocatorImEEE5firstB8ne180100Ev, symObjAddr: 0x2BCC, symBinAddr: 0x100006008, symSize: 0x24 }
  - { offset: 0x1393D, size: 0x8, addend: 0x0, symName: __ZNSt3__122__compressed_pair_elemImLi0ELb0EE5__getB8ne180100Ev, symObjAddr: 0x2BF0, symBinAddr: 0x10000602C, symSize: 0x14 }
  - { offset: 0x13961, size: 0x8, addend: 0x0, symName: __ZNSt3__16vectorIbNS_9allocatorIbEEE11__make_iterB8ne180100Em, symObjAddr: 0x2C98, symBinAddr: 0x1000060D4, symSize: 0x64 }
  - { offset: 0x13994, size: 0x8, addend: 0x0, symName: __ZNSt3__114__bit_iteratorINS_6vectorIbNS_9allocatorIbEEEELb0ELm0EEC1B8ne180100ERKS5_, symObjAddr: 0x2E60, symBinAddr: 0x10000629C, symSize: 0x34 }
  - { offset: 0x139CB, size: 0x8, addend: 0x0, symName: __ZNSt3__114__bit_iteratorINS_6vectorIbNS_9allocatorIbEEEELb0ELm0EEC2B8ne180100ERKS5_, symObjAddr: 0x30C4, symBinAddr: 0x1000064EC, symSize: 0x30 }
  - { offset: 0x13A02, size: 0x8, addend: 0x0, symName: __ZNSt3__114__bit_iteratorINS_6vectorIbNS_9allocatorIbEEEELb0ELm0EEC1B8ne180100EPmj, symObjAddr: 0x30F4, symBinAddr: 0x10000651C, symSize: 0x3C }
  - { offset: 0x13A48, size: 0x8, addend: 0x0, symName: __ZNSt3__114__bit_iteratorINS_6vectorIbNS_9allocatorIbEEEELb0ELm0EEC2B8ne180100EPmj, symObjAddr: 0x3130, symBinAddr: 0x100006558, symSize: 0x2C }
  - { offset: 0x13A8E, size: 0x8, addend: 0x0, symName: __ZNSt3__16vectorIjNS_9allocatorIjEEED2B8ne180100Ev, symObjAddr: 0x315C, symBinAddr: 0x100006584, symSize: 0x40 }
  - { offset: 0x13AB6, size: 0x8, addend: 0x0, symName: __ZN10ColumnPageD2Ev, symObjAddr: 0x319C, symBinAddr: 0x1000065C4, symSize: 0x3C }
  - { offset: 0x13AE0, size: 0x8, addend: 0x0, symName: __ZNSt3__16vectorIbNS_9allocatorIbEEED1B8ne180100Ev, symObjAddr: 0x31D8, symBinAddr: 0x100006600, symSize: 0x2C }
  - { offset: 0x13B08, size: 0x8, addend: 0x0, symName: __ZNSt3__16vectorIbNS_9allocatorIbEEED2B8ne180100Ev, symObjAddr: 0x3204, symBinAddr: 0x10000662C, symSize: 0x44 }
  - { offset: 0x13B30, size: 0x8, addend: 0x0, symName: __ZNSt3__16vectorIbNS_9allocatorIbEEE16__destroy_vectorC1B8ne180100ERS3_, symObjAddr: 0x3248, symBinAddr: 0x100006670, symSize: 0x34 }
  - { offset: 0x13B67, size: 0x8, addend: 0x0, symName: __ZNSt3__16vectorIbNS_9allocatorIbEEE16__destroy_vectorclB8ne180100Ev, symObjAddr: 0x327C, symBinAddr: 0x1000066A4, symSize: 0x7C }
  - { offset: 0x13B8B, size: 0x8, addend: 0x0, symName: __ZNSt3__16vectorIbNS_9allocatorIbEEE16__destroy_vectorC2B8ne180100ERS3_, symObjAddr: 0x32F8, symBinAddr: 0x100006720, symSize: 0x20 }
  - { offset: 0x13BC2, size: 0x8, addend: 0x0, symName: __ZNSt3__116allocator_traitsINS_9allocatorImEEE10deallocateB8ne180100ERS2_Pmm, symObjAddr: 0x3318, symBinAddr: 0x100006740, symSize: 0x34 }
  - { offset: 0x13C03, size: 0x8, addend: 0x0, symName: __ZNSt3__19allocatorImE10deallocateB8ne180100EPmm, symObjAddr: 0x334C, symBinAddr: 0x100006774, symSize: 0x40 }
  - { offset: 0x13C44, size: 0x8, addend: 0x0, symName: __ZNSt3__16vectorIjNS_9allocatorIjEEEixB8ne180100Em, symObjAddr: 0x338C, symBinAddr: 0x1000067B4, symSize: 0x24 }
  - { offset: 0x13C79, size: 0x8, addend: 0x0, symName: __ZNSt3__18optionalIjEC2B8ne180100ENS_9nullopt_tE, symObjAddr: 0x33B0, symBinAddr: 0x1000067D8, symSize: 0x2C }
  - { offset: 0x13CB2, size: 0x8, addend: 0x0, symName: __ZNSt3__127__optional_move_assign_baseIjLb1EEC2Ev, symObjAddr: 0x33DC, symBinAddr: 0x100006804, symSize: 0x2C }
  - { offset: 0x13CE3, size: 0x8, addend: 0x0, symName: __ZNSt3__127__optional_copy_assign_baseIjLb1EEC2Ev, symObjAddr: 0x3408, symBinAddr: 0x100006830, symSize: 0x2C }
  - { offset: 0x13D14, size: 0x8, addend: 0x0, symName: __ZNSt3__120__optional_move_baseIjLb1EEC2Ev, symObjAddr: 0x3434, symBinAddr: 0x10000685C, symSize: 0x2C }
  - { offset: 0x13D45, size: 0x8, addend: 0x0, symName: __ZNSt3__120__optional_copy_baseIjLb1EEC2Ev, symObjAddr: 0x3460, symBinAddr: 0x100006888, symSize: 0x2C }
  - { offset: 0x13D71, size: 0x8, addend: 0x0, symName: __ZNSt3__123__optional_storage_baseIjLb0EEC2Ev, symObjAddr: 0x348C, symBinAddr: 0x1000068B4, symSize: 0x2C }
  - { offset: 0x13D9C, size: 0x8, addend: 0x0, symName: __ZNSt3__124__optional_destruct_baseIjLb1EEC2B8ne180100Ev, symObjAddr: 0x34B8, symBinAddr: 0x1000068E0, symSize: 0x1C }
  - { offset: 0x13DC5, size: 0x8, addend: 0x0, symName: __ZNKSt3__16vectorIjNS_9allocatorIjEEEixB8ne180100Em, symObjAddr: 0x34D4, symBinAddr: 0x1000068FC, symSize: 0x24 }
  - { offset: 0x13DFA, size: 0x8, addend: 0x0, symName: __ZNSt3__18optionalIjEC2B8ne180100IjLi0EEEOT_, symObjAddr: 0x34F8, symBinAddr: 0x100006920, symSize: 0x34 }
  - { offset: 0x13E41, size: 0x8, addend: 0x0, symName: __ZNSt3__127__optional_move_assign_baseIjLb1EECI2NS_24__optional_destruct_baseIjLb1EEEIJjEEENS_10in_place_tEDpOT_, symObjAddr: 0x352C, symBinAddr: 0x100006954, symSize: 0x34 }
  - { offset: 0x13E7F, size: 0x8, addend: 0x0, symName: __ZNSt3__127__optional_copy_assign_baseIjLb1EECI2NS_24__optional_destruct_baseIjLb1EEEIJjEEENS_10in_place_tEDpOT_, symObjAddr: 0x3560, symBinAddr: 0x100006988, symSize: 0x34 }
  - { offset: 0x13EBD, size: 0x8, addend: 0x0, symName: __ZNSt3__120__optional_move_baseIjLb1EECI2NS_24__optional_destruct_baseIjLb1EEEIJjEEENS_10in_place_tEDpOT_, symObjAddr: 0x3594, symBinAddr: 0x1000069BC, symSize: 0x34 }
  - { offset: 0x13EFB, size: 0x8, addend: 0x0, symName: __ZNSt3__120__optional_copy_baseIjLb1EECI2NS_24__optional_destruct_baseIjLb1EEEIJjEEENS_10in_place_tEDpOT_, symObjAddr: 0x35C8, symBinAddr: 0x1000069F0, symSize: 0x34 }
  - { offset: 0x13F39, size: 0x8, addend: 0x0, symName: __ZNSt3__123__optional_storage_baseIjLb0EECI2NS_24__optional_destruct_baseIjLb1EEEIJjEEENS_10in_place_tEDpOT_, symObjAddr: 0x35FC, symBinAddr: 0x100006A24, symSize: 0x34 }
  - { offset: 0x13F76, size: 0x8, addend: 0x0, symName: __ZNSt3__124__optional_destruct_baseIjLb1EEC2B8ne180100IJjEEENS_10in_place_tEDpOT_, symObjAddr: 0x3630, symBinAddr: 0x100006A58, symSize: 0x2C }
  - { offset: 0x13FC3, size: 0x8, addend: 0x0, symName: __ZNKSt3__16vectorIbNS_9allocatorIbEEE10__make_refB8ne180100Em, symObjAddr: 0x365C, symBinAddr: 0x100006A84, symSize: 0x60 }
  - { offset: 0x13FF6, size: 0x8, addend: 0x0, symName: __ZNSt3__121__bit_const_referenceINS_6vectorIbNS_9allocatorIbEEEEEC1B8ne180100EPKmm, symObjAddr: 0x36BC, symBinAddr: 0x100006AE4, symSize: 0x3C }
  - { offset: 0x1403A, size: 0x8, addend: 0x0, symName: __ZNSt3__121__bit_const_referenceINS_6vectorIbNS_9allocatorIbEEEEEC2B8ne180100EPKmm, symObjAddr: 0x36F8, symBinAddr: 0x100006B20, symSize: 0x2C }
  - { offset: 0x1407E, size: 0x8, addend: 0x0, symName: __ZNSt3__16vectorIbNS_9allocatorIbEEE10__make_refB8ne180100Em, symObjAddr: 0x3724, symBinAddr: 0x100006B4C, symSize: 0x60 }
  - { offset: 0x140B1, size: 0x8, addend: 0x0, symName: __ZNSt3__115__bit_referenceINS_6vectorIbNS_9allocatorIbEEEELb1EEC1B8ne180100EPmm, symObjAddr: 0x3784, symBinAddr: 0x100006BAC, symSize: 0x3C }
  - { offset: 0x140F5, size: 0x8, addend: 0x0, symName: __ZNSt3__115__bit_referenceINS_6vectorIbNS_9allocatorIbEEEELb1EEC2B8ne180100EPmm, symObjAddr: 0x37C0, symBinAddr: 0x100006BE8, symSize: 0x2C }
  - { offset: 0x14139, size: 0x8, addend: 0x0, symName: __ZNKSt3__112basic_stringIcNS_11char_traitsIcEENS_9allocatorIcEEE4dataB8ne180100Ev, symObjAddr: 0x37EC, symBinAddr: 0x100006C14, symSize: 0x28 }
  - { offset: 0x1415D, size: 0x8, addend: 0x0, symName: __ZNKSt3__112basic_stringIcNS_11char_traitsIcEENS_9allocatorIcEEE13__get_pointerB8ne180100Ev, symObjAddr: 0x3828, symBinAddr: 0x100006C50, symSize: 0x54 }
  - { offset: 0x14181, size: 0x8, addend: 0x0, symName: __ZNKSt3__112basic_stringIcNS_11char_traitsIcEENS_9allocatorIcEEE9__is_longB8ne180100Ev, symObjAddr: 0x387C, symBinAddr: 0x100006CA4, symSize: 0x38 }
  - { offset: 0x141A5, size: 0x8, addend: 0x0, symName: __ZNKSt3__112basic_stringIcNS_11char_traitsIcEENS_9allocatorIcEEE18__get_long_pointerB8ne180100Ev, symObjAddr: 0x38B4, symBinAddr: 0x100006CDC, symSize: 0x28 }
  - { offset: 0x141C9, size: 0x8, addend: 0x0, symName: __ZNKSt3__112basic_stringIcNS_11char_traitsIcEENS_9allocatorIcEEE19__get_short_pointerB8ne180100Ev, symObjAddr: 0x38DC, symBinAddr: 0x100006D04, symSize: 0x28 }
  - { offset: 0x141ED, size: 0x8, addend: 0x0, symName: __ZNKSt3__117__compressed_pairINS_12basic_stringIcNS_11char_traitsIcEENS_9allocatorIcEEE5__repES5_E5firstB8ne180100Ev, symObjAddr: 0x3904, symBinAddr: 0x100006D2C, symSize: 0x24 }
  - { offset: 0x14211, size: 0x8, addend: 0x0, symName: __ZNKSt3__122__compressed_pair_elemINS_12basic_stringIcNS_11char_traitsIcEENS_9allocatorIcEEE5__repELi0ELb0EE5__getB8ne180100Ev, symObjAddr: 0x3928, symBinAddr: 0x100006D50, symSize: 0x14 }
  - { offset: 0x14235, size: 0x8, addend: 0x0, symName: __ZNSt3__114pointer_traitsIPKcE10pointer_toB8ne180100ERS1_, symObjAddr: 0x393C, symBinAddr: 0x100006D64, symSize: 0x14 }
  - { offset: 0x14257, size: 0x8, addend: 0x0, symName: __ZNSt3__16vectorIhNS_9allocatorIhEEEC2Em, symObjAddr: 0x3950, symBinAddr: 0x100006D78, symSize: 0xD4 }
  - { offset: 0x142A5, size: 0x8, addend: 0x0, symName: __ZNSt3__117__compressed_pairIPhNS_9allocatorIhEEEC1B8ne180100IDnNS_18__default_init_tagEEEOT_OT0_, symObjAddr: 0x3A24, symBinAddr: 0x100006E4C, symSize: 0x3C }
  - { offset: 0x142FB, size: 0x8, addend: 0x0, symName: __ZNSt3__16vectorIhNS_9allocatorIhEEE16__destroy_vectorC1B8ne180100ERS3_, symObjAddr: 0x3AA0, symBinAddr: 0x100006EC8, symSize: 0x34 }
  - { offset: 0x14332, size: 0x8, addend: 0x0, symName: __ZNSt3__16vectorIhNS_9allocatorIhEEE11__vallocateB8ne180100Em, symObjAddr: 0x3AD4, symBinAddr: 0x100006EFC, symSize: 0xAC }
  - { offset: 0x14374, size: 0x8, addend: 0x0, symName: __ZNSt3__16vectorIhNS_9allocatorIhEEE18__construct_at_endEm, symObjAddr: 0x3B80, symBinAddr: 0x100006FA8, symSize: 0xC8 }
  - { offset: 0x143E4, size: 0x8, addend: 0x0, symName: __ZNSt3__128__exception_guard_exceptionsINS_6vectorIhNS_9allocatorIhEEE16__destroy_vectorEE10__completeB8ne180100Ev, symObjAddr: 0x3C48, symBinAddr: 0x100007070, symSize: 0x1C }
  - { offset: 0x14408, size: 0x8, addend: 0x0, symName: __ZNSt3__128__exception_guard_exceptionsINS_6vectorIhNS_9allocatorIhEEE16__destroy_vectorEED1B8ne180100Ev, symObjAddr: 0x3C64, symBinAddr: 0x10000708C, symSize: 0x2C }
  - { offset: 0x14430, size: 0x8, addend: 0x0, symName: __ZNSt3__117__compressed_pairIPhNS_9allocatorIhEEEC2B8ne180100IDnNS_18__default_init_tagEEEOT_OT0_, symObjAddr: 0x3C90, symBinAddr: 0x1000070B8, symSize: 0x40 }
  - { offset: 0x14486, size: 0x8, addend: 0x0, symName: __ZNSt3__122__compressed_pair_elemIPhLi0ELb0EEC2B8ne180100IDnvEEOT_, symObjAddr: 0x3CD0, symBinAddr: 0x1000070F8, symSize: 0x1C }
  - { offset: 0x144C6, size: 0x8, addend: 0x0, symName: __ZNSt3__122__compressed_pair_elemINS_9allocatorIhEELi1ELb1EEC2B8ne180100ENS_18__default_init_tagE, symObjAddr: 0x3CEC, symBinAddr: 0x100007114, symSize: 0x2C }
  - { offset: 0x144F8, size: 0x8, addend: 0x0, symName: __ZNSt3__19allocatorIhEC2B8ne180100Ev, symObjAddr: 0x3D18, symBinAddr: 0x100007140, symSize: 0x2C }
  - { offset: 0x14520, size: 0x8, addend: 0x0, symName: __ZNSt3__116__non_trivial_ifILb1ENS_9allocatorIhEEEC2B8ne180100Ev, symObjAddr: 0x3D44, symBinAddr: 0x10000716C, symSize: 0x14 }
  - { offset: 0x14548, size: 0x8, addend: 0x0, symName: __ZNSt3__128__exception_guard_exceptionsINS_6vectorIhNS_9allocatorIhEEE16__destroy_vectorEEC1B8ne180100ES5_, symObjAddr: 0x3D58, symBinAddr: 0x100007180, symSize: 0x34 }
  - { offset: 0x1457E, size: 0x8, addend: 0x0, symName: __ZNSt3__128__exception_guard_exceptionsINS_6vectorIhNS_9allocatorIhEEE16__destroy_vectorEEC2B8ne180100ES5_, symObjAddr: 0x3D8C, symBinAddr: 0x1000071B4, symSize: 0x24 }
  - { offset: 0x145B4, size: 0x8, addend: 0x0, symName: __ZNSt3__16vectorIhNS_9allocatorIhEEE16__destroy_vectorC2B8ne180100ERS3_, symObjAddr: 0x3DB0, symBinAddr: 0x1000071D8, symSize: 0x20 }
  - { offset: 0x145EB, size: 0x8, addend: 0x0, symName: __ZNKSt3__16vectorIhNS_9allocatorIhEEE8max_sizeEv, symObjAddr: 0x3DD0, symBinAddr: 0x1000071F8, symSize: 0x60 }
  - { offset: 0x14611, size: 0x8, addend: 0x0, symName: __ZNKSt3__16vectorIhNS_9allocatorIhEEE20__throw_length_errorB8ne180100Ev, symObjAddr: 0x3E30, symBinAddr: 0x100007258, symSize: 0x1C }
  - { offset: 0x14635, size: 0x8, addend: 0x0, symName: __ZNSt3__16vectorIhNS_9allocatorIhEEE7__allocB8ne180100Ev, symObjAddr: 0x3E8C, symBinAddr: 0x1000072B4, symSize: 0x28 }
  - { offset: 0x14659, size: 0x8, addend: 0x0, symName: __ZNSt3__16vectorIhNS_9allocatorIhEEE9__end_capB8ne180100Ev, symObjAddr: 0x3EB4, symBinAddr: 0x1000072DC, symSize: 0x28 }
  - { offset: 0x1467D, size: 0x8, addend: 0x0, symName: __ZNKSt3__16vectorIhNS_9allocatorIhEEE14__annotate_newB8ne180100Em, symObjAddr: 0x3EDC, symBinAddr: 0x100007304, symSize: 0x14 }
  - { offset: 0x146BA, size: 0x8, addend: 0x0, symName: __ZNSt3__116allocator_traitsINS_9allocatorIhEEE8max_sizeB8ne180100IS2_vEEmRKS2_, symObjAddr: 0x3EF0, symBinAddr: 0x100007318, symSize: 0x24 }
  - { offset: 0x146E7, size: 0x8, addend: 0x0, symName: __ZNKSt3__16vectorIhNS_9allocatorIhEEE7__allocB8ne180100Ev, symObjAddr: 0x3F14, symBinAddr: 0x10000733C, symSize: 0x28 }
  - { offset: 0x1470B, size: 0x8, addend: 0x0, symName: __ZNKSt3__19allocatorIhE8max_sizeB8ne180100Ev, symObjAddr: 0x3F3C, symBinAddr: 0x100007364, symSize: 0x14 }
  - { offset: 0x1472F, size: 0x8, addend: 0x0, symName: __ZNKSt3__117__compressed_pairIPhNS_9allocatorIhEEE6secondB8ne180100Ev, symObjAddr: 0x3F50, symBinAddr: 0x100007378, symSize: 0x24 }
  - { offset: 0x14753, size: 0x8, addend: 0x0, symName: __ZNKSt3__122__compressed_pair_elemINS_9allocatorIhEELi1ELb1EE5__getB8ne180100Ev, symObjAddr: 0x3F74, symBinAddr: 0x10000739C, symSize: 0x14 }
  - { offset: 0x14777, size: 0x8, addend: 0x0, symName: __ZNSt3__19allocatorIhE8allocateB8ne180100Em, symObjAddr: 0x3F88, symBinAddr: 0x1000073B0, symSize: 0x58 }
  - { offset: 0x147A9, size: 0x8, addend: 0x0, symName: __ZNSt3__117__compressed_pairIPhNS_9allocatorIhEEE6secondB8ne180100Ev, symObjAddr: 0x3FE0, symBinAddr: 0x100007408, symSize: 0x24 }
  - { offset: 0x147CD, size: 0x8, addend: 0x0, symName: __ZNSt3__122__compressed_pair_elemINS_9allocatorIhEELi1ELb1EE5__getB8ne180100Ev, symObjAddr: 0x4004, symBinAddr: 0x10000742C, symSize: 0x14 }
  - { offset: 0x147F1, size: 0x8, addend: 0x0, symName: __ZNSt3__117__compressed_pairIPhNS_9allocatorIhEEE5firstB8ne180100Ev, symObjAddr: 0x4018, symBinAddr: 0x100007440, symSize: 0x24 }
  - { offset: 0x14815, size: 0x8, addend: 0x0, symName: __ZNSt3__122__compressed_pair_elemIPhLi0ELb0EE5__getB8ne180100Ev, symObjAddr: 0x403C, symBinAddr: 0x100007464, symSize: 0x14 }
  - { offset: 0x14852, size: 0x8, addend: 0x0, symName: __ZNSt3__16vectorIhNS_9allocatorIhEEE21_ConstructTransactionC1B8ne180100ERS3_m, symObjAddr: 0x4050, symBinAddr: 0x100007478, symSize: 0x3C }
  - { offset: 0x14898, size: 0x8, addend: 0x0, symName: __ZNSt3__116allocator_traitsINS_9allocatorIhEEE9constructB8ne180100IhJEvEEvRS2_PT_DpOT0_, symObjAddr: 0x408C, symBinAddr: 0x1000074B4, symSize: 0x2C }
  - { offset: 0x148D9, size: 0x8, addend: 0x0, symName: __ZNSt3__16vectorIhNS_9allocatorIhEEE21_ConstructTransactionD1B8ne180100Ev, symObjAddr: 0x40CC, symBinAddr: 0x1000074F4, symSize: 0x2C }
  - { offset: 0x14901, size: 0x8, addend: 0x0, symName: __ZNSt3__16vectorIhNS_9allocatorIhEEE21_ConstructTransactionC2B8ne180100ERS3_m, symObjAddr: 0x40F8, symBinAddr: 0x100007520, symSize: 0x44 }
  - { offset: 0x14947, size: 0x8, addend: 0x0, symName: __ZNSt3__19allocatorIhE9constructB8ne180100IhJEEEvPT_DpOT0_, symObjAddr: 0x413C, symBinAddr: 0x100007564, symSize: 0x1C }
  - { offset: 0x14987, size: 0x8, addend: 0x0, symName: __ZNSt3__16vectorIhNS_9allocatorIhEEE21_ConstructTransactionD2B8ne180100Ev, symObjAddr: 0x4158, symBinAddr: 0x100007580, symSize: 0x20 }
  - { offset: 0x149AF, size: 0x8, addend: 0x0, symName: __ZNSt3__128__exception_guard_exceptionsINS_6vectorIhNS_9allocatorIhEEE16__destroy_vectorEED2B8ne180100Ev, symObjAddr: 0x4178, symBinAddr: 0x1000075A0, symSize: 0x50 }
  - { offset: 0x149D7, size: 0x8, addend: 0x0, symName: __ZNSt3__16vectorIhNS_9allocatorIhEEE16__destroy_vectorclB8ne180100Ev, symObjAddr: 0x41C8, symBinAddr: 0x1000075F0, symSize: 0x90 }
  - { offset: 0x149FB, size: 0x8, addend: 0x0, symName: __ZNSt3__16vectorIhNS_9allocatorIhEEE7__clearB8ne180100Ev, symObjAddr: 0x4258, symBinAddr: 0x100007680, symSize: 0x28 }
  - { offset: 0x14A1F, size: 0x8, addend: 0x0, symName: __ZNKSt3__16vectorIhNS_9allocatorIhEEE17__annotate_deleteB8ne180100Ev, symObjAddr: 0x4280, symBinAddr: 0x1000076A8, symSize: 0x10 }
  - { offset: 0x14A43, size: 0x8, addend: 0x0, symName: __ZNSt3__116allocator_traitsINS_9allocatorIhEEE10deallocateB8ne180100ERS2_Phm, symObjAddr: 0x4290, symBinAddr: 0x1000076B8, symSize: 0x34 }
  - { offset: 0x14A84, size: 0x8, addend: 0x0, symName: __ZNKSt3__16vectorIhNS_9allocatorIhEEE8capacityB8ne180100Ev, symObjAddr: 0x42C4, symBinAddr: 0x1000076EC, symSize: 0x38 }
  - { offset: 0x14AA8, size: 0x8, addend: 0x0, symName: __ZNSt3__16vectorIhNS_9allocatorIhEEE22__base_destruct_at_endB8ne180100EPh, symObjAddr: 0x42FC, symBinAddr: 0x100007724, symSize: 0x8C }
  - { offset: 0x14AEA, size: 0x8, addend: 0x0, symName: __ZNSt3__116allocator_traitsINS_9allocatorIhEEE7destroyB8ne180100IhvEEvRS2_PT_, symObjAddr: 0x4388, symBinAddr: 0x1000077B0, symSize: 0x2C }
  - { offset: 0x14B26, size: 0x8, addend: 0x0, symName: __ZNSt3__19allocatorIhE7destroyB8ne180100EPh, symObjAddr: 0x43B4, symBinAddr: 0x1000077DC, symSize: 0x14 }
  - { offset: 0x14B58, size: 0x8, addend: 0x0, symName: __ZNSt3__19allocatorIhE10deallocateB8ne180100EPhm, symObjAddr: 0x43C8, symBinAddr: 0x1000077F0, symSize: 0x40 }
  - { offset: 0x14B98, size: 0x8, addend: 0x0, symName: __ZNKSt3__16vectorIhNS_9allocatorIhEEE9__end_capB8ne180100Ev, symObjAddr: 0x4408, symBinAddr: 0x100007830, symSize: 0x28 }
  - { offset: 0x14BBC, size: 0x8, addend: 0x0, symName: __ZNKSt3__117__compressed_pairIPhNS_9allocatorIhEEE5firstB8ne180100Ev, symObjAddr: 0x4430, symBinAddr: 0x100007858, symSize: 0x24 }
  - { offset: 0x14BE0, size: 0x8, addend: 0x0, symName: __ZNKSt3__122__compressed_pair_elemIPhLi0ELb0EE5__getB8ne180100Ev, symObjAddr: 0x4454, symBinAddr: 0x10000787C, symSize: 0x14 }
  - { offset: 0x14C04, size: 0x8, addend: 0x0, symName: __ZNSt3__16vectorIhNS_9allocatorIhEEED2B8ne180100Ev, symObjAddr: 0x4468, symBinAddr: 0x100007890, symSize: 0x40 }
  - { offset: 0x1C340, size: 0x8, addend: 0x0, symName: __ZNSt3__16copy_nB8ne180100IPKcmPcLi0EEET1_T_T0_S4_, symObjAddr: 0x3410, symBinAddr: 0x100009E4C, symSize: 0x44 }
  - { offset: 0x1CB35, size: 0x8, addend: 0x0, symName: __ZNSt3__17advanceB8ne180100IPjllvEEvRT_T0_, symObjAddr: 0x6B00, symBinAddr: 0x10000D2CC, symSize: 0x38 }
  - { offset: 0x1CBA0, size: 0x8, addend: 0x0, symName: __ZNSt3__1plB8ne180100IcNS_11char_traitsIcEENS_9allocatorIcEEEENS_12basic_stringIT_T0_T1_EERKS9_PKS6_, symObjAddr: 0x60, symBinAddr: 0x100007930, symSize: 0x11C }
  - { offset: 0x1CC41, size: 0x8, addend: 0x0, symName: __ZNSt3__130__uninitialized_allocator_copyB8ne180100INS_9allocatorIjEEPjS3_S3_EET2_RT_T0_T1_S4_, symObjAddr: 0x2334, symBinAddr: 0x100008EFC, symSize: 0x80 }
  - { offset: 0x1CCDE, size: 0x8, addend: 0x0, symName: __ZNSt3__114__unwrap_rangeB8ne180100IPjS1_EENS_4pairIT0_S3_EET_S5_, symObjAddr: 0x2424, symBinAddr: 0x100008F7C, symSize: 0x60 }
  - { offset: 0x1CD2A, size: 0x8, addend: 0x0, symName: __ZNSt3__135__uninitialized_allocator_copy_implB8ne180100INS_9allocatorIjEEjjjLPv0EEEPT2_RT_PT0_S9_S5_, symObjAddr: 0x2484, symBinAddr: 0x100008FDC, symSize: 0x38 }
  - { offset: 0x1CDAB, size: 0x8, addend: 0x0, symName: __ZNSt3__113__unwrap_iterB8ne180100IPjNS_18__unwrap_iter_implIS1_Lb1EEELi0EEEDTclsrT0_8__unwrapclsr3stdE7declvalIT_EEEES5_, symObjAddr: 0x24BC, symBinAddr: 0x100009014, symSize: 0x24 }
  - { offset: 0x1CDEF, size: 0x8, addend: 0x0, symName: __ZNSt3__113__rewrap_iterB8ne180100IPjS1_NS_18__unwrap_iter_implIS1_Lb1EEEEET_S4_T0_, symObjAddr: 0x24E0, symBinAddr: 0x100009038, symSize: 0x3C }
  - { offset: 0x1CE44, size: 0x8, addend: 0x0, symName: __ZNSt3__19make_pairB8ne180100IPjS1_EENS_4pairINS_18__unwrap_ref_decayIT_E4typeENS3_IT0_E4typeEEEOS4_OS7_, symObjAddr: 0x251C, symBinAddr: 0x100009074, symSize: 0x38 }
  - { offset: 0x1CF96, size: 0x8, addend: 0x0, symName: __ZNSt3__14copyB8ne180100IPjS1_EET0_T_S3_S2_, symObjAddr: 0x25C4, symBinAddr: 0x10000911C, symSize: 0x40 }
  - { offset: 0x1CFF0, size: 0x8, addend: 0x0, symName: __ZNSt3__16__copyB8ne180100INS_17_ClassicAlgPolicyEPjS2_S2_EENS_4pairIT0_T2_EES4_T1_S5_, symObjAddr: 0x2604, symBinAddr: 0x10000915C, symSize: 0x44 }
  - { offset: 0x1D05C, size: 0x8, addend: 0x0, symName: __ZNSt3__123__dispatch_copy_or_moveB8ne180100INS_17_ClassicAlgPolicyENS_11__copy_loopIS1_EENS_14__copy_trivialEPjS5_S5_EENS_4pairIT2_T4_EES7_T3_S8_, symObjAddr: 0x2648, symBinAddr: 0x1000091A0, symSize: 0x44 }
  - { offset: 0x1D0DA, size: 0x8, addend: 0x0, symName: __ZNSt3__121__unwrap_and_dispatchB8ne180100INS_10__overloadINS_11__copy_loopINS_17_ClassicAlgPolicyEEENS_14__copy_trivialEEEPjS7_S7_Li0EEENS_4pairIT0_T2_EES9_T1_SA_, symObjAddr: 0x268C, symBinAddr: 0x1000091E4, symSize: 0xB4 }
  - { offset: 0x1D1EA, size: 0x8, addend: 0x0, symName: __ZNSt3__114__rewrap_rangeB8ne180100IPjS1_EET_S2_T0_, symObjAddr: 0x2788, symBinAddr: 0x1000092E0, symSize: 0x2C }
  - { offset: 0x1D236, size: 0x8, addend: 0x0, symName: __ZNSt3__119__copy_trivial_implB8ne180100IjjEENS_4pairIPT_PT0_EES3_S3_S5_, symObjAddr: 0x27B4, symBinAddr: 0x10000930C, symSize: 0x80 }
  - { offset: 0x1D29E, size: 0x8, addend: 0x0, symName: __ZNSt3__119__constexpr_memmoveB8ne180100IjjLi0EEEPT_S2_PT0_NS_15__element_countE, symObjAddr: 0x2834, symBinAddr: 0x10000938C, symSize: 0x64 }
  - { offset: 0x1D30C, size: 0x8, addend: 0x0, symName: __ZNSt3__19make_pairB8ne180100IRPjS1_EENS_4pairINS_18__unwrap_ref_decayIT_E4typeENS4_IT0_E4typeEEEOS5_OS8_, symObjAddr: 0x2898, symBinAddr: 0x1000093F0, symSize: 0x38 }
  - { offset: 0x1D3AE, size: 0x8, addend: 0x0, symName: __ZNSt3__112__to_addressB8ne180100IcEEPT_S2_, symObjAddr: 0x2B14, symBinAddr: 0x100009604, symSize: 0x14 }
  - { offset: 0x1D3E3, size: 0x8, addend: 0x0, symName: __ZNSt3__118__constexpr_strlenB8ne180100EPKc, symObjAddr: 0x2CF4, symBinAddr: 0x10000974C, symSize: 0x24 }
  - { offset: 0x1D442, size: 0x8, addend: 0x0, symName: __ZNSt3__14copyB8ne180100IPKcPcEET0_T_S5_S4_, symObjAddr: 0x3454, symBinAddr: 0x100009E90, symSize: 0x40 }
  - { offset: 0x1D49C, size: 0x8, addend: 0x0, symName: __ZNSt3__16__copyB8ne180100INS_17_ClassicAlgPolicyEPKcS3_PcEENS_4pairIT0_T2_EES6_T1_S7_, symObjAddr: 0x3494, symBinAddr: 0x100009ED0, symSize: 0x44 }
  - { offset: 0x1D508, size: 0x8, addend: 0x0, symName: __ZNSt3__123__dispatch_copy_or_moveB8ne180100INS_17_ClassicAlgPolicyENS_11__copy_loopIS1_EENS_14__copy_trivialEPKcS6_PcEENS_4pairIT2_T4_EES9_T3_SA_, symObjAddr: 0x34D8, symBinAddr: 0x100009F14, symSize: 0x44 }
  - { offset: 0x1D586, size: 0x8, addend: 0x0, symName: __ZNSt3__121__unwrap_and_dispatchB8ne180100INS_10__overloadINS_11__copy_loopINS_17_ClassicAlgPolicyEEENS_14__copy_trivialEEEPKcS8_PcLi0EEENS_4pairIT0_T2_EESB_T1_SC_, symObjAddr: 0x351C, symBinAddr: 0x100009F58, symSize: 0xB4 }
  - { offset: 0x1D614, size: 0x8, addend: 0x0, symName: __ZNSt3__114__unwrap_rangeB8ne180100IPKcS2_EENS_4pairIT0_S4_EET_S6_, symObjAddr: 0x35D0, symBinAddr: 0x10000A00C, symSize: 0x60 }
  - { offset: 0x1D763, size: 0x8, addend: 0x0, symName: __ZNSt3__113__unwrap_iterB8ne180100IPcNS_18__unwrap_iter_implIS1_Lb1EEELi0EEEDTclsrT0_8__unwrapclsr3stdE7declvalIT_EEEES5_, symObjAddr: 0x3678, symBinAddr: 0x10000A0B4, symSize: 0x24 }
  - { offset: 0x1D7A7, size: 0x8, addend: 0x0, symName: __ZNSt3__19make_pairB8ne180100IPKcPcEENS_4pairINS_18__unwrap_ref_decayIT_E4typeENS5_IT0_E4typeEEEOS6_OS9_, symObjAddr: 0x369C, symBinAddr: 0x10000A0D8, symSize: 0x38 }
  - { offset: 0x1D7F6, size: 0x8, addend: 0x0, symName: __ZNSt3__114__rewrap_rangeB8ne180100IPKcS2_EET_S3_T0_, symObjAddr: 0x36D4, symBinAddr: 0x10000A110, symSize: 0x2C }
  - { offset: 0x1D842, size: 0x8, addend: 0x0, symName: __ZNSt3__113__rewrap_iterB8ne180100IPcS1_NS_18__unwrap_iter_implIS1_Lb1EEEEET_S4_T0_, symObjAddr: 0x3700, symBinAddr: 0x10000A13C, symSize: 0x3C }
  - { offset: 0x1D897, size: 0x8, addend: 0x0, symName: __ZNSt3__19make_pairB8ne180100IPKcS2_EENS_4pairINS_18__unwrap_ref_decayIT_E4typeENS4_IT0_E4typeEEEOS5_OS8_, symObjAddr: 0x373C, symBinAddr: 0x10000A178, symSize: 0x38 }
  - { offset: 0x1D8E6, size: 0x8, addend: 0x0, symName: __ZNSt3__113__unwrap_iterB8ne180100IPKcNS_18__unwrap_iter_implIS2_Lb1EEELi0EEEDTclsrT0_8__unwrapclsr3stdE7declvalIT_EEEES6_, symObjAddr: 0x3774, symBinAddr: 0x10000A1B0, symSize: 0x24 }
  - { offset: 0x1DA51, size: 0x8, addend: 0x0, symName: __ZNSt3__119__copy_trivial_implB8ne180100IKccEENS_4pairIPT_PT0_EES4_S4_S6_, symObjAddr: 0x3840, symBinAddr: 0x10000A268, symSize: 0x78 }
  - { offset: 0x1DAB9, size: 0x8, addend: 0x0, symName: __ZNSt3__119__constexpr_memmoveB8ne180100IcKcLi0EEEPT_S3_PT0_NS_15__element_countE, symObjAddr: 0x38B8, symBinAddr: 0x10000A2E0, symSize: 0x64 }
  - { offset: 0x1DB27, size: 0x8, addend: 0x0, symName: __ZNSt3__19make_pairB8ne180100IRPKcPcEENS_4pairINS_18__unwrap_ref_decayIT_E4typeENS6_IT0_E4typeEEEOS7_OSA_, symObjAddr: 0x391C, symBinAddr: 0x10000A344, symSize: 0x38 }
  - { offset: 0x1DBC9, size: 0x8, addend: 0x0, symName: __ZNSt3__113__rewrap_iterB8ne180100IPKcS2_NS_18__unwrap_iter_implIS2_Lb1EEEEET_S5_T0_, symObjAddr: 0x3A58, symBinAddr: 0x10000A480, symSize: 0x3C }
  - { offset: 0x1DC1E, size: 0x8, addend: 0x0, symName: __ZNSt3__16fill_nB8ne180100IPcmcEET_S2_T0_RKT1_, symObjAddr: 0x3BDC, symBinAddr: 0x10000A54C, symSize: 0x44 }
  - { offset: 0x1DC81, size: 0x8, addend: 0x0, symName: __ZNSt3__18__fill_nB8ne180100IPcmcEET_S2_T0_RKT1_, symObjAddr: 0x3C20, symBinAddr: 0x10000A590, symSize: 0x64 }
  - { offset: 0x1DCE4, size: 0x8, addend: 0x0, symName: __ZNSt3__112__to_addressB8ne180100IN8RowIndex5EntryEEEPT_S4_, symObjAddr: 0x3F04, symBinAddr: 0x10000A860, symSize: 0x14 }
  - { offset: 0x1DD19, size: 0x8, addend: 0x0, symName: __ZNSt3__142__uninitialized_allocator_move_if_noexceptB8ne180100INS_9allocatorIjEENS_16reverse_iteratorIPjEES5_jvEET1_RT_T0_S9_S6_, symObjAddr: 0x483C, symBinAddr: 0x10000B008, symSize: 0x78 }
  - { offset: 0x1DD96, size: 0x8, addend: 0x0, symName: __ZNSt3__14swapB8ne180100IPjEENS_9enable_ifIXaasr21is_move_constructibleIT_EE5valuesr18is_move_assignableIS3_EE5valueEvE4typeERS3_S6_, symObjAddr: 0x4900, symBinAddr: 0x10000B0CC, symSize: 0x3C }
  - { offset: 0x1DDE7, size: 0x8, addend: 0x0, symName: __ZNSt3__14moveB8ne180100INS_16reverse_iteratorIPjEES3_EET0_T_S5_S4_, symObjAddr: 0x493C, symBinAddr: 0x10000B108, symSize: 0x78 }
  - { offset: 0x1DE41, size: 0x8, addend: 0x0, symName: __ZNSt3__16__moveB8ne180100INS_17_ClassicAlgPolicyENS_16reverse_iteratorIPjEES4_S4_EENS_4pairIT0_T2_EES6_T1_S7_, symObjAddr: 0x49B4, symBinAddr: 0x10000B180, symSize: 0x64 }
  - { offset: 0x1DEAD, size: 0x8, addend: 0x0, symName: __ZNSt3__123__dispatch_copy_or_moveB8ne180100INS_17_ClassicAlgPolicyENS_11__move_loopIS1_EENS_14__move_trivialENS_16reverse_iteratorIPjEES7_S7_EENS_4pairIT2_T4_EES9_T3_SA_, symObjAddr: 0x4A18, symBinAddr: 0x10000B1E4, symSize: 0x64 }
  - { offset: 0x1DF2B, size: 0x8, addend: 0x0, symName: __ZNSt3__121__unwrap_and_dispatchB8ne180100INS_10__overloadINS_11__move_loopINS_17_ClassicAlgPolicyEEENS_14__move_trivialEEENS_16reverse_iteratorIPjEES9_S9_Li0EEENS_4pairIT0_T2_EESB_T1_SC_, symObjAddr: 0x4A7C, symBinAddr: 0x10000B248, symSize: 0x12C }
  - { offset: 0x1DFBB, size: 0x8, addend: 0x0, symName: __ZNSt3__114__unwrap_rangeB8ne180100INS_16reverse_iteratorIPjEES3_EENS_4pairIT0_S5_EET_S7_, symObjAddr: 0x4BA8, symBinAddr: 0x10000B374, symSize: 0x84 }
  - { offset: 0x1E12D, size: 0x8, addend: 0x0, symName: __ZNSt3__113__unwrap_iterB8ne180100INS_16reverse_iteratorIPjEENS_18__unwrap_iter_implIS3_Lb0EEELi0EEEDTclsrT0_8__unwrapclsr3stdE7declvalIT_EEEES7_, symObjAddr: 0x4CCC, symBinAddr: 0x10000B498, symSize: 0x44 }
  - { offset: 0x1E171, size: 0x8, addend: 0x0, symName: __ZNSt3__19make_pairB8ne180100INS_16reverse_iteratorIPjEES3_EENS_4pairINS_18__unwrap_ref_decayIT_E4typeENS5_IT0_E4typeEEEOS6_OS9_, symObjAddr: 0x4D10, symBinAddr: 0x10000B4DC, symSize: 0x38 }
  - { offset: 0x1E1C0, size: 0x8, addend: 0x0, symName: __ZNSt3__114__rewrap_rangeB8ne180100INS_16reverse_iteratorIPjEES3_EET_S4_T0_, symObjAddr: 0x4D48, symBinAddr: 0x10000B514, symSize: 0x5C }
  - { offset: 0x1E20C, size: 0x8, addend: 0x0, symName: __ZNSt3__113__rewrap_iterB8ne180100INS_16reverse_iteratorIPjEES3_NS_18__unwrap_iter_implIS3_Lb0EEEEET_S6_T0_, symObjAddr: 0x4DA4, symBinAddr: 0x10000B570, symSize: 0x74 }
  - { offset: 0x1E261, size: 0x8, addend: 0x0, symName: __ZNSt3__1neB8ne180100IPjS1_EEbRKNS_16reverse_iteratorIT_EERKNS2_IT0_EE, symObjAddr: 0x4E18, symBinAddr: 0x10000B5E4, symSize: 0x48 }
  - { offset: 0x1E357, size: 0x8, addend: 0x0, symName: __ZNSt3__119__allocate_at_leastB8ne180100INS_9allocatorIN8RowIndex5EntryEEEEENS_19__allocation_resultINS_16allocator_traitsIT_E7pointerEEERS7_m, symObjAddr: 0x5A38, symBinAddr: 0x10000C204, symSize: 0x40 }
  - { offset: 0x1E39A, size: 0x8, addend: 0x0, symName: __ZNSt3__142__uninitialized_allocator_move_if_noexceptB8ne180100INS_9allocatorIN8RowIndex5EntryEEENS_16reverse_iteratorIPS3_EES7_S7_EET2_RT_T0_T1_S8_, symObjAddr: 0x5BFC, symBinAddr: 0x10000C3C8, symSize: 0x12C }
  - { offset: 0x1E43A, size: 0x8, addend: 0x0, symName: __ZNSt3__14swapB8ne180100IPN8RowIndex5EntryEEENS_9enable_ifIXaasr21is_move_constructibleIT_EE5valuesr18is_move_assignableIS5_EE5valueEvE4typeERS5_S8_, symObjAddr: 0x5D74, symBinAddr: 0x10000C540, symSize: 0x3C }
  - { offset: 0x1E48B, size: 0x8, addend: 0x0, symName: __ZNSt3__122__make_exception_guardB8ne180100INS_29_AllocatorDestroyRangeReverseINS_9allocatorIN8RowIndex5EntryEEENS_16reverse_iteratorIPS4_EEEEEENS_28__exception_guard_exceptionsIT_EESB_, symObjAddr: 0x5DC4, symBinAddr: 0x10000C590, symSize: 0x4C }
  - { offset: 0x1E4C1, size: 0x8, addend: 0x0, symName: __ZNSt3__1neB8ne180100IPN8RowIndex5EntryES3_EEbRKNS_16reverse_iteratorIT_EERKNS4_IT0_EE, symObjAddr: 0x5E54, symBinAddr: 0x10000C620, symSize: 0x48 }
  - { offset: 0x1E50D, size: 0x8, addend: 0x0, symName: __ZNSt3__112__to_addressB8ne180100INS_16reverse_iteratorIPN8RowIndex5EntryEEEvEEu7__decayIDTclsr19__to_address_helperIT_EE6__callclsr3stdE7declvalIRKS6_EEEEES8_, symObjAddr: 0x5ED0, symBinAddr: 0x10000C69C, symSize: 0x24 }
  - { offset: 0x1E56D, size: 0x8, addend: 0x0, symName: __ZNSt3__119__allocator_destroyB8ne180100INS_9allocatorIN8RowIndex5EntryEEENS_16reverse_iteratorINS5_IPS3_EEEES8_EEvRT_T0_T1_, symObjAddr: 0x6324, symBinAddr: 0x10000CAF0, symSize: 0x70 }
  - { offset: 0x1E5D2, size: 0x8, addend: 0x0, symName: __ZNSt3__1neB8ne180100INS_16reverse_iteratorIPN8RowIndex5EntryEEES5_EEbRKNS1_IT_EERKNS1_IT0_EE, symObjAddr: 0x63D0, symBinAddr: 0x10000CB9C, symSize: 0x60 }
  - { offset: 0x1E61E, size: 0x8, addend: 0x0, symName: __ZNSt3__112__to_addressB8ne180100INS_16reverse_iteratorINS1_IPN8RowIndex5EntryEEEEEvEEu7__decayIDTclsr19__to_address_helperIT_EE6__callclsr3stdE7declvalIRKS7_EEEEES9_, symObjAddr: 0x6430, symBinAddr: 0x10000CBFC, symSize: 0x24 }
  - { offset: 0x1E67E, size: 0x8, addend: 0x0, symName: __ZNSt3__18distanceB8ne180100IPjEENS_15iterator_traitsIT_E15difference_typeES3_S3_, symObjAddr: 0x6A0C, symBinAddr: 0x10000D1D8, symSize: 0x2C }
  - { offset: 0x1E6C1, size: 0x8, addend: 0x0, symName: __ZNSt3__14nextB8ne180100IPjLi0EEET_S2_NS_15iterator_traitsIS2_E15difference_typeE, symObjAddr: 0x6A38, symBinAddr: 0x10000D204, symSize: 0x34 }
  - { offset: 0x1E70A, size: 0x8, addend: 0x0, symName: __ZNSt3__121__convert_to_integralB8ne180100El, symObjAddr: 0x6B38, symBinAddr: 0x10000D304, symSize: 0x14 }
  - { offset: 0x1E737, size: 0x8, addend: 0x0, symName: __ZNSt3__19__advanceB8ne180100IPjEEvRT_NS_15iterator_traitsIS2_E15difference_typeENS_26random_access_iterator_tagE, symObjAddr: 0x6B4C, symBinAddr: 0x10000D318, symSize: 0x28 }
  - { offset: 0x1E780, size: 0x8, addend: 0x0, symName: __ZNSt3__110__distanceB8ne180100IPjEENS_15iterator_traitsIT_E15difference_typeES3_S3_NS_26random_access_iterator_tagE, symObjAddr: 0x6BB8, symBinAddr: 0x10000D384, symSize: 0x28 }
  - { offset: 0x1E7CD, size: 0x8, addend: 0x0, symName: __ZNSt3__125__throw_bad_function_callB8ne180100Ev, symObjAddr: 0x6C40, symBinAddr: 0x10000D40C, symSize: 0x38 }
  - { offset: 0x1FD2B, size: 0x8, addend: 0x0, symName: __ZNSt3__16vectorIjNS_9allocatorIjEEE26__swap_out_circular_bufferERNS_14__split_bufferIjRS2_EE, symObjAddr: 0x4340, symBinAddr: 0x10000ABD4, symSize: 0x110 }
  - { offset: 0x1FD80, size: 0x8, addend: 0x0, symName: __ZNSt3__16vectorIN8RowIndex5EntryENS_9allocatorIS2_EEE26__swap_out_circular_bufferERNS_14__split_bufferIS2_RS4_EE, symObjAddr: 0x5638, symBinAddr: 0x10000BE04, symSize: 0x110 }
  - { offset: 0x1FE17, size: 0x8, addend: 0x0, symName: __ZN8RowIndexC2ERKNSt3__112basic_stringIcNS0_11char_traitsIcEENS0_9allocatorIcEEEEt, symObjAddr: 0x0, symBinAddr: 0x1000078D0, symSize: 0x60 }
  - { offset: 0x1FE5C, size: 0x8, addend: 0x0, symName: __ZNSt3__16vectorIN8RowIndex5EntryENS_9allocatorIS2_EEEC1B8ne180100Ev, symObjAddr: 0x17C, symBinAddr: 0x100007A4C, symSize: 0x2C }
  - { offset: 0x1FE85, size: 0x8, addend: 0x0, symName: __ZN8RowIndexC1ERKNSt3__112basic_stringIcNS0_11char_traitsIcEENS0_9allocatorIcEEEEt, symObjAddr: 0x1A8, symBinAddr: 0x100007A78, symSize: 0x3C }
  - { offset: 0x1FECB, size: 0x8, addend: 0x0, symName: __ZN8RowIndex12openOrCreateEv, symObjAddr: 0x1E4, symBinAddr: 0x100007AB4, symSize: 0xBC }
  - { offset: 0x1FEFE, size: 0x8, addend: 0x0, symName: __ZN8RowIndex20ensureHeaderOnCreateEv, symObjAddr: 0x2C4, symBinAddr: 0x100007B70, symSize: 0x134 }
  - { offset: 0x1FF4E, size: 0x8, addend: 0x0, symName: __ZN8RowIndex7loadAllEv, symObjAddr: 0x3F8, symBinAddr: 0x100007CA4, symSize: 0x400 }
  - { offset: 0x1FFEC, size: 0x8, addend: 0x0, symName: __ZNSt3__16vectorIN8RowIndex5EntryENS_9allocatorIS2_EEE5clearB8ne180100Ev, symObjAddr: 0x7F8, symBinAddr: 0x1000080A4, symSize: 0x44 }
  - { offset: 0x20024, size: 0x8, addend: 0x0, symName: __ZN8RowIndex5EntryC1Ev, symObjAddr: 0x83C, symBinAddr: 0x1000080E8, symSize: 0x2C }
  - { offset: 0x2004E, size: 0x8, addend: 0x0, symName: __ZNSt3__16vectorIjNS_9allocatorIjEEE6resizeEm, symObjAddr: 0x868, symBinAddr: 0x100008114, symSize: 0x94 }
  - { offset: 0x20092, size: 0x8, addend: 0x0, symName: __ZNSt3__16vectorIN8RowIndex5EntryENS_9allocatorIS2_EEE9push_backB8ne180100ERKS2_, symObjAddr: 0x924, symBinAddr: 0x1000081A8, symSize: 0x90 }
  - { offset: 0x200D6, size: 0x8, addend: 0x0, symName: __ZN8RowIndex5EntryD1Ev, symObjAddr: 0x9B4, symBinAddr: 0x100008238, symSize: 0x2C }
  - { offset: 0x20100, size: 0x8, addend: 0x0, symName: __ZN8RowIndex9appendRowERKNSt3__16vectorIjNS0_9allocatorIjEEEE, symObjAddr: 0x9E0, symBinAddr: 0x100008264, symSize: 0x104 }
  - { offset: 0x20150, size: 0x8, addend: 0x0, symName: __ZNKSt3__16vectorIjNS_9allocatorIjEEE4sizeB8ne180100Ev, symObjAddr: 0xAE4, symBinAddr: 0x100008368, symSize: 0x28 }
  - { offset: 0x20174, size: 0x8, addend: 0x0, symName: __ZNSt3__16vectorIjNS_9allocatorIjEEEaSB8ne180100ERKS3_, symObjAddr: 0xB0C, symBinAddr: 0x100008390, symSize: 0x68 }
  - { offset: 0x201A9, size: 0x8, addend: 0x0, symName: __ZNKSt3__16vectorIN8RowIndex5EntryENS_9allocatorIS2_EEE4sizeB8ne180100Ev, symObjAddr: 0xB74, symBinAddr: 0x1000083F8, symSize: 0x28 }
  - { offset: 0x201CD, size: 0x8, addend: 0x0, symName: __ZN8RowIndex10writeEntryEjRKNS_5EntryE, symObjAddr: 0xB9C, symBinAddr: 0x100008420, symSize: 0x198 }
  - { offset: 0x20247, size: 0x8, addend: 0x0, symName: __ZNK8RowIndex11forEachLiveERKNSt3__18functionIFvjRKNS0_6vectorIjNS0_9allocatorIjEEEEEEE, symObjAddr: 0xD34, symBinAddr: 0x1000085B8, symSize: 0xB4 }
  - { offset: 0x202B4, size: 0x8, addend: 0x0, symName: __ZNKSt3__16vectorIN8RowIndex5EntryENS_9allocatorIS2_EEEixB8ne180100Em, symObjAddr: 0xDE8, symBinAddr: 0x10000866C, symSize: 0x24 }
  - { offset: 0x202E9, size: 0x8, addend: 0x0, symName: __ZNKSt3__18functionIFvjRKNS_6vectorIjNS_9allocatorIjEEEEEEclEjS6_, symObjAddr: 0xE0C, symBinAddr: 0x100008690, symSize: 0x38 }
  - { offset: 0x2032D, size: 0x8, addend: 0x0, symName: __ZN8RowIndex11markDeletedEj, symObjAddr: 0xE44, symBinAddr: 0x1000086C8, symSize: 0xD0 }
  - { offset: 0x20362, size: 0x8, addend: 0x0, symName: __ZNSt3__16vectorIN8RowIndex5EntryENS_9allocatorIS2_EEEixB8ne180100Em, symObjAddr: 0xF14, symBinAddr: 0x100008798, symSize: 0x24 }
  - { offset: 0x20397, size: 0x8, addend: 0x0, symName: __ZNK8RowIndex5fetchEj, symObjAddr: 0xF60, symBinAddr: 0x1000087BC, symSize: 0xBC }
  - { offset: 0x203CB, size: 0x8, addend: 0x0, symName: __ZNSt3__18optionalINS_6vectorIjNS_9allocatorIjEEEEEC1B8ne180100ENS_9nullopt_tE, symObjAddr: 0x101C, symBinAddr: 0x100008878, symSize: 0x2C }
  - { offset: 0x203FE, size: 0x8, addend: 0x0, symName: __ZNSt3__18optionalINS_6vectorIjNS_9allocatorIjEEEEEC1B8ne180100IRKS4_Li0EEEOT_, symObjAddr: 0x1048, symBinAddr: 0x1000088A4, symSize: 0x34 }
  - { offset: 0x20444, size: 0x8, addend: 0x0, symName: __ZN8RowIndex5EntryC2Ev, symObjAddr: 0x107C, symBinAddr: 0x1000088D8, symSize: 0x30 }
  - { offset: 0x2046E, size: 0x8, addend: 0x0, symName: __ZNSt3__16vectorIjNS_9allocatorIjEEEC1B8ne180100Ev, symObjAddr: 0x10AC, symBinAddr: 0x100008908, symSize: 0x2C }
  - { offset: 0x20496, size: 0x8, addend: 0x0, symName: __ZNSt3__16vectorIjNS_9allocatorIjEEEC2B8ne180100Ev, symObjAddr: 0x10D8, symBinAddr: 0x100008934, symSize: 0x4C }
  - { offset: 0x204C8, size: 0x8, addend: 0x0, symName: __ZN8RowIndex5EntryD2Ev, symObjAddr: 0x1238, symBinAddr: 0x100008980, symSize: 0x30 }
  - { offset: 0x204F2, size: 0x8, addend: 0x0, symName: __ZNSt3__18optionalINS_6vectorIjNS_9allocatorIjEEEEEC2B8ne180100ENS_9nullopt_tE, symObjAddr: 0x1770, symBinAddr: 0x1000089B0, symSize: 0x2C }
  - { offset: 0x20525, size: 0x8, addend: 0x0, symName: __ZNSt3__127__optional_move_assign_baseINS_6vectorIjNS_9allocatorIjEEEELb0EEC2B8ne180100Ev, symObjAddr: 0x179C, symBinAddr: 0x1000089DC, symSize: 0x2C }
  - { offset: 0x2054D, size: 0x8, addend: 0x0, symName: __ZNSt3__127__optional_copy_assign_baseINS_6vectorIjNS_9allocatorIjEEEELb0EEC2B8ne180100Ev, symObjAddr: 0x17C8, symBinAddr: 0x100008A08, symSize: 0x2C }
  - { offset: 0x20575, size: 0x8, addend: 0x0, symName: __ZNSt3__120__optional_move_baseINS_6vectorIjNS_9allocatorIjEEEELb0EEC2B8ne180100Ev, symObjAddr: 0x17F4, symBinAddr: 0x100008A34, symSize: 0x2C }
  - { offset: 0x2059D, size: 0x8, addend: 0x0, symName: __ZNSt3__120__optional_copy_baseINS_6vectorIjNS_9allocatorIjEEEELb0EEC2B8ne180100Ev, symObjAddr: 0x1820, symBinAddr: 0x100008A60, symSize: 0x2C }
  - { offset: 0x205C6, size: 0x8, addend: 0x0, symName: __ZNSt3__123__optional_storage_baseINS_6vectorIjNS_9allocatorIjEEEELb0EEC2Ev, symObjAddr: 0x184C, symBinAddr: 0x100008A8C, symSize: 0x2C }
  - { offset: 0x205F1, size: 0x8, addend: 0x0, symName: __ZNSt3__124__optional_destruct_baseINS_6vectorIjNS_9allocatorIjEEEELb0EEC2B8ne180100Ev, symObjAddr: 0x1878, symBinAddr: 0x100008AB8, symSize: 0x1C }
  - { offset: 0x20619, size: 0x8, addend: 0x0, symName: __ZNSt3__18optionalINS_6vectorIjNS_9allocatorIjEEEEEC2B8ne180100IRKS4_Li0EEEOT_, symObjAddr: 0x1894, symBinAddr: 0x100008AD4, symSize: 0x34 }
  - { offset: 0x20660, size: 0x8, addend: 0x0, symName: __ZNSt3__127__optional_move_assign_baseINS_6vectorIjNS_9allocatorIjEEEELb0EECI2NS_24__optional_destruct_baseIS4_Lb0EEEIJRKS4_EEENS_10in_place_tEDpOT_, symObjAddr: 0x18C8, symBinAddr: 0x100008B08, symSize: 0x34 }
  - { offset: 0x2069E, size: 0x8, addend: 0x0, symName: __ZNSt3__127__optional_copy_assign_baseINS_6vectorIjNS_9allocatorIjEEEELb0EECI2NS_24__optional_destruct_baseIS4_Lb0EEEIJRKS4_EEENS_10in_place_tEDpOT_, symObjAddr: 0x18FC, symBinAddr: 0x100008B3C, symSize: 0x34 }
  - { offset: 0x206DC, size: 0x8, addend: 0x0, symName: __ZNSt3__120__optional_move_baseINS_6vectorIjNS_9allocatorIjEEEELb0EECI2NS_24__optional_destruct_baseIS4_Lb0EEEIJRKS4_EEENS_10in_place_tEDpOT_, symObjAddr: 0x1930, symBinAddr: 0x100008B70, symSize: 0x34 }
  - { offset: 0x2071A, size: 0x8, addend: 0x0, symName: __ZNSt3__120__optional_copy_baseINS_6vectorIjNS_9allocatorIjEEEELb0EECI2NS_24__optional_destruct_baseIS4_Lb0EEEIJRKS4_EEENS_10in_place_tEDpOT_, symObjAddr: 0x1964, symBinAddr: 0x100008BA4, symSize: 0x34 }
  - { offset: 0x20758, size: 0x8, addend: 0x0, symName: __ZNSt3__123__optional_storage_baseINS_6vectorIjNS_9allocatorIjEEEELb0EECI2NS_24__optional_destruct_baseIS4_Lb0EEEIJRKS4_EEENS_10in_place_tEDpOT_, symObjAddr: 0x1998, symBinAddr: 0x100008BD8, symSize: 0x34 }
  - { offset: 0x20795, size: 0x8, addend: 0x0, symName: __ZNSt3__124__optional_destruct_baseINS_6vectorIjNS_9allocatorIjEEEELb0EEC2B8ne180100IJRKS4_EEENS_10in_place_tEDpOT_, symObjAddr: 0x19CC, symBinAddr: 0x100008C0C, symSize: 0x3C }
  - { offset: 0x207E2, size: 0x8, addend: 0x0, symName: __ZNSt3__16vectorIjNS_9allocatorIjEEEC1ERKS3_, symObjAddr: 0x1A08, symBinAddr: 0x100008C48, symSize: 0x34 }
  - { offset: 0x2081B, size: 0x8, addend: 0x0, symName: __ZNSt3__16vectorIjNS_9allocatorIjEEEC2ERKS3_, symObjAddr: 0x1A3C, symBinAddr: 0x100008C7C, symSize: 0x94 }
  - { offset: 0x2085E, size: 0x8, addend: 0x0, symName: __ZNSt3__116allocator_traitsINS_9allocatorIjEEE37select_on_container_copy_constructionB8ne180100IS2_vvEES2_RKS2_, symObjAddr: 0x1AD0, symBinAddr: 0x100008D10, symSize: 0x10 }
  - { offset: 0x20891, size: 0x8, addend: 0x0, symName: __ZNSt3__117__compressed_pairIPjNS_9allocatorIjEEEC1B8ne180100IDnS3_EEOT_OT0_, symObjAddr: 0x1B08, symBinAddr: 0x100008D20, symSize: 0x3C }
  - { offset: 0x208E7, size: 0x8, addend: 0x0, symName: __ZNSt3__16vectorIjNS_9allocatorIjEEE16__init_with_sizeB8ne180100IPjS5_EEvT_T0_m, symObjAddr: 0x1B44, symBinAddr: 0x100008D5C, symSize: 0xB8 }
  - { offset: 0x20959, size: 0x8, addend: 0x0, symName: __ZNSt3__117__compressed_pairIPjNS_9allocatorIjEEEC2B8ne180100IDnS3_EEOT_OT0_, symObjAddr: 0x1C34, symBinAddr: 0x100008E14, symSize: 0x44 }
  - { offset: 0x209AF, size: 0x8, addend: 0x0, symName: __ZNSt3__122__compressed_pair_elemINS_9allocatorIjEELi1ELb1EEC2B8ne180100IS2_vEEOT_, symObjAddr: 0x1C78, symBinAddr: 0x100008E58, symSize: 0x18 }
  - { offset: 0x209EF, size: 0x8, addend: 0x0, symName: __ZNSt3__16vectorIjNS_9allocatorIjEEE18__construct_at_endIPjS5_EEvT_T0_m, symObjAddr: 0x1D7C, symBinAddr: 0x100008E70, symSize: 0x8C }
  - { offset: 0x20A9A, size: 0x8, addend: 0x0, symName: __ZNSt3__14pairIPjS1_EC1B8ne180100IS1_S1_Li0EEEOT_OT0_, symObjAddr: 0x2554, symBinAddr: 0x1000090AC, symSize: 0x3C }
  - { offset: 0x20AF6, size: 0x8, addend: 0x0, symName: __ZNSt3__14pairIPjS1_EC2B8ne180100IS1_S1_Li0EEEOT_OT0_, symObjAddr: 0x2590, symBinAddr: 0x1000090E8, symSize: 0x34 }
  - { offset: 0x20B5C, size: 0x8, addend: 0x0, symName: __ZNKSt3__114__copy_trivialclB8ne180100IjjLi0EEENS_4pairIPT_PT0_EES4_S4_S6_, symObjAddr: 0x2740, symBinAddr: 0x100009298, symSize: 0x48 }
  - { offset: 0x20BC2, size: 0x8, addend: 0x0, symName: __ZNSt3__14pairIPjS1_EC1B8ne180100IRS1_S1_Li0EEEOT_OT0_, symObjAddr: 0x28D0, symBinAddr: 0x100009428, symSize: 0x3C }
  - { offset: 0x20C1E, size: 0x8, addend: 0x0, symName: __ZNSt3__14pairIPjS1_EC2B8ne180100IRS1_S1_Li0EEEOT_OT0_, symObjAddr: 0x290C, symBinAddr: 0x100009464, symSize: 0x34 }
  - { offset: 0x20C7A, size: 0x8, addend: 0x0, symName: __ZNSt3__118__unwrap_iter_implIPjLb1EE8__unwrapB8ne180100ES1_, symObjAddr: 0x2940, symBinAddr: 0x100009498, symSize: 0x24 }
  - { offset: 0x20C9C, size: 0x8, addend: 0x0, symName: __ZNSt3__118__unwrap_iter_implIPjLb1EE8__rewrapB8ne180100ES1_S1_, symObjAddr: 0x2964, symBinAddr: 0x1000094BC, symSize: 0x50 }
  - { offset: 0x20CCC, size: 0x8, addend: 0x0, symName: __ZNKSt3__112basic_stringIcNS_11char_traitsIcEENS_9allocatorIcEEE4sizeB8ne180100Ev, symObjAddr: 0x2A1C, symBinAddr: 0x10000950C, symSize: 0x54 }
  - { offset: 0x20CF0, size: 0x8, addend: 0x0, symName: __ZNSt3__111char_traitsIcE6lengthB8ne180100EPKc, symObjAddr: 0x2A70, symBinAddr: 0x100009560, symSize: 0x34 }
  - { offset: 0x20D1C, size: 0x8, addend: 0x0, symName: __ZNSt3__116allocator_traitsINS_9allocatorIcEEE37select_on_container_copy_constructionB8ne180100IS2_vvEES2_RKS2_, symObjAddr: 0x2AA4, symBinAddr: 0x100009594, symSize: 0x10 }
  - { offset: 0x20D4A, size: 0x8, addend: 0x0, symName: __ZNKSt3__112basic_stringIcNS_11char_traitsIcEENS_9allocatorIcEEE13get_allocatorB8ne180100Ev, symObjAddr: 0x2AB4, symBinAddr: 0x1000095A4, symSize: 0x24 }
  - { offset: 0x20D6E, size: 0x8, addend: 0x0, symName: __ZNSt3__112basic_stringIcNS_11char_traitsIcEENS_9allocatorIcEEEC1B8ne180100ENS_24__uninitialized_size_tagEmRKS4_, symObjAddr: 0x2AD8, symBinAddr: 0x1000095C8, symSize: 0x3C }
  - { offset: 0x20DBF, size: 0x8, addend: 0x0, symName: __ZNSt3__112basic_stringIcNS_11char_traitsIcEENS_9allocatorIcEEE13__get_pointerB8ne180100Ev, symObjAddr: 0x2B28, symBinAddr: 0x100009618, symSize: 0x54 }
  - { offset: 0x20DE3, size: 0x8, addend: 0x0, symName: __ZNSt3__111char_traitsIcE4copyB8ne180100EPcPKcm, symObjAddr: 0x2B7C, symBinAddr: 0x10000966C, symSize: 0x40 }
  - { offset: 0x20E21, size: 0x8, addend: 0x0, symName: __ZNSt3__111char_traitsIcE6assignB8ne180100EPcmc, symObjAddr: 0x2BE4, symBinAddr: 0x1000096AC, symSize: 0x44 }
  - { offset: 0x20E5F, size: 0x8, addend: 0x0, symName: __ZNKSt3__112basic_stringIcNS_11char_traitsIcEENS_9allocatorIcEEE15__get_long_sizeB8ne180100Ev, symObjAddr: 0x2C60, symBinAddr: 0x1000096F0, symSize: 0x28 }
  - { offset: 0x20E83, size: 0x8, addend: 0x0, symName: __ZNKSt3__112basic_stringIcNS_11char_traitsIcEENS_9allocatorIcEEE16__get_short_sizeB8ne180100Ev, symObjAddr: 0x2C88, symBinAddr: 0x100009718, symSize: 0x34 }
  - { offset: 0x20EA7, size: 0x8, addend: 0x0, symName: __ZNKSt3__112basic_stringIcNS_11char_traitsIcEENS_9allocatorIcEEE7__allocB8ne180100Ev, symObjAddr: 0x2D18, symBinAddr: 0x100009770, symSize: 0x24 }
  - { offset: 0x20ECB, size: 0x8, addend: 0x0, symName: __ZNKSt3__117__compressed_pairINS_12basic_stringIcNS_11char_traitsIcEENS_9allocatorIcEEE5__repES5_E6secondB8ne180100Ev, symObjAddr: 0x2D3C, symBinAddr: 0x100009794, symSize: 0x24 }
  - { offset: 0x20EEF, size: 0x8, addend: 0x0, symName: __ZNKSt3__122__compressed_pair_elemINS_9allocatorIcEELi1ELb1EE5__getB8ne180100Ev, symObjAddr: 0x2D60, symBinAddr: 0x1000097B8, symSize: 0x14 }
  - { offset: 0x20F13, size: 0x8, addend: 0x0, symName: __ZNSt3__112basic_stringIcNS_11char_traitsIcEENS_9allocatorIcEEEC2B8ne180100ENS_24__uninitialized_size_tagEmRKS4_, symObjAddr: 0x2D74, symBinAddr: 0x1000097CC, symSize: 0x11C }
  - { offset: 0x20F90, size: 0x8, addend: 0x0, symName: __ZNSt3__117__compressed_pairINS_12basic_stringIcNS_11char_traitsIcEENS_9allocatorIcEEE5__repES5_EC1B8ne180100INS_18__default_init_tagERKS5_EEOT_OT0_, symObjAddr: 0x2E90, symBinAddr: 0x1000098E8, symSize: 0x3C }
  - { offset: 0x20FE6, size: 0x8, addend: 0x0, symName: __ZNKSt3__112basic_stringIcNS_11char_traitsIcEENS_9allocatorIcEEE8max_sizeB8ne180100Ev, symObjAddr: 0x2ECC, symBinAddr: 0x100009924, symSize: 0xAC }
  - { offset: 0x21036, size: 0x8, addend: 0x0, symName: __ZNKSt3__112basic_stringIcNS_11char_traitsIcEENS_9allocatorIcEEE20__throw_length_errorB8ne180100Ev, symObjAddr: 0x2F78, symBinAddr: 0x1000099D0, symSize: 0x1C }
  - { offset: 0x2105A, size: 0x8, addend: 0x0, symName: __ZNSt3__112basic_stringIcNS_11char_traitsIcEENS_9allocatorIcEEE13__fits_in_ssoB8ne180100Em, symObjAddr: 0x2F94, symBinAddr: 0x1000099EC, symSize: 0x20 }
  - { offset: 0x2107D, size: 0x8, addend: 0x0, symName: __ZNSt3__117__compressed_pairINS_12basic_stringIcNS_11char_traitsIcEENS_9allocatorIcEEE5__repES5_E5firstB8ne180100Ev, symObjAddr: 0x2FB4, symBinAddr: 0x100009A0C, symSize: 0x24 }
  - { offset: 0x210A1, size: 0x8, addend: 0x0, symName: __ZNSt3__112basic_stringIcNS_11char_traitsIcEENS_9allocatorIcEEE16__set_short_sizeB8ne180100Em, symObjAddr: 0x2FD8, symBinAddr: 0x100009A30, symSize: 0x78 }
  - { offset: 0x210D4, size: 0x8, addend: 0x0, symName: __ZNSt3__112basic_stringIcNS_11char_traitsIcEENS_9allocatorIcEEE11__recommendB8ne180100Em, symObjAddr: 0x3050, symBinAddr: 0x100009AA8, symSize: 0x84 }
  - { offset: 0x21106, size: 0x8, addend: 0x0, symName: __ZNSt3__116allocator_traitsINS_9allocatorIcEEE8allocateB8ne180100ERS2_m, symObjAddr: 0x30D4, symBinAddr: 0x100009B2C, symSize: 0x2C }
  - { offset: 0x21138, size: 0x8, addend: 0x0, symName: __ZNSt3__112basic_stringIcNS_11char_traitsIcEENS_9allocatorIcEEE7__allocB8ne180100Ev, symObjAddr: 0x3100, symBinAddr: 0x100009B58, symSize: 0x24 }
  - { offset: 0x2115C, size: 0x8, addend: 0x0, symName: __ZNSt3__112basic_stringIcNS_11char_traitsIcEENS_9allocatorIcEEE16__begin_lifetimeB8ne180100EPcm, symObjAddr: 0x3124, symBinAddr: 0x100009B7C, symSize: 0x14 }
  - { offset: 0x2118E, size: 0x8, addend: 0x0, symName: __ZNSt3__112basic_stringIcNS_11char_traitsIcEENS_9allocatorIcEEE14__set_long_capB8ne180100Em, symObjAddr: 0x3138, symBinAddr: 0x100009B90, symSize: 0x70 }
  - { offset: 0x211C1, size: 0x8, addend: 0x0, symName: __ZNSt3__112basic_stringIcNS_11char_traitsIcEENS_9allocatorIcEEE18__set_long_pointerB8ne180100EPc, symObjAddr: 0x31A8, symBinAddr: 0x100009C00, symSize: 0x38 }
  - { offset: 0x211F4, size: 0x8, addend: 0x0, symName: __ZNSt3__112basic_stringIcNS_11char_traitsIcEENS_9allocatorIcEEE15__set_long_sizeB8ne180100Em, symObjAddr: 0x31E0, symBinAddr: 0x100009C38, symSize: 0x38 }
  - { offset: 0x21227, size: 0x8, addend: 0x0, symName: __ZNKSt3__112basic_stringIcNS_11char_traitsIcEENS_9allocatorIcEEE14__annotate_newB8ne180100Em, symObjAddr: 0x3218, symBinAddr: 0x100009C70, symSize: 0x14 }
  - { offset: 0x2125A, size: 0x8, addend: 0x0, symName: __ZNSt3__117__compressed_pairINS_12basic_stringIcNS_11char_traitsIcEENS_9allocatorIcEEE5__repES5_EC2B8ne180100INS_18__default_init_tagERKS5_EEOT_OT0_, symObjAddr: 0x322C, symBinAddr: 0x100009C84, symSize: 0x40 }
  - { offset: 0x212B0, size: 0x8, addend: 0x0, symName: __ZNSt3__122__compressed_pair_elemINS_12basic_stringIcNS_11char_traitsIcEENS_9allocatorIcEEE5__repELi0ELb0EEC2B8ne180100ENS_18__default_init_tagE, symObjAddr: 0x326C, symBinAddr: 0x100009CC4, symSize: 0x14 }
  - { offset: 0x212E2, size: 0x8, addend: 0x0, symName: __ZNSt3__122__compressed_pair_elemINS_9allocatorIcEELi1ELb1EEC2B8ne180100IRKS2_vEEOT_, symObjAddr: 0x3280, symBinAddr: 0x100009CD8, symSize: 0x18 }
  - { offset: 0x21322, size: 0x8, addend: 0x0, symName: __ZNSt3__116allocator_traitsINS_9allocatorIcEEE8max_sizeB8ne180100IS2_vEEmRKS2_, symObjAddr: 0x3298, symBinAddr: 0x100009CF0, symSize: 0x24 }
  - { offset: 0x2134F, size: 0x8, addend: 0x0, symName: __ZNKSt3__19allocatorIcE8max_sizeB8ne180100Ev, symObjAddr: 0x32D0, symBinAddr: 0x100009D14, symSize: 0x14 }
  - { offset: 0x21373, size: 0x8, addend: 0x0, symName: __ZNSt3__122__compressed_pair_elemINS_12basic_stringIcNS_11char_traitsIcEENS_9allocatorIcEEE5__repELi0ELb0EE5__getB8ne180100Ev, symObjAddr: 0x32EC, symBinAddr: 0x100009D28, symSize: 0x14 }
  - { offset: 0x21397, size: 0x8, addend: 0x0, symName: __ZNSt3__112basic_stringIcNS_11char_traitsIcEENS_9allocatorIcEEE10__align_itB8ne180100ILm8EEEmm, symObjAddr: 0x3300, symBinAddr: 0x100009D3C, symSize: 0x1C }
  - { offset: 0x213C4, size: 0x8, addend: 0x0, symName: __ZNSt3__19allocatorIcE8allocateB8ne180100Em, symObjAddr: 0x331C, symBinAddr: 0x100009D58, symSize: 0x58 }
  - { offset: 0x213F6, size: 0x8, addend: 0x0, symName: __ZNSt3__117__compressed_pairINS_12basic_stringIcNS_11char_traitsIcEENS_9allocatorIcEEE5__repES5_E6secondB8ne180100Ev, symObjAddr: 0x3374, symBinAddr: 0x100009DB0, symSize: 0x24 }
  - { offset: 0x2141A, size: 0x8, addend: 0x0, symName: __ZNSt3__122__compressed_pair_elemINS_9allocatorIcEELi1ELb1EE5__getB8ne180100Ev, symObjAddr: 0x3398, symBinAddr: 0x100009DD4, symSize: 0x14 }
  - { offset: 0x2143E, size: 0x8, addend: 0x0, symName: __ZNSt3__112basic_stringIcNS_11char_traitsIcEENS_9allocatorIcEEE18__get_long_pointerB8ne180100Ev, symObjAddr: 0x33AC, symBinAddr: 0x100009DE8, symSize: 0x28 }
  - { offset: 0x21462, size: 0x8, addend: 0x0, symName: __ZNSt3__112basic_stringIcNS_11char_traitsIcEENS_9allocatorIcEEE19__get_short_pointerB8ne180100Ev, symObjAddr: 0x33D4, symBinAddr: 0x100009E10, symSize: 0x28 }
  - { offset: 0x21486, size: 0x8, addend: 0x0, symName: __ZNSt3__114pointer_traitsIPcE10pointer_toB8ne180100ERc, symObjAddr: 0x33FC, symBinAddr: 0x100009E38, symSize: 0x14 }
  - { offset: 0x214C1, size: 0x8, addend: 0x0, symName: __ZNKSt3__114__copy_trivialclB8ne180100IKccLi0EEENS_4pairIPT_PT0_EES5_S5_S7_, symObjAddr: 0x3630, symBinAddr: 0x10000A06C, symSize: 0x48 }
  - { offset: 0x21545, size: 0x8, addend: 0x0, symName: __ZNSt3__14pairIPKcS2_EC1B8ne180100IS2_S2_Li0EEEOT_OT0_, symObjAddr: 0x3798, symBinAddr: 0x10000A1D4, symSize: 0x3C }
  - { offset: 0x215A1, size: 0x8, addend: 0x0, symName: __ZNSt3__14pairIPKcS2_EC2B8ne180100IS2_S2_Li0EEEOT_OT0_, symObjAddr: 0x37D4, symBinAddr: 0x10000A210, symSize: 0x34 }
  - { offset: 0x215FD, size: 0x8, addend: 0x0, symName: __ZNSt3__118__unwrap_iter_implIPKcLb1EE8__unwrapB8ne180100ES2_, symObjAddr: 0x3808, symBinAddr: 0x10000A244, symSize: 0x24 }
  - { offset: 0x21629, size: 0x8, addend: 0x0, symName: __ZNSt3__14pairIPKcPcEC1B8ne180100IRS2_S3_Li0EEEOT_OT0_, symObjAddr: 0x3954, symBinAddr: 0x10000A37C, symSize: 0x3C }
  - { offset: 0x21685, size: 0x8, addend: 0x0, symName: __ZNSt3__14pairIPKcPcEC2B8ne180100IRS2_S3_Li0EEEOT_OT0_, symObjAddr: 0x3990, symBinAddr: 0x10000A3B8, symSize: 0x34 }
  - { offset: 0x216E1, size: 0x8, addend: 0x0, symName: __ZNSt3__118__unwrap_iter_implIPcLb1EE8__unwrapB8ne180100ES1_, symObjAddr: 0x39C4, symBinAddr: 0x10000A3EC, symSize: 0x24 }
  - { offset: 0x21703, size: 0x8, addend: 0x0, symName: __ZNSt3__14pairIPKcPcEC1B8ne180100IS2_S3_Li0EEEOT_OT0_, symObjAddr: 0x39E8, symBinAddr: 0x10000A410, symSize: 0x3C }
  - { offset: 0x2175F, size: 0x8, addend: 0x0, symName: __ZNSt3__14pairIPKcPcEC2B8ne180100IS2_S3_Li0EEEOT_OT0_, symObjAddr: 0x3A24, symBinAddr: 0x10000A44C, symSize: 0x34 }
  - { offset: 0x217BB, size: 0x8, addend: 0x0, symName: __ZNSt3__118__unwrap_iter_implIPKcLb1EE8__rewrapB8ne180100ES2_S2_, symObjAddr: 0x3A94, symBinAddr: 0x10000A4BC, symSize: 0x48 }
  - { offset: 0x217EB, size: 0x8, addend: 0x0, symName: __ZNSt3__118__unwrap_iter_implIPcLb1EE8__rewrapB8ne180100ES1_S1_, symObjAddr: 0x3ADC, symBinAddr: 0x10000A504, symSize: 0x48 }
  - { offset: 0x2181B, size: 0x8, addend: 0x0, symName: __ZNSt3__16vectorIN8RowIndex5EntryENS_9allocatorIS2_EEEC2B8ne180100Ev, symObjAddr: 0x3C98, symBinAddr: 0x10000A5F4, symSize: 0x4C }
  - { offset: 0x21843, size: 0x8, addend: 0x0, symName: __ZNSt3__117__compressed_pairIPN8RowIndex5EntryENS_9allocatorIS2_EEEC1B8ne180100IDnNS_18__default_init_tagEEEOT_OT0_, symObjAddr: 0x3CE4, symBinAddr: 0x10000A640, symSize: 0x3C }
  - { offset: 0x21899, size: 0x8, addend: 0x0, symName: __ZNSt3__117__compressed_pairIPN8RowIndex5EntryENS_9allocatorIS2_EEEC2B8ne180100IDnNS_18__default_init_tagEEEOT_OT0_, symObjAddr: 0x3D20, symBinAddr: 0x10000A67C, symSize: 0x40 }
  - { offset: 0x218EF, size: 0x8, addend: 0x0, symName: __ZNSt3__122__compressed_pair_elemIPN8RowIndex5EntryELi0ELb0EEC2B8ne180100IDnvEEOT_, symObjAddr: 0x3D60, symBinAddr: 0x10000A6BC, symSize: 0x1C }
  - { offset: 0x2192F, size: 0x8, addend: 0x0, symName: __ZNSt3__122__compressed_pair_elemINS_9allocatorIN8RowIndex5EntryEEELi1ELb1EEC2B8ne180100ENS_18__default_init_tagE, symObjAddr: 0x3D7C, symBinAddr: 0x10000A6D8, symSize: 0x2C }
  - { offset: 0x21961, size: 0x8, addend: 0x0, symName: __ZNSt3__19allocatorIN8RowIndex5EntryEEC2B8ne180100Ev, symObjAddr: 0x3DA8, symBinAddr: 0x10000A704, symSize: 0x2C }
  - { offset: 0x21989, size: 0x8, addend: 0x0, symName: __ZNSt3__116__non_trivial_ifILb1ENS_9allocatorIN8RowIndex5EntryEEEEC2B8ne180100Ev, symObjAddr: 0x3DD4, symBinAddr: 0x10000A730, symSize: 0x14 }
  - { offset: 0x219B1, size: 0x8, addend: 0x0, symName: __ZNSt3__16vectorIN8RowIndex5EntryENS_9allocatorIS2_EEE7__clearB8ne180100Ev, symObjAddr: 0x3DE8, symBinAddr: 0x10000A744, symSize: 0x28 }
  - { offset: 0x219D5, size: 0x8, addend: 0x0, symName: __ZNKSt3__16vectorIN8RowIndex5EntryENS_9allocatorIS2_EEE17__annotate_shrinkB8ne180100Em, symObjAddr: 0x3E10, symBinAddr: 0x10000A76C, symSize: 0x14 }
  - { offset: 0x21A08, size: 0x8, addend: 0x0, symName: __ZNSt3__16vectorIN8RowIndex5EntryENS_9allocatorIS2_EEE22__base_destruct_at_endB8ne180100EPS2_, symObjAddr: 0x3E24, symBinAddr: 0x10000A780, symSize: 0x8C }
  - { offset: 0x21A4A, size: 0x8, addend: 0x0, symName: __ZNSt3__116allocator_traitsINS_9allocatorIN8RowIndex5EntryEEEE7destroyB8ne180100IS3_vEEvRS4_PT_, symObjAddr: 0x3EB0, symBinAddr: 0x10000A80C, symSize: 0x2C }
  - { offset: 0x21A86, size: 0x8, addend: 0x0, symName: __ZNSt3__16vectorIN8RowIndex5EntryENS_9allocatorIS2_EEE7__allocB8ne180100Ev, symObjAddr: 0x3EDC, symBinAddr: 0x10000A838, symSize: 0x28 }
  - { offset: 0x21AAA, size: 0x8, addend: 0x0, symName: __ZNSt3__19allocatorIN8RowIndex5EntryEE7destroyB8ne180100EPS2_, symObjAddr: 0x3F18, symBinAddr: 0x10000A874, symSize: 0x28 }
  - { offset: 0x21ADC, size: 0x8, addend: 0x0, symName: __ZNSt3__117__compressed_pairIPN8RowIndex5EntryENS_9allocatorIS2_EEE6secondB8ne180100Ev, symObjAddr: 0x3F40, symBinAddr: 0x10000A89C, symSize: 0x24 }
  - { offset: 0x21B00, size: 0x8, addend: 0x0, symName: __ZNSt3__122__compressed_pair_elemINS_9allocatorIN8RowIndex5EntryEEELi1ELb1EE5__getB8ne180100Ev, symObjAddr: 0x3F64, symBinAddr: 0x10000A8C0, symSize: 0x14 }
  - { offset: 0x21B24, size: 0x8, addend: 0x0, symName: __ZNSt3__16vectorIjNS_9allocatorIjEEE8__appendEm, symObjAddr: 0x3F78, symBinAddr: 0x10000A8D4, symSize: 0x108 }
  - { offset: 0x21B7D, size: 0x8, addend: 0x0, symName: __ZNSt3__16vectorIjNS_9allocatorIjEEE17__destruct_at_endB8ne180100EPj, symObjAddr: 0x4080, symBinAddr: 0x10000A9DC, symSize: 0x4C }
  - { offset: 0x21BBF, size: 0x8, addend: 0x0, symName: __ZNKSt3__16vectorIjNS_9allocatorIjEEE11__recommendB8ne180100Em, symObjAddr: 0x4194, symBinAddr: 0x10000AA28, symSize: 0xB4 }
  - { offset: 0x21C12, size: 0x8, addend: 0x0, symName: __ZNSt3__114__split_bufferIjRNS_9allocatorIjEEEC1EmmS3_, symObjAddr: 0x4248, symBinAddr: 0x10000AADC, symSize: 0x44 }
  - { offset: 0x21C66, size: 0x8, addend: 0x0, symName: __ZNSt3__114__split_bufferIjRNS_9allocatorIjEEE18__construct_at_endEm, symObjAddr: 0x428C, symBinAddr: 0x10000AB20, symSize: 0xB4 }
  - { offset: 0x21CA7, size: 0x8, addend: 0x0, symName: __ZNSt3__114__split_bufferIjRNS_9allocatorIjEEED1Ev, symObjAddr: 0x4450, symBinAddr: 0x10000ACE4, symSize: 0x2C }
  - { offset: 0x21CD1, size: 0x8, addend: 0x0, symName: __ZNSt3__114__split_bufferIjRNS_9allocatorIjEEEC2EmmS3_, symObjAddr: 0x4544, symBinAddr: 0x10000AD10, symSize: 0xD4 }
  - { offset: 0x21D42, size: 0x8, addend: 0x0, symName: __ZNSt3__117__compressed_pairIPjRNS_9allocatorIjEEEC1B8ne180100IDnS4_EEOT_OT0_, symObjAddr: 0x4618, symBinAddr: 0x10000ADE4, symSize: 0x3C }
  - { offset: 0x21D98, size: 0x8, addend: 0x0, symName: __ZNSt3__114__split_bufferIjRNS_9allocatorIjEEE7__allocB8ne180100Ev, symObjAddr: 0x4654, symBinAddr: 0x10000AE20, symSize: 0x28 }
  - { offset: 0x21DBC, size: 0x8, addend: 0x0, symName: __ZNSt3__114__split_bufferIjRNS_9allocatorIjEEE9__end_capB8ne180100Ev, symObjAddr: 0x467C, symBinAddr: 0x10000AE48, symSize: 0x28 }
  - { offset: 0x21DE0, size: 0x8, addend: 0x0, symName: __ZNSt3__117__compressed_pairIPjRNS_9allocatorIjEEEC2B8ne180100IDnS4_EEOT_OT0_, symObjAddr: 0x46A4, symBinAddr: 0x10000AE70, symSize: 0x48 }
  - { offset: 0x21E36, size: 0x8, addend: 0x0, symName: __ZNSt3__122__compressed_pair_elemIRNS_9allocatorIjEELi1ELb0EEC2B8ne180100IS3_vEEOT_, symObjAddr: 0x46EC, symBinAddr: 0x10000AEB8, symSize: 0x20 }
  - { offset: 0x21E76, size: 0x8, addend: 0x0, symName: __ZNSt3__117__compressed_pairIPjRNS_9allocatorIjEEE6secondB8ne180100Ev, symObjAddr: 0x470C, symBinAddr: 0x10000AED8, symSize: 0x28 }
  - { offset: 0x21E9A, size: 0x8, addend: 0x0, symName: __ZNSt3__122__compressed_pair_elemIRNS_9allocatorIjEELi1ELb0EE5__getB8ne180100Ev, symObjAddr: 0x4734, symBinAddr: 0x10000AF00, symSize: 0x18 }
  - { offset: 0x21EBE, size: 0x8, addend: 0x0, symName: __ZNSt3__117__compressed_pairIPjRNS_9allocatorIjEEE5firstB8ne180100Ev, symObjAddr: 0x474C, symBinAddr: 0x10000AF18, symSize: 0x24 }
  - { offset: 0x21EEC, size: 0x8, addend: 0x0, symName: __ZNSt3__114__split_bufferIjRNS_9allocatorIjEEE21_ConstructTransactionC1B8ne180100EPPjm, symObjAddr: 0x4770, symBinAddr: 0x10000AF3C, symSize: 0x3C }
  - { offset: 0x21F30, size: 0x8, addend: 0x0, symName: __ZNSt3__114__split_bufferIjRNS_9allocatorIjEEE21_ConstructTransactionD1B8ne180100Ev, symObjAddr: 0x47AC, symBinAddr: 0x10000AF78, symSize: 0x2C }
  - { offset: 0x21F58, size: 0x8, addend: 0x0, symName: __ZNSt3__114__split_bufferIjRNS_9allocatorIjEEE21_ConstructTransactionC2B8ne180100EPPjm, symObjAddr: 0x47D8, symBinAddr: 0x10000AFA4, symSize: 0x44 }
  - { offset: 0x21F9C, size: 0x8, addend: 0x0, symName: __ZNSt3__114__split_bufferIjRNS_9allocatorIjEEE21_ConstructTransactionD2B8ne180100Ev, symObjAddr: 0x481C, symBinAddr: 0x10000AFE8, symSize: 0x20 }
  - { offset: 0x21FC4, size: 0x8, addend: 0x0, symName: __ZNSt3__116reverse_iteratorIPjEC1B8ne180100ES1_, symObjAddr: 0x48B4, symBinAddr: 0x10000B080, symSize: 0x34 }
  - { offset: 0x21FFA, size: 0x8, addend: 0x0, symName: __ZNKSt3__116reverse_iteratorIPjE4baseB8ne180100Ev, symObjAddr: 0x48E8, symBinAddr: 0x10000B0B4, symSize: 0x18 }
  - { offset: 0x22041, size: 0x8, addend: 0x0, symName: __ZNKSt3__111__move_loopINS_17_ClassicAlgPolicyEEclB8ne180100INS_16reverse_iteratorIPjEES6_S6_EENS_4pairIT_T1_EES8_T0_S9_, symObjAddr: 0x4C2C, symBinAddr: 0x10000B3F8, symSize: 0xA0 }
  - { offset: 0x220AF, size: 0x8, addend: 0x0, symName: __ZNSt3__18_IterOpsINS_17_ClassicAlgPolicyEE11__iter_moveB8ne180100IRNS_16reverse_iteratorIPjEELi0EEEDTclsr3stdE4movedeclsr3stdE7declvalIRT_EEEEOS8_, symObjAddr: 0x4E60, symBinAddr: 0x10000B62C, symSize: 0x28 }
  - { offset: 0x220E0, size: 0x8, addend: 0x0, symName: __ZNKSt3__116reverse_iteratorIPjEdeB8ne180100Ev, symObjAddr: 0x4E88, symBinAddr: 0x10000B654, symSize: 0x28 }
  - { offset: 0x22112, size: 0x8, addend: 0x0, symName: __ZNSt3__116reverse_iteratorIPjEppB8ne180100Ev, symObjAddr: 0x4EB0, symBinAddr: 0x10000B67C, symSize: 0x20 }
  - { offset: 0x22136, size: 0x8, addend: 0x0, symName: __ZNSt3__18_IterOpsINS_17_ClassicAlgPolicyEE25__validate_iter_referenceB8ne180100IRNS_16reverse_iteratorIPjEEEEvv, symObjAddr: 0x4ED0, symBinAddr: 0x10000B69C, symSize: 0x4 }
  - { offset: 0x22153, size: 0x8, addend: 0x0, symName: __ZNSt3__118__unwrap_iter_implINS_16reverse_iteratorIPjEELb0EE8__unwrapB8ne180100ES3_, symObjAddr: 0x4ED4, symBinAddr: 0x10000B6A0, symSize: 0x24 }
  - { offset: 0x2217A, size: 0x8, addend: 0x0, symName: __ZNSt3__14pairINS_16reverse_iteratorIPjEES3_EC1B8ne180100IS3_S3_Li0EEEOT_OT0_, symObjAddr: 0x4EF8, symBinAddr: 0x10000B6C4, symSize: 0x3C }
  - { offset: 0x221D6, size: 0x8, addend: 0x0, symName: __ZNSt3__14pairINS_16reverse_iteratorIPjEES3_EC2B8ne180100IS3_S3_Li0EEEOT_OT0_, symObjAddr: 0x4F34, symBinAddr: 0x10000B700, symSize: 0x34 }
  - { offset: 0x22232, size: 0x8, addend: 0x0, symName: __ZNSt3__118__unwrap_iter_implINS_16reverse_iteratorIPjEELb0EE8__rewrapB8ne180100ES3_S3_, symObjAddr: 0x4F68, symBinAddr: 0x10000B734, symSize: 0x2C }
  - { offset: 0x2225E, size: 0x8, addend: 0x0, symName: __ZNSt3__116reverse_iteratorIPjEC2B8ne180100ES1_, symObjAddr: 0x4F94, symBinAddr: 0x10000B760, symSize: 0x28 }
  - { offset: 0x22294, size: 0x8, addend: 0x0, symName: __ZNSt3__114__split_bufferIjRNS_9allocatorIjEEED2Ev, symObjAddr: 0x4FBC, symBinAddr: 0x10000B788, symSize: 0x8C }
  - { offset: 0x222BE, size: 0x8, addend: 0x0, symName: __ZNSt3__114__split_bufferIjRNS_9allocatorIjEEE5clearB8ne180100Ev, symObjAddr: 0x5048, symBinAddr: 0x10000B814, symSize: 0x28 }
  - { offset: 0x222E2, size: 0x8, addend: 0x0, symName: __ZNKSt3__114__split_bufferIjRNS_9allocatorIjEEE8capacityB8ne180100Ev, symObjAddr: 0x5070, symBinAddr: 0x10000B83C, symSize: 0x40 }
  - { offset: 0x22306, size: 0x8, addend: 0x0, symName: __ZNSt3__114__split_bufferIjRNS_9allocatorIjEEE17__destruct_at_endB8ne180100EPj, symObjAddr: 0x50B0, symBinAddr: 0x10000B87C, symSize: 0x2C }
  - { offset: 0x22338, size: 0x8, addend: 0x0, symName: __ZNSt3__114__split_bufferIjRNS_9allocatorIjEEE17__destruct_at_endB8ne180100EPjNS_17integral_constantIbLb0EEE, symObjAddr: 0x50DC, symBinAddr: 0x10000B8A8, symSize: 0x80 }
  - { offset: 0x22376, size: 0x8, addend: 0x0, symName: __ZNKSt3__114__split_bufferIjRNS_9allocatorIjEEE9__end_capB8ne180100Ev, symObjAddr: 0x515C, symBinAddr: 0x10000B928, symSize: 0x28 }
  - { offset: 0x2239A, size: 0x8, addend: 0x0, symName: __ZNKSt3__117__compressed_pairIPjRNS_9allocatorIjEEE5firstB8ne180100Ev, symObjAddr: 0x5184, symBinAddr: 0x10000B950, symSize: 0x24 }
  - { offset: 0x223BE, size: 0x8, addend: 0x0, symName: __ZNKSt3__16vectorIjNS_9allocatorIjEEE17__annotate_shrinkB8ne180100Em, symObjAddr: 0x51A8, symBinAddr: 0x10000B974, symSize: 0x14 }
  - { offset: 0x223F1, size: 0x8, addend: 0x0, symName: __ZNSt3__16vectorIN8RowIndex5EntryENS_9allocatorIS2_EEE9__end_capB8ne180100Ev, symObjAddr: 0x51BC, symBinAddr: 0x10000B988, symSize: 0x28 }
  - { offset: 0x22415, size: 0x8, addend: 0x0, symName: __ZNSt3__16vectorIN8RowIndex5EntryENS_9allocatorIS2_EEE22__construct_one_at_endB8ne180100IJRKS2_EEEvDpOT_, symObjAddr: 0x51E4, symBinAddr: 0x10000B9B0, symSize: 0x90 }
  - { offset: 0x22462, size: 0x8, addend: 0x0, symName: __ZNSt3__16vectorIN8RowIndex5EntryENS_9allocatorIS2_EEE21__push_back_slow_pathIRKS2_EEPS2_OT_, symObjAddr: 0x5274, symBinAddr: 0x10000BA40, symSize: 0xE8 }
  - { offset: 0x224BE, size: 0x8, addend: 0x0, symName: __ZNSt3__117__compressed_pairIPN8RowIndex5EntryENS_9allocatorIS2_EEE5firstB8ne180100Ev, symObjAddr: 0x535C, symBinAddr: 0x10000BB28, symSize: 0x24 }
  - { offset: 0x224E2, size: 0x8, addend: 0x0, symName: __ZNSt3__122__compressed_pair_elemIPN8RowIndex5EntryELi0ELb0EE5__getB8ne180100Ev, symObjAddr: 0x5380, symBinAddr: 0x10000BB4C, symSize: 0x14 }
  - { offset: 0x2251F, size: 0x8, addend: 0x0, symName: __ZNSt3__16vectorIN8RowIndex5EntryENS_9allocatorIS2_EEE21_ConstructTransactionC1B8ne180100ERS5_m, symObjAddr: 0x5394, symBinAddr: 0x10000BB60, symSize: 0x3C }
  - { offset: 0x22565, size: 0x8, addend: 0x0, symName: __ZNSt3__116allocator_traitsINS_9allocatorIN8RowIndex5EntryEEEE9constructB8ne180100IS3_JRKS3_EvEEvRS4_PT_DpOT0_, symObjAddr: 0x53D0, symBinAddr: 0x10000BB9C, symSize: 0x34 }
  - { offset: 0x225BB, size: 0x8, addend: 0x0, symName: __ZNSt3__16vectorIN8RowIndex5EntryENS_9allocatorIS2_EEE21_ConstructTransactionD1B8ne180100Ev, symObjAddr: 0x5404, symBinAddr: 0x10000BBD0, symSize: 0x2C }
  - { offset: 0x225E3, size: 0x8, addend: 0x0, symName: __ZNSt3__16vectorIN8RowIndex5EntryENS_9allocatorIS2_EEE21_ConstructTransactionC2B8ne180100ERS5_m, symObjAddr: 0x5430, symBinAddr: 0x10000BBFC, symSize: 0x44 }
  - { offset: 0x22629, size: 0x8, addend: 0x0, symName: __ZNSt3__19allocatorIN8RowIndex5EntryEE9constructB8ne180100IS2_JRKS2_EEEvPT_DpOT0_, symObjAddr: 0x5474, symBinAddr: 0x10000BC40, symSize: 0x30 }
  - { offset: 0x2267D, size: 0x8, addend: 0x0, symName: __ZN8RowIndex5EntryC1ERKS0_, symObjAddr: 0x54A4, symBinAddr: 0x10000BC70, symSize: 0x34 }
  - { offset: 0x226B0, size: 0x8, addend: 0x0, symName: __ZN8RowIndex5EntryC2ERKS0_, symObjAddr: 0x54D8, symBinAddr: 0x10000BCA4, symSize: 0x48 }
  - { offset: 0x226E3, size: 0x8, addend: 0x0, symName: __ZNSt3__16vectorIN8RowIndex5EntryENS_9allocatorIS2_EEE21_ConstructTransactionD2B8ne180100Ev, symObjAddr: 0x5520, symBinAddr: 0x10000BCEC, symSize: 0x20 }
  - { offset: 0x2270B, size: 0x8, addend: 0x0, symName: __ZNKSt3__16vectorIN8RowIndex5EntryENS_9allocatorIS2_EEE11__recommendB8ne180100Em, symObjAddr: 0x5540, symBinAddr: 0x10000BD0C, symSize: 0xB4 }
  - { offset: 0x2275E, size: 0x8, addend: 0x0, symName: __ZNSt3__114__split_bufferIN8RowIndex5EntryERNS_9allocatorIS2_EEEC1EmmS5_, symObjAddr: 0x55F4, symBinAddr: 0x10000BDC0, symSize: 0x44 }
  - { offset: 0x227B2, size: 0x8, addend: 0x0, symName: __ZNSt3__114__split_bufferIN8RowIndex5EntryERNS_9allocatorIS2_EEED1Ev, symObjAddr: 0x5748, symBinAddr: 0x10000BF14, symSize: 0x2C }
  - { offset: 0x227DC, size: 0x8, addend: 0x0, symName: __ZNKSt3__16vectorIN8RowIndex5EntryENS_9allocatorIS2_EEE8max_sizeEv, symObjAddr: 0x5774, symBinAddr: 0x10000BF40, symSize: 0x60 }
  - { offset: 0x22802, size: 0x8, addend: 0x0, symName: __ZNKSt3__16vectorIN8RowIndex5EntryENS_9allocatorIS2_EEE20__throw_length_errorB8ne180100Ev, symObjAddr: 0x57D4, symBinAddr: 0x10000BFA0, symSize: 0x1C }
  - { offset: 0x22826, size: 0x8, addend: 0x0, symName: __ZNKSt3__16vectorIN8RowIndex5EntryENS_9allocatorIS2_EEE8capacityB8ne180100Ev, symObjAddr: 0x57F0, symBinAddr: 0x10000BFBC, symSize: 0x40 }
  - { offset: 0x22854, size: 0x8, addend: 0x0, symName: __ZNSt3__116allocator_traitsINS_9allocatorIN8RowIndex5EntryEEEE8max_sizeB8ne180100IS4_vEEmRKS4_, symObjAddr: 0x5830, symBinAddr: 0x10000BFFC, symSize: 0x24 }
  - { offset: 0x22881, size: 0x8, addend: 0x0, symName: __ZNKSt3__16vectorIN8RowIndex5EntryENS_9allocatorIS2_EEE7__allocB8ne180100Ev, symObjAddr: 0x5854, symBinAddr: 0x10000C020, symSize: 0x28 }
  - { offset: 0x228A5, size: 0x8, addend: 0x0, symName: __ZNKSt3__19allocatorIN8RowIndex5EntryEE8max_sizeB8ne180100Ev, symObjAddr: 0x587C, symBinAddr: 0x10000C048, symSize: 0x14 }
  - { offset: 0x228C9, size: 0x8, addend: 0x0, symName: __ZNKSt3__117__compressed_pairIPN8RowIndex5EntryENS_9allocatorIS2_EEE6secondB8ne180100Ev, symObjAddr: 0x5890, symBinAddr: 0x10000C05C, symSize: 0x24 }
  - { offset: 0x228ED, size: 0x8, addend: 0x0, symName: __ZNKSt3__122__compressed_pair_elemINS_9allocatorIN8RowIndex5EntryEEELi1ELb1EE5__getB8ne180100Ev, symObjAddr: 0x58B4, symBinAddr: 0x10000C080, symSize: 0x14 }
  - { offset: 0x22911, size: 0x8, addend: 0x0, symName: __ZNKSt3__16vectorIN8RowIndex5EntryENS_9allocatorIS2_EEE9__end_capB8ne180100Ev, symObjAddr: 0x58C8, symBinAddr: 0x10000C094, symSize: 0x28 }
  - { offset: 0x22935, size: 0x8, addend: 0x0, symName: __ZNKSt3__117__compressed_pairIPN8RowIndex5EntryENS_9allocatorIS2_EEE5firstB8ne180100Ev, symObjAddr: 0x58F0, symBinAddr: 0x10000C0BC, symSize: 0x24 }
  - { offset: 0x22959, size: 0x8, addend: 0x0, symName: __ZNKSt3__122__compressed_pair_elemIPN8RowIndex5EntryELi0ELb0EE5__getB8ne180100Ev, symObjAddr: 0x5914, symBinAddr: 0x10000C0E0, symSize: 0x14 }
  - { offset: 0x2297D, size: 0x8, addend: 0x0, symName: __ZNSt3__114__split_bufferIN8RowIndex5EntryERNS_9allocatorIS2_EEEC2EmmS5_, symObjAddr: 0x5928, symBinAddr: 0x10000C0F4, symSize: 0xD4 }
  - { offset: 0x229EE, size: 0x8, addend: 0x0, symName: __ZNSt3__117__compressed_pairIPN8RowIndex5EntryERNS_9allocatorIS2_EEEC1B8ne180100IDnS6_EEOT_OT0_, symObjAddr: 0x59FC, symBinAddr: 0x10000C1C8, symSize: 0x3C }
  - { offset: 0x22A44, size: 0x8, addend: 0x0, symName: __ZNSt3__114__split_bufferIN8RowIndex5EntryERNS_9allocatorIS2_EEE7__allocB8ne180100Ev, symObjAddr: 0x5A78, symBinAddr: 0x10000C244, symSize: 0x28 }
  - { offset: 0x22A68, size: 0x8, addend: 0x0, symName: __ZNSt3__114__split_bufferIN8RowIndex5EntryERNS_9allocatorIS2_EEE9__end_capB8ne180100Ev, symObjAddr: 0x5AA0, symBinAddr: 0x10000C26C, symSize: 0x28 }
  - { offset: 0x22A8C, size: 0x8, addend: 0x0, symName: __ZNSt3__117__compressed_pairIPN8RowIndex5EntryERNS_9allocatorIS2_EEEC2B8ne180100IDnS6_EEOT_OT0_, symObjAddr: 0x5AC8, symBinAddr: 0x10000C294, symSize: 0x48 }
  - { offset: 0x22AE2, size: 0x8, addend: 0x0, symName: __ZNSt3__122__compressed_pair_elemIRNS_9allocatorIN8RowIndex5EntryEEELi1ELb0EEC2B8ne180100IS5_vEEOT_, symObjAddr: 0x5B10, symBinAddr: 0x10000C2DC, symSize: 0x20 }
  - { offset: 0x22B22, size: 0x8, addend: 0x0, symName: __ZNSt3__19allocatorIN8RowIndex5EntryEE8allocateB8ne180100Em, symObjAddr: 0x5B30, symBinAddr: 0x10000C2FC, symSize: 0x58 }
  - { offset: 0x22B54, size: 0x8, addend: 0x0, symName: __ZNSt3__117__compressed_pairIPN8RowIndex5EntryERNS_9allocatorIS2_EEE6secondB8ne180100Ev, symObjAddr: 0x5B88, symBinAddr: 0x10000C354, symSize: 0x28 }
  - { offset: 0x22B78, size: 0x8, addend: 0x0, symName: __ZNSt3__122__compressed_pair_elemIRNS_9allocatorIN8RowIndex5EntryEEELi1ELb0EE5__getB8ne180100Ev, symObjAddr: 0x5BB0, symBinAddr: 0x10000C37C, symSize: 0x18 }
  - { offset: 0x22B9C, size: 0x8, addend: 0x0, symName: __ZNSt3__117__compressed_pairIPN8RowIndex5EntryERNS_9allocatorIS2_EEE5firstB8ne180100Ev, symObjAddr: 0x5BC8, symBinAddr: 0x10000C394, symSize: 0x24 }
  - { offset: 0x22BC0, size: 0x8, addend: 0x0, symName: __ZNKSt3__16vectorIN8RowIndex5EntryENS_9allocatorIS2_EEE17__annotate_deleteB8ne180100Ev, symObjAddr: 0x5BEC, symBinAddr: 0x10000C3B8, symSize: 0x10 }
  - { offset: 0x22BE4, size: 0x8, addend: 0x0, symName: __ZNSt3__116reverse_iteratorIPN8RowIndex5EntryEEC1B8ne180100ES3_, symObjAddr: 0x5D28, symBinAddr: 0x10000C4F4, symSize: 0x34 }
  - { offset: 0x22C1A, size: 0x8, addend: 0x0, symName: __ZNKSt3__116reverse_iteratorIPN8RowIndex5EntryEE4baseB8ne180100Ev, symObjAddr: 0x5D5C, symBinAddr: 0x10000C528, symSize: 0x18 }
  - { offset: 0x22C3E, size: 0x8, addend: 0x0, symName: __ZNKSt3__16vectorIN8RowIndex5EntryENS_9allocatorIS2_EEE14__annotate_newB8ne180100Em, symObjAddr: 0x5DB0, symBinAddr: 0x10000C57C, symSize: 0x14 }
  - { offset: 0x22C71, size: 0x8, addend: 0x0, symName: __ZNSt3__129_AllocatorDestroyRangeReverseINS_9allocatorIN8RowIndex5EntryEEENS_16reverse_iteratorIPS3_EEEC1B8ne180100ERS4_RS7_SA_, symObjAddr: 0x5E10, symBinAddr: 0x10000C5DC, symSize: 0x44 }
  - { offset: 0x22CCB, size: 0x8, addend: 0x0, symName: __ZNSt3__116allocator_traitsINS_9allocatorIN8RowIndex5EntryEEEE9constructB8ne180100IS3_JS3_EvEEvRS4_PT_DpOT0_, symObjAddr: 0x5E9C, symBinAddr: 0x10000C668, symSize: 0x34 }
  - { offset: 0x22D21, size: 0x8, addend: 0x0, symName: __ZNKSt3__116reverse_iteratorIPN8RowIndex5EntryEEdeB8ne180100Ev, symObjAddr: 0x5EF4, symBinAddr: 0x10000C6C0, symSize: 0x28 }
  - { offset: 0x22D53, size: 0x8, addend: 0x0, symName: __ZNSt3__116reverse_iteratorIPN8RowIndex5EntryEEppB8ne180100Ev, symObjAddr: 0x5F1C, symBinAddr: 0x10000C6E8, symSize: 0x20 }
  - { offset: 0x22D77, size: 0x8, addend: 0x0, symName: __ZNSt3__128__exception_guard_exceptionsINS_29_AllocatorDestroyRangeReverseINS_9allocatorIN8RowIndex5EntryEEENS_16reverse_iteratorIPS4_EEEEE10__completeB8ne180100Ev, symObjAddr: 0x5F3C, symBinAddr: 0x10000C708, symSize: 0x1C }
  - { offset: 0x22D9B, size: 0x8, addend: 0x0, symName: __ZNSt3__128__exception_guard_exceptionsINS_29_AllocatorDestroyRangeReverseINS_9allocatorIN8RowIndex5EntryEEENS_16reverse_iteratorIPS4_EEEEED1B8ne180100Ev, symObjAddr: 0x5F58, symBinAddr: 0x10000C724, symSize: 0x2C }
  - { offset: 0x22DC3, size: 0x8, addend: 0x0, symName: __ZNSt3__128__exception_guard_exceptionsINS_29_AllocatorDestroyRangeReverseINS_9allocatorIN8RowIndex5EntryEEENS_16reverse_iteratorIPS4_EEEEEC1B8ne180100ES9_, symObjAddr: 0x5F84, symBinAddr: 0x10000C750, symSize: 0x34 }
  - { offset: 0x22DFA, size: 0x8, addend: 0x0, symName: __ZNSt3__128__exception_guard_exceptionsINS_29_AllocatorDestroyRangeReverseINS_9allocatorIN8RowIndex5EntryEEENS_16reverse_iteratorIPS4_EEEEEC2B8ne180100ES9_, symObjAddr: 0x5FB8, symBinAddr: 0x10000C784, symSize: 0x30 }
  - { offset: 0x22E31, size: 0x8, addend: 0x0, symName: __ZNSt3__129_AllocatorDestroyRangeReverseINS_9allocatorIN8RowIndex5EntryEEENS_16reverse_iteratorIPS3_EEEC2B8ne180100ERS4_RS7_SA_, symObjAddr: 0x5FE8, symBinAddr: 0x10000C7B4, symSize: 0x38 }
  - { offset: 0x22E86, size: 0x8, addend: 0x0, symName: __ZNSt3__19allocatorIN8RowIndex5EntryEE9constructB8ne180100IS2_JS2_EEEvPT_DpOT0_, symObjAddr: 0x6020, symBinAddr: 0x10000C7EC, symSize: 0x30 }
  - { offset: 0x22EDA, size: 0x8, addend: 0x0, symName: __ZN8RowIndex5EntryC1EOS0_, symObjAddr: 0x6050, symBinAddr: 0x10000C81C, symSize: 0x34 }
  - { offset: 0x22F0D, size: 0x8, addend: 0x0, symName: __ZN8RowIndex5EntryC2EOS0_, symObjAddr: 0x6084, symBinAddr: 0x10000C850, symSize: 0x48 }
  - { offset: 0x22F40, size: 0x8, addend: 0x0, symName: __ZNSt3__16vectorIjNS_9allocatorIjEEEC1B8ne180100EOS3_, symObjAddr: 0x60CC, symBinAddr: 0x10000C898, symSize: 0x34 }
  - { offset: 0x22F79, size: 0x8, addend: 0x0, symName: __ZNSt3__16vectorIjNS_9allocatorIjEEEC2B8ne180100EOS3_, symObjAddr: 0x6100, symBinAddr: 0x10000C8CC, symSize: 0xC4 }
  - { offset: 0x22FB7, size: 0x8, addend: 0x0, symName: __ZNSt3__119__to_address_helperINS_16reverse_iteratorIPN8RowIndex5EntryEEEvE6__callB8ne180100ERKS5_, symObjAddr: 0x61C4, symBinAddr: 0x10000C990, symSize: 0x38 }
  - { offset: 0x22FD9, size: 0x8, addend: 0x0, symName: __ZNKSt3__116reverse_iteratorIPN8RowIndex5EntryEEptB8ne180100Ev, symObjAddr: 0x61FC, symBinAddr: 0x10000C9C8, symSize: 0x24 }
  - { offset: 0x22FFD, size: 0x8, addend: 0x0, symName: __ZNSt3__128__exception_guard_exceptionsINS_29_AllocatorDestroyRangeReverseINS_9allocatorIN8RowIndex5EntryEEENS_16reverse_iteratorIPS4_EEEEED2B8ne180100Ev, symObjAddr: 0x6220, symBinAddr: 0x10000C9EC, symSize: 0x50 }
  - { offset: 0x23025, size: 0x8, addend: 0x0, symName: __ZNKSt3__129_AllocatorDestroyRangeReverseINS_9allocatorIN8RowIndex5EntryEEENS_16reverse_iteratorIPS3_EEEclB8ne180100Ev, symObjAddr: 0x6270, symBinAddr: 0x10000CA3C, symSize: 0xB4 }
  - { offset: 0x2304A, size: 0x8, addend: 0x0, symName: __ZNSt3__116reverse_iteratorINS0_IPN8RowIndex5EntryEEEEC1B8ne180100ES4_, symObjAddr: 0x6394, symBinAddr: 0x10000CB60, symSize: 0x3C }
  - { offset: 0x23080, size: 0x8, addend: 0x0, symName: __ZNSt3__116reverse_iteratorINS0_IPN8RowIndex5EntryEEEEppB8ne180100Ev, symObjAddr: 0x6454, symBinAddr: 0x10000CC20, symSize: 0x30 }
  - { offset: 0x230A4, size: 0x8, addend: 0x0, symName: __ZNKSt3__116reverse_iteratorINS0_IPN8RowIndex5EntryEEEE4baseB8ne180100Ev, symObjAddr: 0x6484, symBinAddr: 0x10000CC50, symSize: 0x24 }
  - { offset: 0x230CD, size: 0x8, addend: 0x0, symName: __ZNSt3__119__to_address_helperINS_16reverse_iteratorINS1_IPN8RowIndex5EntryEEEEEvE6__callB8ne180100ERKS6_, symObjAddr: 0x64A8, symBinAddr: 0x10000CC74, symSize: 0x38 }
  - { offset: 0x230EF, size: 0x8, addend: 0x0, symName: __ZNKSt3__116reverse_iteratorINS0_IPN8RowIndex5EntryEEEEptB8ne180100Ev, symObjAddr: 0x64E0, symBinAddr: 0x10000CCAC, symSize: 0x24 }
  - { offset: 0x23113, size: 0x8, addend: 0x0, symName: __ZNKSt3__116reverse_iteratorINS0_IPN8RowIndex5EntryEEEEdeB8ne180100Ev, symObjAddr: 0x6504, symBinAddr: 0x10000CCD0, symSize: 0x34 }
  - { offset: 0x23145, size: 0x8, addend: 0x0, symName: __ZNSt3__116reverse_iteratorIPN8RowIndex5EntryEEmmB8ne180100Ev, symObjAddr: 0x6538, symBinAddr: 0x10000CD04, symSize: 0x20 }
  - { offset: 0x23169, size: 0x8, addend: 0x0, symName: __ZNSt3__116reverse_iteratorINS0_IPN8RowIndex5EntryEEEEC2B8ne180100ES4_, symObjAddr: 0x6558, symBinAddr: 0x10000CD24, symSize: 0x2C }
  - { offset: 0x2319F, size: 0x8, addend: 0x0, symName: __ZNSt3__116reverse_iteratorIPN8RowIndex5EntryEEC2B8ne180100ES3_, symObjAddr: 0x6584, symBinAddr: 0x10000CD50, symSize: 0x28 }
  - { offset: 0x231D5, size: 0x8, addend: 0x0, symName: __ZNSt3__114__split_bufferIN8RowIndex5EntryERNS_9allocatorIS2_EEED2Ev, symObjAddr: 0x65AC, symBinAddr: 0x10000CD78, symSize: 0x8C }
  - { offset: 0x231FF, size: 0x8, addend: 0x0, symName: __ZNSt3__114__split_bufferIN8RowIndex5EntryERNS_9allocatorIS2_EEE5clearB8ne180100Ev, symObjAddr: 0x6638, symBinAddr: 0x10000CE04, symSize: 0x28 }
  - { offset: 0x23223, size: 0x8, addend: 0x0, symName: __ZNSt3__116allocator_traitsINS_9allocatorIN8RowIndex5EntryEEEE10deallocateB8ne180100ERS4_PS3_m, symObjAddr: 0x6660, symBinAddr: 0x10000CE2C, symSize: 0x34 }
  - { offset: 0x23264, size: 0x8, addend: 0x0, symName: __ZNKSt3__114__split_bufferIN8RowIndex5EntryERNS_9allocatorIS2_EEE8capacityB8ne180100Ev, symObjAddr: 0x6694, symBinAddr: 0x10000CE60, symSize: 0x40 }
  - { offset: 0x23288, size: 0x8, addend: 0x0, symName: __ZNSt3__114__split_bufferIN8RowIndex5EntryERNS_9allocatorIS2_EEE17__destruct_at_endB8ne180100EPS2_, symObjAddr: 0x66D4, symBinAddr: 0x10000CEA0, symSize: 0x2C }
  - { offset: 0x232BA, size: 0x8, addend: 0x0, symName: __ZNSt3__114__split_bufferIN8RowIndex5EntryERNS_9allocatorIS2_EEE17__destruct_at_endB8ne180100EPS2_NS_17integral_constantIbLb0EEE, symObjAddr: 0x6700, symBinAddr: 0x10000CECC, symSize: 0x80 }
  - { offset: 0x232F8, size: 0x8, addend: 0x0, symName: __ZNSt3__19allocatorIN8RowIndex5EntryEE10deallocateB8ne180100EPS2_m, symObjAddr: 0x6780, symBinAddr: 0x10000CF4C, symSize: 0x40 }
  - { offset: 0x23338, size: 0x8, addend: 0x0, symName: __ZNKSt3__114__split_bufferIN8RowIndex5EntryERNS_9allocatorIS2_EEE9__end_capB8ne180100Ev, symObjAddr: 0x67C0, symBinAddr: 0x10000CF8C, symSize: 0x28 }
  - { offset: 0x2335C, size: 0x8, addend: 0x0, symName: __ZNKSt3__117__compressed_pairIPN8RowIndex5EntryERNS_9allocatorIS2_EEE5firstB8ne180100Ev, symObjAddr: 0x67E8, symBinAddr: 0x10000CFB4, symSize: 0x24 }
  - { offset: 0x23380, size: 0x8, addend: 0x0, symName: __ZNSt3__16vectorIjNS_9allocatorIjEEE19__copy_assign_allocB8ne180100ERKS3_, symObjAddr: 0x680C, symBinAddr: 0x10000CFD8, symSize: 0x2C }
  - { offset: 0x233B3, size: 0x8, addend: 0x0, symName: __ZNSt3__16vectorIjNS_9allocatorIjEEE6assignIPjLi0EEEvT_S6_, symObjAddr: 0x6838, symBinAddr: 0x10000D004, symSize: 0x5C }
  - { offset: 0x23406, size: 0x8, addend: 0x0, symName: __ZNSt3__16vectorIjNS_9allocatorIjEEE19__copy_assign_allocB8ne180100ERKS3_NS_17integral_constantIbLb0EEE, symObjAddr: 0x6894, symBinAddr: 0x10000D060, symSize: 0x14 }
  - { offset: 0x23440, size: 0x8, addend: 0x0, symName: __ZNSt3__16vectorIjNS_9allocatorIjEEE18__assign_with_sizeB8ne180100IPjS5_EEvT_T0_l, symObjAddr: 0x68A8, symBinAddr: 0x10000D074, symSize: 0x164 }
  - { offset: 0x234EE, size: 0x8, addend: 0x0, symName: __ZNSt3__16vectorIjNS_9allocatorIjEEE13__vdeallocateEv, symObjAddr: 0x6A6C, symBinAddr: 0x10000D238, symSize: 0x94 }
  - { offset: 0x23514, size: 0x8, addend: 0x0, symName: __ZNSt3__16vectorIjNS_9allocatorIjEEE5clearB8ne180100Ev, symObjAddr: 0x6B74, symBinAddr: 0x10000D340, symSize: 0x44 }
  - { offset: 0x23547, size: 0x8, addend: 0x0, symName: __ZNKSt3__110__function12__value_funcIFvjRKNS_6vectorIjNS_9allocatorIjEEEEEEclB8ne180100EOjS7_, symObjAddr: 0x6BE0, symBinAddr: 0x10000D3AC, symSize: 0x60 }
  - { offset: 0x2359D, size: 0x8, addend: 0x0, symName: __ZNSt3__117bad_function_callC1B8ne180100Ev, symObjAddr: 0x6C78, symBinAddr: 0x10000D444, symSize: 0x2C }
  - { offset: 0x235C5, size: 0x8, addend: 0x0, symName: __ZNSt3__117bad_function_callD1Ev, symObjAddr: 0x6CA4, symBinAddr: 0x10000D470, symSize: 0x2C }
  - { offset: 0x235ED, size: 0x8, addend: 0x0, symName: __ZNSt3__117bad_function_callC2B8ne180100Ev, symObjAddr: 0x6CD0, symBinAddr: 0x10000D49C, symSize: 0x3C }
  - { offset: 0x23615, size: 0x8, addend: 0x0, symName: __ZNSt9exceptionC2B8ne180100Ev, symObjAddr: 0x6D0C, symBinAddr: 0x10000D4D8, symSize: 0x24 }
  - { offset: 0x2363D, size: 0x8, addend: 0x0, symName: __ZNSt3__117bad_function_callD0Ev, symObjAddr: 0x6D30, symBinAddr: 0x10000D4FC, symSize: 0x30 }
  - { offset: 0x23665, size: 0x8, addend: 0x0, symName: __ZNSt3__117bad_function_callD2Ev, symObjAddr: 0x6D60, symBinAddr: 0x10000D52C, symSize: 0x2C }
  - { offset: 0x25632, size: 0x8, addend: 0x0, symName: __ZNSt3__119piecewise_constructE, symObjAddr: 0xED3A, symBinAddr: 0x10003AC16, symSize: 0x0 }
  - { offset: 0x2AA72, size: 0x8, addend: 0x0, symName: '__ZNSt3__110__function10__not_nullB8ne180100IZN5Table17materializeColumnEtE3$_0EEbRKT_', symObjAddr: 0x7344, symBinAddr: 0x100011A7C, symSize: 0x18 }
  - { offset: 0x2AAA4, size: 0x8, addend: 0x0, symName: '__ZNSt3__110__function10__not_nullB8ne180100IZN5Table10scanEqualsEtjE3$_0EEbRKT_', symObjAddr: 0x9410, symBinAddr: 0x100013A94, symSize: 0x18 }
  - { offset: 0x2AAD6, size: 0x8, addend: 0x0, symName: '__ZNSt3__110__function10__not_nullB8ne180100IZN5Table9sumColumnEtE3$_0EEbRKT_', symObjAddr: 0xAF80, symBinAddr: 0x100015604, symSize: 0x18 }
  - { offset: 0x2AB08, size: 0x8, addend: 0x0, symName: '__ZNSt3__110__function10__not_nullB8ne180100IZN5Table27materializeColumnWithRowIDsEtE3$_0EEbRKT_', symObjAddr: 0xCAA8, symBinAddr: 0x10001712C, symSize: 0x18 }
  - { offset: 0x32163, size: 0x8, addend: 0x0, symName: __ZNSt3__112__to_addressB8ne180100I10ColumnFileEEPT_S3_, symObjAddr: 0x3ED4, symBinAddr: 0x10000F4E8, symSize: 0x14 }
  - { offset: 0x32198, size: 0x8, addend: 0x0, symName: __ZNSt3__119__allocate_at_leastB8ne180100INS_9allocatorI10ColumnFileEEEENS_19__allocation_resultINS_16allocator_traitsIT_E7pointerEEERS6_m, symObjAddr: 0x439C, symBinAddr: 0x10000F9B0, symSize: 0x40 }
  - { offset: 0x321DB, size: 0x8, addend: 0x0, symName: __ZNSt3__142__uninitialized_allocator_move_if_noexceptB8ne180100INS_9allocatorI10ColumnFileEENS_16reverse_iteratorIPS2_EES6_S6_EET2_RT_T0_T1_S7_, symObjAddr: 0x4594, symBinAddr: 0x10000FBA8, symSize: 0x12C }
  - { offset: 0x3227B, size: 0x8, addend: 0x0, symName: __ZNSt3__14swapB8ne180100IP10ColumnFileEENS_9enable_ifIXaasr21is_move_constructibleIT_EE5valuesr18is_move_assignableIS4_EE5valueEvE4typeERS4_S7_, symObjAddr: 0x470C, symBinAddr: 0x10000FD20, symSize: 0x3C }
  - { offset: 0x322CC, size: 0x8, addend: 0x0, symName: __ZNSt3__122__make_exception_guardB8ne180100INS_29_AllocatorDestroyRangeReverseINS_9allocatorI10ColumnFileEENS_16reverse_iteratorIPS3_EEEEEENS_28__exception_guard_exceptionsIT_EESA_, symObjAddr: 0x4784, symBinAddr: 0x10000FD98, symSize: 0x4C }
  - { offset: 0x32302, size: 0x8, addend: 0x0, symName: __ZNSt3__1neB8ne180100IP10ColumnFileS2_EEbRKNS_16reverse_iteratorIT_EERKNS3_IT0_EE, symObjAddr: 0x4814, symBinAddr: 0x10000FE28, symSize: 0x48 }
  - { offset: 0x3234E, size: 0x8, addend: 0x0, symName: __ZNSt3__112__to_addressB8ne180100INS_16reverse_iteratorIP10ColumnFileEEvEEu7__decayIDTclsr19__to_address_helperIT_EE6__callclsr3stdE7declvalIRKS5_EEEEES7_, symObjAddr: 0x4890, symBinAddr: 0x10000FEA4, symSize: 0x24 }
  - { offset: 0x323AE, size: 0x8, addend: 0x0, symName: __ZNSt3__119__allocator_destroyB8ne180100INS_9allocatorI10ColumnFileEENS_16reverse_iteratorINS4_IPS2_EEEES7_EEvRT_T0_T1_, symObjAddr: 0x4B70, symBinAddr: 0x100010184, symSize: 0x70 }
  - { offset: 0x32413, size: 0x8, addend: 0x0, symName: __ZNSt3__1neB8ne180100INS_16reverse_iteratorIP10ColumnFileEES4_EEbRKNS1_IT_EERKNS1_IT0_EE, symObjAddr: 0x4C1C, symBinAddr: 0x100010230, symSize: 0x60 }
  - { offset: 0x3245F, size: 0x8, addend: 0x0, symName: __ZNSt3__112__to_addressB8ne180100INS_16reverse_iteratorINS1_IP10ColumnFileEEEEvEEu7__decayIDTclsr19__to_address_helperIT_EE6__callclsr3stdE7declvalIRKS6_EEEEES8_, symObjAddr: 0x4C7C, symBinAddr: 0x100010290, symSize: 0x24 }
  - { offset: 0x324BF, size: 0x8, addend: 0x0, symName: __ZNSt3__122__make_exception_guardB8ne180100INS_6vectorINS_8optionalIjEENS_9allocatorIS3_EEE16__destroy_vectorEEENS_28__exception_guard_exceptionsIT_EES9_, symObjAddr: 0x5814, symBinAddr: 0x100010DA8, symSize: 0x40 }
  - { offset: 0x324F4, size: 0x8, addend: 0x0, symName: __ZNSt3__119__allocate_at_leastB8ne180100INS_9allocatorINS_8optionalIjEEEEEENS_19__allocation_resultINS_16allocator_traitsIT_E7pointerEEERS7_m, symObjAddr: 0x5C00, symBinAddr: 0x100011194, symSize: 0x40 }
  - { offset: 0x32537, size: 0x8, addend: 0x0, symName: __ZNSt3__112__to_addressB8ne180100INS_8optionalIjEEEEPT_S4_, symObjAddr: 0x5E6C, symBinAddr: 0x100011400, symSize: 0x14 }
  - { offset: 0x32BDB, size: 0x8, addend: 0x0, symName: '__ZNSt3__116forward_as_tupleB8ne180100IJZN5Table17materializeColumnEtE3$_0EEENS_5tupleIJDpOT_EEES6_', symObjAddr: 0x7B78, symBinAddr: 0x1000122B0, symSize: 0x2C }
  - { offset: 0x32C15, size: 0x8, addend: 0x0, symName: '__ZNSt3__116forward_as_tupleB8ne180100IJNS_9allocatorIZN5Table17materializeColumnEtE3$_0EEEEENS_5tupleIJDpOT_EEES8_', symObjAddr: 0x7BA4, symBinAddr: 0x1000122DC, symSize: 0x2C }
  - { offset: 0x32C94, size: 0x8, addend: 0x0, symName: '__ZNSt3__13getB8ne180100ILm0EJOZN5Table17materializeColumnEtE3$_0EEERNS_13tuple_elementIXT_ENS_5tupleIJDpT0_EEEE4typeERS8_', symObjAddr: 0x7EC4, symBinAddr: 0x1000125FC, symSize: 0x24 }
  - { offset: 0x32CD8, size: 0x8, addend: 0x0, symName: '__ZNSt3__13getB8ne180100ILm0EJONS_9allocatorIZN5Table17materializeColumnEtE3$_0EEEEERNS_13tuple_elementIXT_ENS_5tupleIJDpT0_EEEE4typeERSA_', symObjAddr: 0x7F00, symBinAddr: 0x100012638, symSize: 0x24 }
  - { offset: 0x32EAE, size: 0x8, addend: 0x0, symName: '__ZNSt3__116forward_as_tupleB8ne180100IJRKZN5Table17materializeColumnEtE3$_0EEENS_5tupleIJDpOT_EEES8_', symObjAddr: 0x82F4, symBinAddr: 0x100012A2C, symSize: 0x2C }
  - { offset: 0x32EFD, size: 0x8, addend: 0x0, symName: '__ZNSt3__13getB8ne180100ILm0EJRKZN5Table17materializeColumnEtE3$_0EEERNS_13tuple_elementIXT_ENS_5tupleIJDpT0_EEEE4typeERS9_', symObjAddr: 0x84EC, symBinAddr: 0x100012C24, symSize: 0x24 }
  - { offset: 0x32F41, size: 0x8, addend: 0x0, symName: '__ZNSt3__116forward_as_tupleB8ne180100IJRKNS_9allocatorIZN5Table17materializeColumnEtE3$_0EEEEENS_5tupleIJDpOT_EEESA_', symObjAddr: 0x8840, symBinAddr: 0x100012F78, symSize: 0x2C }
  - { offset: 0x32F90, size: 0x8, addend: 0x0, symName: '__ZNSt3__13getB8ne180100ILm0EJRKNS_9allocatorIZN5Table17materializeColumnEtE3$_0EEEEERNS_13tuple_elementIXT_ENS_5tupleIJDpT0_EEEE4typeERSB_', symObjAddr: 0x8A24, symBinAddr: 0x10001315C, symSize: 0x24 }
  - { offset: 0x330B3, size: 0x8, addend: 0x0, symName: '__ZNSt3__18__invokeB8ne180100IRZN5Table17materializeColumnEtE3$_0JjRKNS_6vectorIjNS_9allocatorIjEEEEEEEDTclclsr3stdE7declvalIT_EEspclsr3stdE7declvalIT0_EEEEOSA_DpOSB_', symObjAddr: 0x8B00, symBinAddr: 0x100013238, symSize: 0x38 }
  - { offset: 0x33778, size: 0x8, addend: 0x0, symName: '__ZNSt3__116forward_as_tupleB8ne180100IJZN5Table10scanEqualsEtjE3$_0EEENS_5tupleIJDpOT_EEES6_', symObjAddr: 0x9BF4, symBinAddr: 0x100014278, symSize: 0x2C }
  - { offset: 0x337B2, size: 0x8, addend: 0x0, symName: '__ZNSt3__116forward_as_tupleB8ne180100IJNS_9allocatorIZN5Table10scanEqualsEtjE3$_0EEEEENS_5tupleIJDpOT_EEES8_', symObjAddr: 0x9C20, symBinAddr: 0x1000142A4, symSize: 0x2C }
  - { offset: 0x33816, size: 0x8, addend: 0x0, symName: '__ZNSt3__13getB8ne180100ILm0EJOZN5Table10scanEqualsEtjE3$_0EEERNS_13tuple_elementIXT_ENS_5tupleIJDpT0_EEEE4typeERS8_', symObjAddr: 0x9F40, symBinAddr: 0x1000145C4, symSize: 0x24 }
  - { offset: 0x3385A, size: 0x8, addend: 0x0, symName: '__ZNSt3__13getB8ne180100ILm0EJONS_9allocatorIZN5Table10scanEqualsEtjE3$_0EEEEERNS_13tuple_elementIXT_ENS_5tupleIJDpT0_EEEE4typeERSA_', symObjAddr: 0x9F7C, symBinAddr: 0x100014600, symSize: 0x24 }
  - { offset: 0x33A30, size: 0x8, addend: 0x0, symName: '__ZNSt3__116forward_as_tupleB8ne180100IJRKZN5Table10scanEqualsEtjE3$_0EEENS_5tupleIJDpOT_EEES8_', symObjAddr: 0xA370, symBinAddr: 0x1000149F4, symSize: 0x2C }
  - { offset: 0x33A7F, size: 0x8, addend: 0x0, symName: '__ZNSt3__13getB8ne180100ILm0EJRKZN5Table10scanEqualsEtjE3$_0EEERNS_13tuple_elementIXT_ENS_5tupleIJDpT0_EEEE4typeERS9_', symObjAddr: 0xA568, symBinAddr: 0x100014BEC, symSize: 0x24 }
  - { offset: 0x33AC3, size: 0x8, addend: 0x0, symName: '__ZNSt3__116forward_as_tupleB8ne180100IJRKNS_9allocatorIZN5Table10scanEqualsEtjE3$_0EEEEENS_5tupleIJDpOT_EEESA_', symObjAddr: 0xA8C0, symBinAddr: 0x100014F44, symSize: 0x2C }
  - { offset: 0x33B12, size: 0x8, addend: 0x0, symName: '__ZNSt3__13getB8ne180100ILm0EJRKNS_9allocatorIZN5Table10scanEqualsEtjE3$_0EEEEERNS_13tuple_elementIXT_ENS_5tupleIJDpT0_EEEE4typeERSB_', symObjAddr: 0xAAA4, symBinAddr: 0x100015128, symSize: 0x24 }
  - { offset: 0x33B56, size: 0x8, addend: 0x0, symName: '__ZNSt3__18__invokeB8ne180100IRZN5Table10scanEqualsEtjE3$_0JjRKNS_6vectorIjNS_9allocatorIjEEEEEEEDTclclsr3stdE7declvalIT_EEspclsr3stdE7declvalIT0_EEEEOSA_DpOSB_', symObjAddr: 0xAB80, symBinAddr: 0x100015204, symSize: 0x38 }
  - { offset: 0x3421B, size: 0x8, addend: 0x0, symName: '__ZNSt3__116forward_as_tupleB8ne180100IJZN5Table9sumColumnEtE3$_0EEENS_5tupleIJDpOT_EEES6_', symObjAddr: 0xB75C, symBinAddr: 0x100015DE0, symSize: 0x2C }
  - { offset: 0x34255, size: 0x8, addend: 0x0, symName: '__ZNSt3__116forward_as_tupleB8ne180100IJNS_9allocatorIZN5Table9sumColumnEtE3$_0EEEEENS_5tupleIJDpOT_EEES8_', symObjAddr: 0xB788, symBinAddr: 0x100015E0C, symSize: 0x2C }
  - { offset: 0x342B9, size: 0x8, addend: 0x0, symName: '__ZNSt3__13getB8ne180100ILm0EJOZN5Table9sumColumnEtE3$_0EEERNS_13tuple_elementIXT_ENS_5tupleIJDpT0_EEEE4typeERS8_', symObjAddr: 0xBAA8, symBinAddr: 0x10001612C, symSize: 0x24 }
  - { offset: 0x342FD, size: 0x8, addend: 0x0, symName: '__ZNSt3__13getB8ne180100ILm0EJONS_9allocatorIZN5Table9sumColumnEtE3$_0EEEEERNS_13tuple_elementIXT_ENS_5tupleIJDpT0_EEEE4typeERSA_', symObjAddr: 0xBAE4, symBinAddr: 0x100016168, symSize: 0x24 }
  - { offset: 0x344D3, size: 0x8, addend: 0x0, symName: '__ZNSt3__116forward_as_tupleB8ne180100IJRKZN5Table9sumColumnEtE3$_0EEENS_5tupleIJDpOT_EEES8_', symObjAddr: 0xBED8, symBinAddr: 0x10001655C, symSize: 0x2C }
  - { offset: 0x34522, size: 0x8, addend: 0x0, symName: '__ZNSt3__13getB8ne180100ILm0EJRKZN5Table9sumColumnEtE3$_0EEERNS_13tuple_elementIXT_ENS_5tupleIJDpT0_EEEE4typeERS9_', symObjAddr: 0xC0D0, symBinAddr: 0x100016754, symSize: 0x24 }
  - { offset: 0x34566, size: 0x8, addend: 0x0, symName: '__ZNSt3__116forward_as_tupleB8ne180100IJRKNS_9allocatorIZN5Table9sumColumnEtE3$_0EEEEENS_5tupleIJDpOT_EEESA_', symObjAddr: 0xC424, symBinAddr: 0x100016AA8, symSize: 0x2C }
  - { offset: 0x345B5, size: 0x8, addend: 0x0, symName: '__ZNSt3__13getB8ne180100ILm0EJRKNS_9allocatorIZN5Table9sumColumnEtE3$_0EEEEERNS_13tuple_elementIXT_ENS_5tupleIJDpT0_EEEE4typeERSB_', symObjAddr: 0xC608, symBinAddr: 0x100016C8C, symSize: 0x24 }
  - { offset: 0x345F9, size: 0x8, addend: 0x0, symName: '__ZNSt3__18__invokeB8ne180100IRZN5Table9sumColumnEtE3$_0JjRKNS_6vectorIjNS_9allocatorIjEEEEEEEDTclclsr3stdE7declvalIT_EEspclsr3stdE7declvalIT0_EEEEOSA_DpOSB_', symObjAddr: 0xC6E4, symBinAddr: 0x100016D68, symSize: 0x38 }
  - { offset: 0x34CBE, size: 0x8, addend: 0x0, symName: '__ZNSt3__116forward_as_tupleB8ne180100IJZN5Table27materializeColumnWithRowIDsEtE3$_0EEENS_5tupleIJDpOT_EEES6_', symObjAddr: 0xD284, symBinAddr: 0x100017908, symSize: 0x2C }
  - { offset: 0x34CF8, size: 0x8, addend: 0x0, symName: '__ZNSt3__116forward_as_tupleB8ne180100IJNS_9allocatorIZN5Table27materializeColumnWithRowIDsEtE3$_0EEEEENS_5tupleIJDpOT_EEES8_', symObjAddr: 0xD2B0, symBinAddr: 0x100017934, symSize: 0x2C }
  - { offset: 0x34D5C, size: 0x8, addend: 0x0, symName: '__ZNSt3__13getB8ne180100ILm0EJOZN5Table27materializeColumnWithRowIDsEtE3$_0EEERNS_13tuple_elementIXT_ENS_5tupleIJDpT0_EEEE4typeERS8_', symObjAddr: 0xD5D0, symBinAddr: 0x100017C54, symSize: 0x24 }
  - { offset: 0x34DA0, size: 0x8, addend: 0x0, symName: '__ZNSt3__13getB8ne180100ILm0EJONS_9allocatorIZN5Table27materializeColumnWithRowIDsEtE3$_0EEEEERNS_13tuple_elementIXT_ENS_5tupleIJDpT0_EEEE4typeERSA_', symObjAddr: 0xD60C, symBinAddr: 0x100017C90, symSize: 0x24 }
  - { offset: 0x34F76, size: 0x8, addend: 0x0, symName: '__ZNSt3__116forward_as_tupleB8ne180100IJRKZN5Table27materializeColumnWithRowIDsEtE3$_0EEENS_5tupleIJDpOT_EEES8_', symObjAddr: 0xDA00, symBinAddr: 0x100018084, symSize: 0x2C }
  - { offset: 0x34FC5, size: 0x8, addend: 0x0, symName: '__ZNSt3__13getB8ne180100ILm0EJRKZN5Table27materializeColumnWithRowIDsEtE3$_0EEERNS_13tuple_elementIXT_ENS_5tupleIJDpT0_EEEE4typeERS9_', symObjAddr: 0xDBF8, symBinAddr: 0x10001827C, symSize: 0x24 }
  - { offset: 0x35009, size: 0x8, addend: 0x0, symName: '__ZNSt3__116forward_as_tupleB8ne180100IJRKNS_9allocatorIZN5Table27materializeColumnWithRowIDsEtE3$_0EEEEENS_5tupleIJDpOT_EEESA_', symObjAddr: 0xDF4C, symBinAddr: 0x1000185D0, symSize: 0x2C }
  - { offset: 0x35058, size: 0x8, addend: 0x0, symName: '__ZNSt3__13getB8ne180100ILm0EJRKNS_9allocatorIZN5Table27materializeColumnWithRowIDsEtE3$_0EEEEERNS_13tuple_elementIXT_ENS_5tupleIJDpT0_EEEE4typeERSB_', symObjAddr: 0xE130, symBinAddr: 0x1000187B4, symSize: 0x24 }
  - { offset: 0x3509C, size: 0x8, addend: 0x0, symName: '__ZNSt3__18__invokeB8ne180100IRZN5Table27materializeColumnWithRowIDsEtE3$_0JjRKNS_6vectorIjNS_9allocatorIjEEEEEEEDTclclsr3stdE7declvalIT_EEspclsr3stdE7declvalIT0_EEEEOSA_DpOSB_', symObjAddr: 0xE20C, symBinAddr: 0x100018890, symSize: 0x38 }
  - { offset: 0x36AB3, size: 0x8, addend: 0x0, symName: __ZNSt3__16vectorI10ColumnFileNS_9allocatorIS1_EEE26__swap_out_circular_bufferERNS_14__split_bufferIS1_RS3_EE, symObjAddr: 0x4048, symBinAddr: 0x10000F65C, symSize: 0x110 }
  - { offset: 0x36E24, size: 0x8, addend: 0x0, symName: __ZN5Table17materializeColumnEt, symObjAddr: 0xDDC, symBinAddr: 0x10000E1E8, symSize: 0x1A0 }
  - { offset: 0x370CC, size: 0x8, addend: 0x0, symName: __ZN5Table10scanEqualsEtj, symObjAddr: 0x10F0, symBinAddr: 0x10000E4D0, symSize: 0x1AC }
  - { offset: 0x37370, size: 0x8, addend: 0x0, symName: __ZN5Table9sumColumnEt, symObjAddr: 0x12D0, symBinAddr: 0x10000E6B0, symSize: 0x140 }
  - { offset: 0x37600, size: 0x8, addend: 0x0, symName: __ZN5Table27materializeColumnWithRowIDsEt, symObjAddr: 0x1444, symBinAddr: 0x10000E824, symSize: 0x1B4 }
  - { offset: 0x3788A, size: 0x8, addend: 0x0, symName: __ZN5Table12openOrCreateEttb, symObjAddr: 0x0, symBinAddr: 0x10000D558, symSize: 0x1B0 }
  - { offset: 0x37901, size: 0x8, addend: 0x0, symName: __ZN10MasterPageaSEOS_, symObjAddr: 0x1D4, symBinAddr: 0x10000D708, symSize: 0x48 }
  - { offset: 0x37930, size: 0x8, addend: 0x0, symName: __ZNSt3__16vectorI10ColumnFileNS_9allocatorIS1_EEE5clearB8ne180100Ev, symObjAddr: 0x248, symBinAddr: 0x10000D750, symSize: 0x44 }
  - { offset: 0x37963, size: 0x8, addend: 0x0, symName: __ZNSt3__16vectorI10ColumnFileNS_9allocatorIS1_EEE7reserveEm, symObjAddr: 0x28C, symBinAddr: 0x10000D794, symSize: 0xE8 }
  - { offset: 0x379C2, size: 0x8, addend: 0x0, symName: __ZNSt3__16vectorI10ColumnFileNS_9allocatorIS1_EEE12emplace_backIJRNS_12basic_stringIcNS_11char_traitsIcEENS2_IcEEEER10MasterPageRtEEERS1_DpOT_, symObjAddr: 0x374, symBinAddr: 0x10000D87C, symSize: 0xB0 }
  - { offset: 0x37A43, size: 0x8, addend: 0x0, symName: __ZN8RowIndexaSEOS_, symObjAddr: 0x424, symBinAddr: 0x10000D92C, symSize: 0x60 }
  - { offset: 0x37A72, size: 0x8, addend: 0x0, symName: __ZN8RowIndexD1Ev, symObjAddr: 0x484, symBinAddr: 0x10000D98C, symSize: 0x2C }
  - { offset: 0x37A9C, size: 0x8, addend: 0x0, symName: __ZN5TableC2ERKNSt3__112basic_stringIcNS0_11char_traitsIcEENS0_9allocatorIcEEEEtt, symObjAddr: 0x4B0, symBinAddr: 0x10000D9B8, symSize: 0xE8 }
  - { offset: 0x37AF0, size: 0x8, addend: 0x0, symName: __ZNSt3__16vectorI10ColumnFileNS_9allocatorIS1_EEEC1B8ne180100Ev, symObjAddr: 0x5C4, symBinAddr: 0x10000DAA0, symSize: 0x2C }
  - { offset: 0x37B18, size: 0x8, addend: 0x0, symName: __ZNSt3__16vectorI10ColumnFileNS_9allocatorIS1_EEED1B8ne180100Ev, symObjAddr: 0x5F0, symBinAddr: 0x10000DACC, symSize: 0x2C }
  - { offset: 0x37B40, size: 0x8, addend: 0x0, symName: __ZN5TableC1ERKNSt3__112basic_stringIcNS0_11char_traitsIcEENS0_9allocatorIcEEEEtt, symObjAddr: 0x61C, symBinAddr: 0x10000DAF8, symSize: 0x44 }
  - { offset: 0x37B94, size: 0x8, addend: 0x0, symName: __ZN5TableC2ERKNSt3__112basic_stringIcNS0_11char_traitsIcEENS0_9allocatorIcEEEE, symObjAddr: 0x660, symBinAddr: 0x10000DB3C, symSize: 0xE0 }
  - { offset: 0x37BCC, size: 0x8, addend: 0x0, symName: __ZN5TableC1ERKNSt3__112basic_stringIcNS0_11char_traitsIcEENS0_9allocatorIcEEEE, symObjAddr: 0x740, symBinAddr: 0x10000DC1C, symSize: 0x34 }
  - { offset: 0x37C04, size: 0x8, addend: 0x0, symName: __ZN5Table9insertRowERKNSt3__16vectorIjNS0_9allocatorIjEEEE, symObjAddr: 0x774, symBinAddr: 0x10000DC50, symSize: 0x170 }
  - { offset: 0x37C70, size: 0x8, addend: 0x0, symName: __ZNKSt3__16vectorI10ColumnFileNS_9allocatorIS1_EEE4sizeB8ne180100Ev, symObjAddr: 0x90C, symBinAddr: 0x10000DDC0, symSize: 0x28 }
  - { offset: 0x37C95, size: 0x8, addend: 0x0, symName: __ZNSt3__16vectorI10ColumnFileNS_9allocatorIS1_EEEixB8ne180100Em, symObjAddr: 0x968, symBinAddr: 0x10000DDE8, symSize: 0x2C }
  - { offset: 0x37CCA, size: 0x8, addend: 0x0, symName: __ZN5Table8fetchRowEj, symObjAddr: 0xA08, symBinAddr: 0x10000DE14, symSize: 0x1B8 }
  - { offset: 0x37D45, size: 0x8, addend: 0x0, symName: __ZNSt3__16vectorINS_8optionalIjEENS_9allocatorIS2_EEEC1Em, symObjAddr: 0xBC0, symBinAddr: 0x10000DFCC, symSize: 0x34 }
  - { offset: 0x37D7E, size: 0x8, addend: 0x0, symName: __ZNKSt3__18optionalINS_6vectorIjNS_9allocatorIjEEEEEcvbB8ne180100Ev, symObjAddr: 0xBF4, symBinAddr: 0x10000E000, symSize: 0x28 }
  - { offset: 0x37DA2, size: 0x8, addend: 0x0, symName: __ZNRSt3__18optionalINS_6vectorIjNS_9allocatorIjEEEEEdeB8ne180100Ev, symObjAddr: 0xC1C, symBinAddr: 0x10000E028, symSize: 0x24 }
  - { offset: 0x37DC7, size: 0x8, addend: 0x0, symName: __ZNSt3__16vectorINS_8optionalIjEENS_9allocatorIS2_EEEixB8ne180100Em, symObjAddr: 0xC40, symBinAddr: 0x10000E04C, symSize: 0x24 }
  - { offset: 0x37DFC, size: 0x8, addend: 0x0, symName: __ZNSt3__16vectorINS_8optionalIjEENS_9allocatorIS2_EEED1B8ne180100Ev, symObjAddr: 0xC64, symBinAddr: 0x10000E070, symSize: 0x2C }
  - { offset: 0x37E25, size: 0x8, addend: 0x0, symName: __ZNSt3__18optionalINS_6vectorIjNS_9allocatorIjEEEEED1Ev, symObjAddr: 0xC90, symBinAddr: 0x10000E09C, symSize: 0x2C }
  - { offset: 0x37E50, size: 0x8, addend: 0x0, symName: __ZN5Table9deleteRowEj, symObjAddr: 0xCBC, symBinAddr: 0x10000E0C8, symSize: 0x120 }
  - { offset: 0x37EBD, size: 0x8, addend: 0x0, symName: __ZNSt3__16vectorIjNS_9allocatorIjEEE7reserveEm, symObjAddr: 0xFA8, symBinAddr: 0x10000E388, symSize: 0xE8 }
  - { offset: 0x37F17, size: 0x8, addend: 0x0, symName: '__ZNSt3__18functionIFvjRKNS_6vectorIjNS_9allocatorIjEEEEEEC1IZN5Table17materializeColumnEtE3$_0vEET_', symObjAddr: 0x1090, symBinAddr: 0x10000E470, symSize: 0x34 }
  - { offset: 0x37F5B, size: 0x8, addend: 0x0, symName: __ZNSt3__18functionIFvjRKNS_6vectorIjNS_9allocatorIjEEEEEED1Ev, symObjAddr: 0x10C4, symBinAddr: 0x10000E4A4, symSize: 0x2C }
  - { offset: 0x37F85, size: 0x8, addend: 0x0, symName: '__ZNSt3__18functionIFvjRKNS_6vectorIjNS_9allocatorIjEEEEEEC1IZN5Table10scanEqualsEtjE3$_0vEET_', symObjAddr: 0x129C, symBinAddr: 0x10000E67C, symSize: 0x34 }
  - { offset: 0x37FC9, size: 0x8, addend: 0x0, symName: '__ZNSt3__18functionIFvjRKNS_6vectorIjNS_9allocatorIjEEEEEEC1IZN5Table9sumColumnEtE3$_0vEET_', symObjAddr: 0x1410, symBinAddr: 0x10000E7F0, symSize: 0x34 }
  - { offset: 0x38012, size: 0x8, addend: 0x0, symName: __ZN5Table12MaterializedC1Ev, symObjAddr: 0x15F8, symBinAddr: 0x10000E9D8, symSize: 0x2C }
  - { offset: 0x3803C, size: 0x8, addend: 0x0, symName: '__ZNSt3__18functionIFvjRKNS_6vectorIjNS_9allocatorIjEEEEEEC1IZN5Table27materializeColumnWithRowIDsEtE3$_0vEET_', symObjAddr: 0x1624, symBinAddr: 0x10000EA04, symSize: 0x34 }
  - { offset: 0x38080, size: 0x8, addend: 0x0, symName: __ZN5Table12MaterializedD1Ev, symObjAddr: 0x1658, symBinAddr: 0x10000EA38, symSize: 0x2C }
  - { offset: 0x380AA, size: 0x8, addend: 0x0, symName: __ZNSt3__16vectorItNS_9allocatorItEEEaSB8ne180100EOS3_, symObjAddr: 0x1684, symBinAddr: 0x10000EA64, symSize: 0x34 }
  - { offset: 0x380DF, size: 0x8, addend: 0x0, symName: __ZNSt3__16vectorItNS_9allocatorItEEE13__move_assignERS3_NS_17integral_constantIbLb1EEE, symObjAddr: 0x16B8, symBinAddr: 0x10000EA98, symSize: 0x94 }
  - { offset: 0x3811F, size: 0x8, addend: 0x0, symName: __ZNSt3__16vectorItNS_9allocatorItEEE19__move_assign_allocB8ne180100ERS3_, symObjAddr: 0x17E0, symBinAddr: 0x10000EB2C, symSize: 0x2C }
  - { offset: 0x38152, size: 0x8, addend: 0x0, symName: __ZNSt3__16vectorItNS_9allocatorItEEE19__move_assign_allocB8ne180100ERS3_NS_17integral_constantIbLb1EEE, symObjAddr: 0x1C78, symBinAddr: 0x10000EB58, symSize: 0x38 }
  - { offset: 0x38190, size: 0x8, addend: 0x0, symName: __ZNSt3__112basic_stringIcNS_11char_traitsIcEENS_9allocatorIcEEEaSB8ne180100EOS5_, symObjAddr: 0x1E6C, symBinAddr: 0x10000EB90, symSize: 0x34 }
  - { offset: 0x381C3, size: 0x8, addend: 0x0, symName: __ZNSt3__16vectorIN8RowIndex5EntryENS_9allocatorIS2_EEEaSB8ne180100EOS5_, symObjAddr: 0x1EA0, symBinAddr: 0x10000EBC4, symSize: 0x34 }
  - { offset: 0x381F8, size: 0x8, addend: 0x0, symName: __ZNSt3__112basic_stringIcNS_11char_traitsIcEENS_9allocatorIcEEE13__move_assignB8ne180100ERS5_NS_17integral_constantIbLb1EEE, symObjAddr: 0x1ED4, symBinAddr: 0x10000EBF8, symSize: 0x17C }
  - { offset: 0x38256, size: 0x8, addend: 0x0, symName: __ZNKSt3__112basic_stringIcNS_11char_traitsIcEENS_9allocatorIcEEE17__annotate_deleteB8ne180100Ev, symObjAddr: 0x2050, symBinAddr: 0x10000ED74, symSize: 0x10 }
  - { offset: 0x3827A, size: 0x8, addend: 0x0, symName: __ZNSt3__116allocator_traitsINS_9allocatorIcEEE10deallocateB8ne180100ERS2_Pcm, symObjAddr: 0x2098, symBinAddr: 0x10000ED84, symSize: 0x34 }
  - { offset: 0x382BB, size: 0x8, addend: 0x0, symName: __ZNKSt3__112basic_stringIcNS_11char_traitsIcEENS_9allocatorIcEEE14__get_long_capB8ne180100Ev, symObjAddr: 0x2118, symBinAddr: 0x10000EDB8, symSize: 0x30 }
  - { offset: 0x382DF, size: 0x8, addend: 0x0, symName: __ZNSt3__112basic_stringIcNS_11char_traitsIcEENS_9allocatorIcEEE19__move_assign_allocB8ne180100ERS5_, symObjAddr: 0x219C, symBinAddr: 0x10000EDE8, symSize: 0x2C }
  - { offset: 0x38312, size: 0x8, addend: 0x0, symName: __ZNSt3__111char_traitsIcE6assignB8ne180100ERcRKc, symObjAddr: 0x2264, symBinAddr: 0x10000EE14, symSize: 0x24 }
  - { offset: 0x38342, size: 0x8, addend: 0x0, symName: __ZNKSt3__112basic_stringIcNS_11char_traitsIcEENS_9allocatorIcEEE17__annotate_shrinkB8ne180100Em, symObjAddr: 0x22B0, symBinAddr: 0x10000EE38, symSize: 0x14 }
  - { offset: 0x38375, size: 0x8, addend: 0x0, symName: __ZNSt3__19allocatorIcE10deallocateB8ne180100EPcm, symObjAddr: 0x2344, symBinAddr: 0x10000EE4C, symSize: 0x40 }
  - { offset: 0x383B5, size: 0x8, addend: 0x0, symName: __ZNSt3__112basic_stringIcNS_11char_traitsIcEENS_9allocatorIcEEE19__move_assign_allocB8ne180100ERS5_NS_17integral_constantIbLb1EEE, symObjAddr: 0x23E4, symBinAddr: 0x10000EE8C, symSize: 0x38 }
  - { offset: 0x383F3, size: 0x8, addend: 0x0, symName: __ZNSt3__16vectorIN8RowIndex5EntryENS_9allocatorIS2_EEE13__move_assignERS5_NS_17integral_constantIbLb1EEE, symObjAddr: 0x2444, symBinAddr: 0x10000EEC4, symSize: 0x94 }
  - { offset: 0x38433, size: 0x8, addend: 0x0, symName: __ZNSt3__16vectorIN8RowIndex5EntryENS_9allocatorIS2_EEE13__vdeallocateEv, symObjAddr: 0x24D8, symBinAddr: 0x10000EF58, symSize: 0x94 }
  - { offset: 0x38459, size: 0x8, addend: 0x0, symName: __ZNSt3__16vectorIN8RowIndex5EntryENS_9allocatorIS2_EEE19__move_assign_allocB8ne180100ERS5_, symObjAddr: 0x256C, symBinAddr: 0x10000EFEC, symSize: 0x2C }
  - { offset: 0x38491, size: 0x8, addend: 0x0, symName: __ZNSt3__16vectorIN8RowIndex5EntryENS_9allocatorIS2_EEE19__move_assign_allocB8ne180100ERS5_NS_17integral_constantIbLb1EEE, symObjAddr: 0x293C, symBinAddr: 0x10000F018, symSize: 0x38 }
  - { offset: 0x384CF, size: 0x8, addend: 0x0, symName: __ZN8RowIndexD2Ev, symObjAddr: 0x29AC, symBinAddr: 0x10000F050, symSize: 0x38 }
  - { offset: 0x384F9, size: 0x8, addend: 0x0, symName: __ZNSt3__16vectorIN8RowIndex5EntryENS_9allocatorIS2_EEED1B8ne180100Ev, symObjAddr: 0x29E4, symBinAddr: 0x10000F088, symSize: 0x2C }
  - { offset: 0x38521, size: 0x8, addend: 0x0, symName: __ZNSt3__16vectorIN8RowIndex5EntryENS_9allocatorIS2_EEED2B8ne180100Ev, symObjAddr: 0x2A10, symBinAddr: 0x10000F0B4, symSize: 0x44 }
  - { offset: 0x38549, size: 0x8, addend: 0x0, symName: __ZNSt3__16vectorIN8RowIndex5EntryENS_9allocatorIS2_EEE16__destroy_vectorC1B8ne180100ERS5_, symObjAddr: 0x2A54, symBinAddr: 0x10000F0F8, symSize: 0x34 }
  - { offset: 0x38580, size: 0x8, addend: 0x0, symName: __ZNSt3__16vectorIN8RowIndex5EntryENS_9allocatorIS2_EEE16__destroy_vectorclB8ne180100Ev, symObjAddr: 0x2A88, symBinAddr: 0x10000F12C, symSize: 0x90 }
  - { offset: 0x385A4, size: 0x8, addend: 0x0, symName: __ZNSt3__16vectorIN8RowIndex5EntryENS_9allocatorIS2_EEE16__destroy_vectorC2B8ne180100ERS5_, symObjAddr: 0x2B18, symBinAddr: 0x10000F1BC, symSize: 0x20 }
  - { offset: 0x385E5, size: 0x8, addend: 0x0, symName: __ZNKSt3__123__optional_storage_baseINS_6vectorIjNS_9allocatorIjEEEELb0EE9has_valueB8ne180100Ev, symObjAddr: 0x2CE4, symBinAddr: 0x10000F1DC, symSize: 0x1C }
  - { offset: 0x38609, size: 0x8, addend: 0x0, symName: __ZNRSt3__123__optional_storage_baseINS_6vectorIjNS_9allocatorIjEEEELb0EE5__getB8ne180100Ev, symObjAddr: 0x2D00, symBinAddr: 0x10000F1F8, symSize: 0x14 }
  - { offset: 0x3862E, size: 0x8, addend: 0x0, symName: __ZNSt3__18optionalINS_6vectorIjNS_9allocatorIjEEEEED2Ev, symObjAddr: 0x2D14, symBinAddr: 0x10000F20C, symSize: 0x2C }
  - { offset: 0x3865A, size: 0x8, addend: 0x0, symName: __ZNSt3__127__optional_move_assign_baseINS_6vectorIjNS_9allocatorIjEEEELb0EED2Ev, symObjAddr: 0x2D40, symBinAddr: 0x10000F238, symSize: 0x2C }
  - { offset: 0x38686, size: 0x8, addend: 0x0, symName: __ZNSt3__127__optional_copy_assign_baseINS_6vectorIjNS_9allocatorIjEEEELb0EED2Ev, symObjAddr: 0x2D6C, symBinAddr: 0x10000F264, symSize: 0x2C }
  - { offset: 0x386B2, size: 0x8, addend: 0x0, symName: __ZNSt3__120__optional_move_baseINS_6vectorIjNS_9allocatorIjEEEELb0EED2Ev, symObjAddr: 0x2D98, symBinAddr: 0x10000F290, symSize: 0x2C }
  - { offset: 0x386DE, size: 0x8, addend: 0x0, symName: __ZNSt3__120__optional_copy_baseINS_6vectorIjNS_9allocatorIjEEEELb0EED2Ev, symObjAddr: 0x2DC4, symBinAddr: 0x10000F2BC, symSize: 0x2C }
  - { offset: 0x3870A, size: 0x8, addend: 0x0, symName: __ZNSt3__123__optional_storage_baseINS_6vectorIjNS_9allocatorIjEEEELb0EED2Ev, symObjAddr: 0x2DF0, symBinAddr: 0x10000F2E8, symSize: 0x2C }
  - { offset: 0x38735, size: 0x8, addend: 0x0, symName: __ZNSt3__124__optional_destruct_baseINS_6vectorIjNS_9allocatorIjEEEELb0EED2B8ne180100Ev, symObjAddr: 0x2E1C, symBinAddr: 0x10000F314, symSize: 0x48 }
  - { offset: 0x3875D, size: 0x8, addend: 0x0, symName: __ZN5Table12MaterializedC2Ev, symObjAddr: 0x2E64, symBinAddr: 0x10000F35C, symSize: 0x38 }
  - { offset: 0x38787, size: 0x8, addend: 0x0, symName: __ZN5Table12MaterializedD2Ev, symObjAddr: 0x2E9C, symBinAddr: 0x10000F394, symSize: 0x38 }
  - { offset: 0x387D4, size: 0x8, addend: 0x0, symName: __ZNSt3__16vectorI10ColumnFileNS_9allocatorIS1_EEE7__clearB8ne180100Ev, symObjAddr: 0x3DB8, symBinAddr: 0x10000F3CC, symSize: 0x28 }
  - { offset: 0x387F8, size: 0x8, addend: 0x0, symName: __ZNKSt3__16vectorI10ColumnFileNS_9allocatorIS1_EEE17__annotate_shrinkB8ne180100Em, symObjAddr: 0x3DE0, symBinAddr: 0x10000F3F4, symSize: 0x14 }
  - { offset: 0x3882B, size: 0x8, addend: 0x0, symName: __ZNSt3__16vectorI10ColumnFileNS_9allocatorIS1_EEE22__base_destruct_at_endB8ne180100EPS1_, symObjAddr: 0x3DF4, symBinAddr: 0x10000F408, symSize: 0x8C }
  - { offset: 0x3886D, size: 0x8, addend: 0x0, symName: __ZNSt3__116allocator_traitsINS_9allocatorI10ColumnFileEEE7destroyB8ne180100IS2_vEEvRS3_PT_, symObjAddr: 0x3E80, symBinAddr: 0x10000F494, symSize: 0x2C }
  - { offset: 0x388A9, size: 0x8, addend: 0x0, symName: __ZNSt3__16vectorI10ColumnFileNS_9allocatorIS1_EEE7__allocB8ne180100Ev, symObjAddr: 0x3EAC, symBinAddr: 0x10000F4C0, symSize: 0x28 }
  - { offset: 0x388CD, size: 0x8, addend: 0x0, symName: __ZNSt3__19allocatorI10ColumnFileE7destroyB8ne180100EPS1_, symObjAddr: 0x3EE8, symBinAddr: 0x10000F4FC, symSize: 0x28 }
  - { offset: 0x388FF, size: 0x8, addend: 0x0, symName: __ZNSt3__117__compressed_pairIP10ColumnFileNS_9allocatorIS1_EEE6secondB8ne180100Ev, symObjAddr: 0x3F10, symBinAddr: 0x10000F524, symSize: 0x24 }
  - { offset: 0x38923, size: 0x8, addend: 0x0, symName: __ZNSt3__122__compressed_pair_elemINS_9allocatorI10ColumnFileEELi1ELb1EE5__getB8ne180100Ev, symObjAddr: 0x3F34, symBinAddr: 0x10000F548, symSize: 0x14 }
  - { offset: 0x38947, size: 0x8, addend: 0x0, symName: __ZNKSt3__16vectorI10ColumnFileNS_9allocatorIS1_EEE8capacityB8ne180100Ev, symObjAddr: 0x3F48, symBinAddr: 0x10000F55C, symSize: 0x40 }
  - { offset: 0x3896B, size: 0x8, addend: 0x0, symName: __ZNKSt3__16vectorI10ColumnFileNS_9allocatorIS1_EEE8max_sizeEv, symObjAddr: 0x3F88, symBinAddr: 0x10000F59C, symSize: 0x60 }
  - { offset: 0x38991, size: 0x8, addend: 0x0, symName: __ZNKSt3__16vectorI10ColumnFileNS_9allocatorIS1_EEE20__throw_length_errorB8ne180100Ev, symObjAddr: 0x3FE8, symBinAddr: 0x10000F5FC, symSize: 0x1C }
  - { offset: 0x389B5, size: 0x8, addend: 0x0, symName: __ZNSt3__114__split_bufferI10ColumnFileRNS_9allocatorIS1_EEEC1EmmS4_, symObjAddr: 0x4004, symBinAddr: 0x10000F618, symSize: 0x44 }
  - { offset: 0x38A09, size: 0x8, addend: 0x0, symName: __ZNSt3__114__split_bufferI10ColumnFileRNS_9allocatorIS1_EEED1Ev, symObjAddr: 0x4158, symBinAddr: 0x10000F76C, symSize: 0x2C }
  - { offset: 0x38A33, size: 0x8, addend: 0x0, symName: __ZNKSt3__16vectorI10ColumnFileNS_9allocatorIS1_EEE9__end_capB8ne180100Ev, symObjAddr: 0x4184, symBinAddr: 0x10000F798, symSize: 0x28 }
  - { offset: 0x38A57, size: 0x8, addend: 0x0, symName: __ZNKSt3__117__compressed_pairIP10ColumnFileNS_9allocatorIS1_EEE5firstB8ne180100Ev, symObjAddr: 0x41AC, symBinAddr: 0x10000F7C0, symSize: 0x24 }
  - { offset: 0x38A7B, size: 0x8, addend: 0x0, symName: __ZNKSt3__122__compressed_pair_elemIP10ColumnFileLi0ELb0EE5__getB8ne180100Ev, symObjAddr: 0x41D0, symBinAddr: 0x10000F7E4, symSize: 0x14 }
  - { offset: 0x38AA9, size: 0x8, addend: 0x0, symName: __ZNSt3__116allocator_traitsINS_9allocatorI10ColumnFileEEE8max_sizeB8ne180100IS3_vEEmRKS3_, symObjAddr: 0x41E4, symBinAddr: 0x10000F7F8, symSize: 0x24 }
  - { offset: 0x38AD6, size: 0x8, addend: 0x0, symName: __ZNKSt3__16vectorI10ColumnFileNS_9allocatorIS1_EEE7__allocB8ne180100Ev, symObjAddr: 0x4208, symBinAddr: 0x10000F81C, symSize: 0x28 }
  - { offset: 0x38AFA, size: 0x8, addend: 0x0, symName: __ZNKSt3__19allocatorI10ColumnFileE8max_sizeB8ne180100Ev, symObjAddr: 0x4230, symBinAddr: 0x10000F844, symSize: 0x18 }
  - { offset: 0x38B1E, size: 0x8, addend: 0x0, symName: __ZNKSt3__117__compressed_pairIP10ColumnFileNS_9allocatorIS1_EEE6secondB8ne180100Ev, symObjAddr: 0x4248, symBinAddr: 0x10000F85C, symSize: 0x24 }
  - { offset: 0x38B42, size: 0x8, addend: 0x0, symName: __ZNKSt3__122__compressed_pair_elemINS_9allocatorI10ColumnFileEELi1ELb1EE5__getB8ne180100Ev, symObjAddr: 0x426C, symBinAddr: 0x10000F880, symSize: 0x14 }
  - { offset: 0x38B66, size: 0x8, addend: 0x0, symName: __ZNSt3__114__split_bufferI10ColumnFileRNS_9allocatorIS1_EEEC2EmmS4_, symObjAddr: 0x4280, symBinAddr: 0x10000F894, symSize: 0xE0 }
  - { offset: 0x38BD7, size: 0x8, addend: 0x0, symName: __ZNSt3__117__compressed_pairIP10ColumnFileRNS_9allocatorIS1_EEEC1B8ne180100IDnS5_EEOT_OT0_, symObjAddr: 0x4360, symBinAddr: 0x10000F974, symSize: 0x3C }
  - { offset: 0x38C2D, size: 0x8, addend: 0x0, symName: __ZNSt3__114__split_bufferI10ColumnFileRNS_9allocatorIS1_EEE7__allocB8ne180100Ev, symObjAddr: 0x43DC, symBinAddr: 0x10000F9F0, symSize: 0x28 }
  - { offset: 0x38C51, size: 0x8, addend: 0x0, symName: __ZNSt3__114__split_bufferI10ColumnFileRNS_9allocatorIS1_EEE9__end_capB8ne180100Ev, symObjAddr: 0x4404, symBinAddr: 0x10000FA18, symSize: 0x28 }
  - { offset: 0x38C75, size: 0x8, addend: 0x0, symName: __ZNSt3__117__compressed_pairIP10ColumnFileRNS_9allocatorIS1_EEEC2B8ne180100IDnS5_EEOT_OT0_, symObjAddr: 0x442C, symBinAddr: 0x10000FA40, symSize: 0x48 }
  - { offset: 0x38CCB, size: 0x8, addend: 0x0, symName: __ZNSt3__122__compressed_pair_elemIP10ColumnFileLi0ELb0EEC2B8ne180100IDnvEEOT_, symObjAddr: 0x4474, symBinAddr: 0x10000FA88, symSize: 0x1C }
  - { offset: 0x38D0B, size: 0x8, addend: 0x0, symName: __ZNSt3__122__compressed_pair_elemIRNS_9allocatorI10ColumnFileEELi1ELb0EEC2B8ne180100IS4_vEEOT_, symObjAddr: 0x4490, symBinAddr: 0x10000FAA4, symSize: 0x20 }
  - { offset: 0x38D4B, size: 0x8, addend: 0x0, symName: __ZNSt3__19allocatorI10ColumnFileE8allocateB8ne180100Em, symObjAddr: 0x44B0, symBinAddr: 0x10000FAC4, symSize: 0x5C }
  - { offset: 0x38D7D, size: 0x8, addend: 0x0, symName: __ZNSt3__117__compressed_pairIP10ColumnFileRNS_9allocatorIS1_EEE6secondB8ne180100Ev, symObjAddr: 0x450C, symBinAddr: 0x10000FB20, symSize: 0x28 }
  - { offset: 0x38DA1, size: 0x8, addend: 0x0, symName: __ZNSt3__122__compressed_pair_elemIRNS_9allocatorI10ColumnFileEELi1ELb0EE5__getB8ne180100Ev, symObjAddr: 0x4534, symBinAddr: 0x10000FB48, symSize: 0x18 }
  - { offset: 0x38DC5, size: 0x8, addend: 0x0, symName: __ZNSt3__117__compressed_pairIP10ColumnFileRNS_9allocatorIS1_EEE5firstB8ne180100Ev, symObjAddr: 0x454C, symBinAddr: 0x10000FB60, symSize: 0x24 }
  - { offset: 0x38DE9, size: 0x8, addend: 0x0, symName: __ZNSt3__122__compressed_pair_elemIP10ColumnFileLi0ELb0EE5__getB8ne180100Ev, symObjAddr: 0x4570, symBinAddr: 0x10000FB84, symSize: 0x14 }
  - { offset: 0x38E0D, size: 0x8, addend: 0x0, symName: __ZNKSt3__16vectorI10ColumnFileNS_9allocatorIS1_EEE17__annotate_deleteB8ne180100Ev, symObjAddr: 0x4584, symBinAddr: 0x10000FB98, symSize: 0x10 }
  - { offset: 0x38E31, size: 0x8, addend: 0x0, symName: __ZNSt3__116reverse_iteratorIP10ColumnFileEC1B8ne180100ES2_, symObjAddr: 0x46C0, symBinAddr: 0x10000FCD4, symSize: 0x34 }
  - { offset: 0x38E67, size: 0x8, addend: 0x0, symName: __ZNKSt3__116reverse_iteratorIP10ColumnFileE4baseB8ne180100Ev, symObjAddr: 0x46F4, symBinAddr: 0x10000FD08, symSize: 0x18 }
  - { offset: 0x38E8B, size: 0x8, addend: 0x0, symName: __ZNSt3__16vectorI10ColumnFileNS_9allocatorIS1_EEE9__end_capB8ne180100Ev, symObjAddr: 0x4748, symBinAddr: 0x10000FD5C, symSize: 0x28 }
  - { offset: 0x38EAF, size: 0x8, addend: 0x0, symName: __ZNKSt3__16vectorI10ColumnFileNS_9allocatorIS1_EEE14__annotate_newB8ne180100Em, symObjAddr: 0x4770, symBinAddr: 0x10000FD84, symSize: 0x14 }
  - { offset: 0x38EE2, size: 0x8, addend: 0x0, symName: __ZNSt3__129_AllocatorDestroyRangeReverseINS_9allocatorI10ColumnFileEENS_16reverse_iteratorIPS2_EEEC1B8ne180100ERS3_RS6_S9_, symObjAddr: 0x47D0, symBinAddr: 0x10000FDE4, symSize: 0x44 }
  - { offset: 0x38F3C, size: 0x8, addend: 0x0, symName: __ZNSt3__116allocator_traitsINS_9allocatorI10ColumnFileEEE9constructB8ne180100IS2_JS2_EvEEvRS3_PT_DpOT0_, symObjAddr: 0x485C, symBinAddr: 0x10000FE70, symSize: 0x34 }
  - { offset: 0x38F92, size: 0x8, addend: 0x0, symName: __ZNKSt3__116reverse_iteratorIP10ColumnFileEdeB8ne180100Ev, symObjAddr: 0x48B4, symBinAddr: 0x10000FEC8, symSize: 0x28 }
  - { offset: 0x38FC4, size: 0x8, addend: 0x0, symName: __ZNSt3__116reverse_iteratorIP10ColumnFileEppB8ne180100Ev, symObjAddr: 0x48DC, symBinAddr: 0x10000FEF0, symSize: 0x20 }
  - { offset: 0x38FE8, size: 0x8, addend: 0x0, symName: __ZNSt3__128__exception_guard_exceptionsINS_29_AllocatorDestroyRangeReverseINS_9allocatorI10ColumnFileEENS_16reverse_iteratorIPS3_EEEEE10__completeB8ne180100Ev, symObjAddr: 0x48FC, symBinAddr: 0x10000FF10, symSize: 0x1C }
  - { offset: 0x3900C, size: 0x8, addend: 0x0, symName: __ZNSt3__128__exception_guard_exceptionsINS_29_AllocatorDestroyRangeReverseINS_9allocatorI10ColumnFileEENS_16reverse_iteratorIPS3_EEEEED1B8ne180100Ev, symObjAddr: 0x4918, symBinAddr: 0x10000FF2C, symSize: 0x2C }
  - { offset: 0x39034, size: 0x8, addend: 0x0, symName: __ZNSt3__128__exception_guard_exceptionsINS_29_AllocatorDestroyRangeReverseINS_9allocatorI10ColumnFileEENS_16reverse_iteratorIPS3_EEEEEC1B8ne180100ES8_, symObjAddr: 0x4944, symBinAddr: 0x10000FF58, symSize: 0x34 }
  - { offset: 0x3906B, size: 0x8, addend: 0x0, symName: __ZNSt3__128__exception_guard_exceptionsINS_29_AllocatorDestroyRangeReverseINS_9allocatorI10ColumnFileEENS_16reverse_iteratorIPS3_EEEEEC2B8ne180100ES8_, symObjAddr: 0x4978, symBinAddr: 0x10000FF8C, symSize: 0x30 }
  - { offset: 0x390A2, size: 0x8, addend: 0x0, symName: __ZNSt3__129_AllocatorDestroyRangeReverseINS_9allocatorI10ColumnFileEENS_16reverse_iteratorIPS2_EEEC2B8ne180100ERS3_RS6_S9_, symObjAddr: 0x49A8, symBinAddr: 0x10000FFBC, symSize: 0x38 }
  - { offset: 0x390F7, size: 0x8, addend: 0x0, symName: __ZNSt3__19allocatorI10ColumnFileE9constructB8ne180100IS1_JS1_EEEvPT_DpOT0_, symObjAddr: 0x49E0, symBinAddr: 0x10000FFF4, symSize: 0x30 }
  - { offset: 0x39150, size: 0x8, addend: 0x0, symName: __ZNSt3__119__to_address_helperINS_16reverse_iteratorIP10ColumnFileEEvE6__callB8ne180100ERKS4_, symObjAddr: 0x4A10, symBinAddr: 0x100010024, symSize: 0x38 }
  - { offset: 0x39172, size: 0x8, addend: 0x0, symName: __ZNKSt3__116reverse_iteratorIP10ColumnFileEptB8ne180100Ev, symObjAddr: 0x4A48, symBinAddr: 0x10001005C, symSize: 0x24 }
  - { offset: 0x39196, size: 0x8, addend: 0x0, symName: __ZNSt3__128__exception_guard_exceptionsINS_29_AllocatorDestroyRangeReverseINS_9allocatorI10ColumnFileEENS_16reverse_iteratorIPS3_EEEEED2B8ne180100Ev, symObjAddr: 0x4A6C, symBinAddr: 0x100010080, symSize: 0x50 }
  - { offset: 0x391BE, size: 0x8, addend: 0x0, symName: __ZNKSt3__129_AllocatorDestroyRangeReverseINS_9allocatorI10ColumnFileEENS_16reverse_iteratorIPS2_EEEclB8ne180100Ev, symObjAddr: 0x4ABC, symBinAddr: 0x1000100D0, symSize: 0xB4 }
  - { offset: 0x391E3, size: 0x8, addend: 0x0, symName: __ZNSt3__116reverse_iteratorINS0_IP10ColumnFileEEEC1B8ne180100ES3_, symObjAddr: 0x4BE0, symBinAddr: 0x1000101F4, symSize: 0x3C }
  - { offset: 0x39219, size: 0x8, addend: 0x0, symName: __ZNSt3__116reverse_iteratorINS0_IP10ColumnFileEEEppB8ne180100Ev, symObjAddr: 0x4CA0, symBinAddr: 0x1000102B4, symSize: 0x30 }
  - { offset: 0x3923D, size: 0x8, addend: 0x0, symName: __ZNKSt3__116reverse_iteratorINS0_IP10ColumnFileEEE4baseB8ne180100Ev, symObjAddr: 0x4CD0, symBinAddr: 0x1000102E4, symSize: 0x24 }
  - { offset: 0x39266, size: 0x8, addend: 0x0, symName: __ZNSt3__119__to_address_helperINS_16reverse_iteratorINS1_IP10ColumnFileEEEEvE6__callB8ne180100ERKS5_, symObjAddr: 0x4CF4, symBinAddr: 0x100010308, symSize: 0x38 }
  - { offset: 0x39288, size: 0x8, addend: 0x0, symName: __ZNKSt3__116reverse_iteratorINS0_IP10ColumnFileEEEptB8ne180100Ev, symObjAddr: 0x4D2C, symBinAddr: 0x100010340, symSize: 0x24 }
  - { offset: 0x392AC, size: 0x8, addend: 0x0, symName: __ZNKSt3__116reverse_iteratorINS0_IP10ColumnFileEEEdeB8ne180100Ev, symObjAddr: 0x4D50, symBinAddr: 0x100010364, symSize: 0x34 }
  - { offset: 0x392DE, size: 0x8, addend: 0x0, symName: __ZNSt3__116reverse_iteratorIP10ColumnFileEmmB8ne180100Ev, symObjAddr: 0x4D84, symBinAddr: 0x100010398, symSize: 0x20 }
  - { offset: 0x39302, size: 0x8, addend: 0x0, symName: __ZNSt3__116reverse_iteratorINS0_IP10ColumnFileEEEC2B8ne180100ES3_, symObjAddr: 0x4DA4, symBinAddr: 0x1000103B8, symSize: 0x2C }
  - { offset: 0x39338, size: 0x8, addend: 0x0, symName: __ZNSt3__116reverse_iteratorIP10ColumnFileEC2B8ne180100ES2_, symObjAddr: 0x4DD0, symBinAddr: 0x1000103E4, symSize: 0x28 }
  - { offset: 0x3936E, size: 0x8, addend: 0x0, symName: __ZNSt3__117__compressed_pairIP10ColumnFileNS_9allocatorIS1_EEE5firstB8ne180100Ev, symObjAddr: 0x4DF8, symBinAddr: 0x10001040C, symSize: 0x24 }
  - { offset: 0x39392, size: 0x8, addend: 0x0, symName: __ZNSt3__114__split_bufferI10ColumnFileRNS_9allocatorIS1_EEED2Ev, symObjAddr: 0x4E1C, symBinAddr: 0x100010430, symSize: 0x8C }
  - { offset: 0x393BC, size: 0x8, addend: 0x0, symName: __ZNSt3__114__split_bufferI10ColumnFileRNS_9allocatorIS1_EEE5clearB8ne180100Ev, symObjAddr: 0x4EA8, symBinAddr: 0x1000104BC, symSize: 0x28 }
  - { offset: 0x393E0, size: 0x8, addend: 0x0, symName: __ZNSt3__116allocator_traitsINS_9allocatorI10ColumnFileEEE10deallocateB8ne180100ERS3_PS2_m, symObjAddr: 0x4ED0, symBinAddr: 0x1000104E4, symSize: 0x34 }
  - { offset: 0x39421, size: 0x8, addend: 0x0, symName: __ZNKSt3__114__split_bufferI10ColumnFileRNS_9allocatorIS1_EEE8capacityB8ne180100Ev, symObjAddr: 0x4F04, symBinAddr: 0x100010518, symSize: 0x40 }
  - { offset: 0x39445, size: 0x8, addend: 0x0, symName: __ZNSt3__114__split_bufferI10ColumnFileRNS_9allocatorIS1_EEE17__destruct_at_endB8ne180100EPS1_, symObjAddr: 0x4F44, symBinAddr: 0x100010558, symSize: 0x2C }
  - { offset: 0x39477, size: 0x8, addend: 0x0, symName: __ZNSt3__114__split_bufferI10ColumnFileRNS_9allocatorIS1_EEE17__destruct_at_endB8ne180100EPS1_NS_17integral_constantIbLb0EEE, symObjAddr: 0x4F70, symBinAddr: 0x100010584, symSize: 0x80 }
  - { offset: 0x394B5, size: 0x8, addend: 0x0, symName: __ZNSt3__19allocatorI10ColumnFileE10deallocateB8ne180100EPS1_m, symObjAddr: 0x4FF0, symBinAddr: 0x100010604, symSize: 0x44 }
  - { offset: 0x394F5, size: 0x8, addend: 0x0, symName: __ZNKSt3__114__split_bufferI10ColumnFileRNS_9allocatorIS1_EEE9__end_capB8ne180100Ev, symObjAddr: 0x5034, symBinAddr: 0x100010648, symSize: 0x28 }
  - { offset: 0x39519, size: 0x8, addend: 0x0, symName: __ZNKSt3__117__compressed_pairIP10ColumnFileRNS_9allocatorIS1_EEE5firstB8ne180100Ev, symObjAddr: 0x505C, symBinAddr: 0x100010670, symSize: 0x24 }
  - { offset: 0x3953D, size: 0x8, addend: 0x0, symName: __ZNSt3__16vectorI10ColumnFileNS_9allocatorIS1_EEE22__construct_one_at_endB8ne180100IJRNS_12basic_stringIcNS_11char_traitsIcEENS2_IcEEEER10MasterPageRtEEEvDpOT_, symObjAddr: 0x5080, symBinAddr: 0x100010694, symSize: 0xA0 }
  - { offset: 0x395B2, size: 0x8, addend: 0x0, symName: __ZNSt3__16vectorI10ColumnFileNS_9allocatorIS1_EEE24__emplace_back_slow_pathIJRNS_12basic_stringIcNS_11char_traitsIcEENS2_IcEEEER10MasterPageRtEEEPS1_DpOT_, symObjAddr: 0x5120, symBinAddr: 0x100010734, symSize: 0xF8 }
  - { offset: 0x39651, size: 0x8, addend: 0x0, symName: __ZNSt3__16vectorI10ColumnFileNS_9allocatorIS1_EEE21_ConstructTransactionC1B8ne180100ERS4_m, symObjAddr: 0x5218, symBinAddr: 0x10001082C, symSize: 0x3C }
  - { offset: 0x39697, size: 0x8, addend: 0x0, symName: __ZNSt3__116allocator_traitsINS_9allocatorI10ColumnFileEEE9constructB8ne180100IS2_JRNS_12basic_stringIcNS_11char_traitsIcEENS1_IcEEEER10MasterPageRtEvEEvRS3_PT_DpOT0_, symObjAddr: 0x5254, symBinAddr: 0x100010868, symSize: 0x44 }
  - { offset: 0x39715, size: 0x8, addend: 0x0, symName: __ZNSt3__16vectorI10ColumnFileNS_9allocatorIS1_EEE21_ConstructTransactionD1B8ne180100Ev, symObjAddr: 0x5298, symBinAddr: 0x1000108AC, symSize: 0x2C }
  - { offset: 0x3973D, size: 0x8, addend: 0x0, symName: __ZNSt3__16vectorI10ColumnFileNS_9allocatorIS1_EEE21_ConstructTransactionC2B8ne180100ERS4_m, symObjAddr: 0x52C4, symBinAddr: 0x1000108D8, symSize: 0x4C }
  - { offset: 0x39783, size: 0x8, addend: 0x0, symName: __ZNSt3__19allocatorI10ColumnFileE9constructB8ne180100IS1_JRNS_12basic_stringIcNS_11char_traitsIcEENS0_IcEEEER10MasterPageRtEEEvPT_DpOT0_, symObjAddr: 0x5310, symBinAddr: 0x100010924, symSize: 0x44 }
  - { offset: 0x397FD, size: 0x8, addend: 0x0, symName: __ZNSt3__16vectorI10ColumnFileNS_9allocatorIS1_EEE21_ConstructTransactionD2B8ne180100Ev, symObjAddr: 0x5354, symBinAddr: 0x100010968, symSize: 0x20 }
  - { offset: 0x39825, size: 0x8, addend: 0x0, symName: __ZNKSt3__16vectorI10ColumnFileNS_9allocatorIS1_EEE11__recommendB8ne180100Em, symObjAddr: 0x5374, symBinAddr: 0x100010988, symSize: 0xB4 }
  - { offset: 0x39878, size: 0x8, addend: 0x0, symName: __ZNSt3__16vectorI10ColumnFileNS_9allocatorIS1_EEEC2B8ne180100Ev, symObjAddr: 0x54A8, symBinAddr: 0x100010A3C, symSize: 0x4C }
  - { offset: 0x398A0, size: 0x8, addend: 0x0, symName: __ZNSt3__117__compressed_pairIP10ColumnFileNS_9allocatorIS1_EEEC1B8ne180100IDnNS_18__default_init_tagEEEOT_OT0_, symObjAddr: 0x54F4, symBinAddr: 0x100010A88, symSize: 0x3C }
  - { offset: 0x398F6, size: 0x8, addend: 0x0, symName: __ZNSt3__117__compressed_pairIP10ColumnFileNS_9allocatorIS1_EEEC2B8ne180100IDnNS_18__default_init_tagEEEOT_OT0_, symObjAddr: 0x5530, symBinAddr: 0x100010AC4, symSize: 0x40 }
  - { offset: 0x3994C, size: 0x8, addend: 0x0, symName: __ZNSt3__122__compressed_pair_elemINS_9allocatorI10ColumnFileEELi1ELb1EEC2B8ne180100ENS_18__default_init_tagE, symObjAddr: 0x5570, symBinAddr: 0x100010B04, symSize: 0x2C }
  - { offset: 0x3997E, size: 0x8, addend: 0x0, symName: __ZNSt3__19allocatorI10ColumnFileEC2B8ne180100Ev, symObjAddr: 0x559C, symBinAddr: 0x100010B30, symSize: 0x2C }
  - { offset: 0x399A6, size: 0x8, addend: 0x0, symName: __ZNSt3__116__non_trivial_ifILb1ENS_9allocatorI10ColumnFileEEEC2B8ne180100Ev, symObjAddr: 0x55C8, symBinAddr: 0x100010B5C, symSize: 0x14 }
  - { offset: 0x399CE, size: 0x8, addend: 0x0, symName: __ZNSt3__16vectorI10ColumnFileNS_9allocatorIS1_EEED2B8ne180100Ev, symObjAddr: 0x55DC, symBinAddr: 0x100010B70, symSize: 0x44 }
  - { offset: 0x399F6, size: 0x8, addend: 0x0, symName: __ZNSt3__16vectorI10ColumnFileNS_9allocatorIS1_EEE16__destroy_vectorC1B8ne180100ERS4_, symObjAddr: 0x5620, symBinAddr: 0x100010BB4, symSize: 0x34 }
  - { offset: 0x39A2D, size: 0x8, addend: 0x0, symName: __ZNSt3__16vectorI10ColumnFileNS_9allocatorIS1_EEE16__destroy_vectorclB8ne180100Ev, symObjAddr: 0x5654, symBinAddr: 0x100010BE8, symSize: 0x90 }
  - { offset: 0x39A51, size: 0x8, addend: 0x0, symName: __ZNSt3__16vectorI10ColumnFileNS_9allocatorIS1_EEE16__destroy_vectorC2B8ne180100ERS4_, symObjAddr: 0x56E4, symBinAddr: 0x100010C78, symSize: 0x20 }
  - { offset: 0x39A88, size: 0x8, addend: 0x0, symName: __ZNSt3__16vectorINS_8optionalIjEENS_9allocatorIS2_EEEC2Em, symObjAddr: 0x5704, symBinAddr: 0x100010C98, symSize: 0xD4 }
  - { offset: 0x39AD6, size: 0x8, addend: 0x0, symName: __ZNSt3__117__compressed_pairIPNS_8optionalIjEENS_9allocatorIS2_EEEC1B8ne180100IDnNS_18__default_init_tagEEEOT_OT0_, symObjAddr: 0x57D8, symBinAddr: 0x100010D6C, symSize: 0x3C }
  - { offset: 0x39B2C, size: 0x8, addend: 0x0, symName: __ZNSt3__16vectorINS_8optionalIjEENS_9allocatorIS2_EEE16__destroy_vectorC1B8ne180100ERS5_, symObjAddr: 0x5854, symBinAddr: 0x100010DE8, symSize: 0x34 }
  - { offset: 0x39B63, size: 0x8, addend: 0x0, symName: __ZNSt3__16vectorINS_8optionalIjEENS_9allocatorIS2_EEE11__vallocateB8ne180100Em, symObjAddr: 0x5888, symBinAddr: 0x100010E1C, symSize: 0xAC }
  - { offset: 0x39BA5, size: 0x8, addend: 0x0, symName: __ZNSt3__16vectorINS_8optionalIjEENS_9allocatorIS2_EEE18__construct_at_endEm, symObjAddr: 0x5934, symBinAddr: 0x100010EC8, symSize: 0xC8 }
  - { offset: 0x39C15, size: 0x8, addend: 0x0, symName: __ZNSt3__128__exception_guard_exceptionsINS_6vectorINS_8optionalIjEENS_9allocatorIS3_EEE16__destroy_vectorEE10__completeB8ne180100Ev, symObjAddr: 0x59FC, symBinAddr: 0x100010F90, symSize: 0x1C }
  - { offset: 0x39C39, size: 0x8, addend: 0x0, symName: __ZNSt3__128__exception_guard_exceptionsINS_6vectorINS_8optionalIjEENS_9allocatorIS3_EEE16__destroy_vectorEED1B8ne180100Ev, symObjAddr: 0x5A18, symBinAddr: 0x100010FAC, symSize: 0x2C }
  - { offset: 0x39C61, size: 0x8, addend: 0x0, symName: __ZNSt3__117__compressed_pairIPNS_8optionalIjEENS_9allocatorIS2_EEEC2B8ne180100IDnNS_18__default_init_tagEEEOT_OT0_, symObjAddr: 0x5A44, symBinAddr: 0x100010FD8, symSize: 0x40 }
  - { offset: 0x39CB7, size: 0x8, addend: 0x0, symName: __ZNSt3__122__compressed_pair_elemIPNS_8optionalIjEELi0ELb0EEC2B8ne180100IDnvEEOT_, symObjAddr: 0x5A84, symBinAddr: 0x100011018, symSize: 0x1C }
  - { offset: 0x39CF7, size: 0x8, addend: 0x0, symName: __ZNSt3__122__compressed_pair_elemINS_9allocatorINS_8optionalIjEEEELi1ELb1EEC2B8ne180100ENS_18__default_init_tagE, symObjAddr: 0x5AA0, symBinAddr: 0x100011034, symSize: 0x2C }
  - { offset: 0x39D29, size: 0x8, addend: 0x0, symName: __ZNSt3__19allocatorINS_8optionalIjEEEC2B8ne180100Ev, symObjAddr: 0x5ACC, symBinAddr: 0x100011060, symSize: 0x2C }
  - { offset: 0x39D51, size: 0x8, addend: 0x0, symName: __ZNSt3__116__non_trivial_ifILb1ENS_9allocatorINS_8optionalIjEEEEEC2B8ne180100Ev, symObjAddr: 0x5AF8, symBinAddr: 0x10001108C, symSize: 0x14 }
  - { offset: 0x39D79, size: 0x8, addend: 0x0, symName: __ZNSt3__128__exception_guard_exceptionsINS_6vectorINS_8optionalIjEENS_9allocatorIS3_EEE16__destroy_vectorEEC1B8ne180100ES7_, symObjAddr: 0x5B0C, symBinAddr: 0x1000110A0, symSize: 0x34 }
  - { offset: 0x39DAF, size: 0x8, addend: 0x0, symName: __ZNSt3__128__exception_guard_exceptionsINS_6vectorINS_8optionalIjEENS_9allocatorIS3_EEE16__destroy_vectorEEC2B8ne180100ES7_, symObjAddr: 0x5B40, symBinAddr: 0x1000110D4, symSize: 0x24 }
  - { offset: 0x39DE5, size: 0x8, addend: 0x0, symName: __ZNSt3__16vectorINS_8optionalIjEENS_9allocatorIS2_EEE16__destroy_vectorC2B8ne180100ERS5_, symObjAddr: 0x5B64, symBinAddr: 0x1000110F8, symSize: 0x20 }
  - { offset: 0x39E1C, size: 0x8, addend: 0x0, symName: __ZNKSt3__16vectorINS_8optionalIjEENS_9allocatorIS2_EEE8max_sizeEv, symObjAddr: 0x5B84, symBinAddr: 0x100011118, symSize: 0x60 }
  - { offset: 0x39E42, size: 0x8, addend: 0x0, symName: __ZNKSt3__16vectorINS_8optionalIjEENS_9allocatorIS2_EEE20__throw_length_errorB8ne180100Ev, symObjAddr: 0x5BE4, symBinAddr: 0x100011178, symSize: 0x1C }
  - { offset: 0x39E66, size: 0x8, addend: 0x0, symName: __ZNSt3__16vectorINS_8optionalIjEENS_9allocatorIS2_EEE7__allocB8ne180100Ev, symObjAddr: 0x5C40, symBinAddr: 0x1000111D4, symSize: 0x28 }
  - { offset: 0x39E8A, size: 0x8, addend: 0x0, symName: __ZNSt3__16vectorINS_8optionalIjEENS_9allocatorIS2_EEE9__end_capB8ne180100Ev, symObjAddr: 0x5C68, symBinAddr: 0x1000111FC, symSize: 0x28 }
  - { offset: 0x39EAE, size: 0x8, addend: 0x0, symName: __ZNKSt3__16vectorINS_8optionalIjEENS_9allocatorIS2_EEE14__annotate_newB8ne180100Em, symObjAddr: 0x5C90, symBinAddr: 0x100011224, symSize: 0x14 }
  - { offset: 0x39EEB, size: 0x8, addend: 0x0, symName: __ZNSt3__116allocator_traitsINS_9allocatorINS_8optionalIjEEEEE8max_sizeB8ne180100IS4_vEEmRKS4_, symObjAddr: 0x5CA4, symBinAddr: 0x100011238, symSize: 0x24 }
  - { offset: 0x39F18, size: 0x8, addend: 0x0, symName: __ZNKSt3__16vectorINS_8optionalIjEENS_9allocatorIS2_EEE7__allocB8ne180100Ev, symObjAddr: 0x5CC8, symBinAddr: 0x10001125C, symSize: 0x28 }
  - { offset: 0x39F3C, size: 0x8, addend: 0x0, symName: __ZNKSt3__19allocatorINS_8optionalIjEEE8max_sizeB8ne180100Ev, symObjAddr: 0x5CF0, symBinAddr: 0x100011284, symSize: 0x14 }
  - { offset: 0x39F60, size: 0x8, addend: 0x0, symName: __ZNKSt3__117__compressed_pairIPNS_8optionalIjEENS_9allocatorIS2_EEE6secondB8ne180100Ev, symObjAddr: 0x5D04, symBinAddr: 0x100011298, symSize: 0x24 }
  - { offset: 0x39F84, size: 0x8, addend: 0x0, symName: __ZNKSt3__122__compressed_pair_elemINS_9allocatorINS_8optionalIjEEEELi1ELb1EE5__getB8ne180100Ev, symObjAddr: 0x5D28, symBinAddr: 0x1000112BC, symSize: 0x14 }
  - { offset: 0x39FA8, size: 0x8, addend: 0x0, symName: __ZNSt3__19allocatorINS_8optionalIjEEE8allocateB8ne180100Em, symObjAddr: 0x5D3C, symBinAddr: 0x1000112D0, symSize: 0x58 }
  - { offset: 0x39FDA, size: 0x8, addend: 0x0, symName: __ZNSt3__117__compressed_pairIPNS_8optionalIjEENS_9allocatorIS2_EEE6secondB8ne180100Ev, symObjAddr: 0x5D94, symBinAddr: 0x100011328, symSize: 0x24 }
  - { offset: 0x39FFE, size: 0x8, addend: 0x0, symName: __ZNSt3__122__compressed_pair_elemINS_9allocatorINS_8optionalIjEEEELi1ELb1EE5__getB8ne180100Ev, symObjAddr: 0x5DB8, symBinAddr: 0x10001134C, symSize: 0x14 }
  - { offset: 0x3A022, size: 0x8, addend: 0x0, symName: __ZNSt3__117__compressed_pairIPNS_8optionalIjEENS_9allocatorIS2_EEE5firstB8ne180100Ev, symObjAddr: 0x5DCC, symBinAddr: 0x100011360, symSize: 0x24 }
  - { offset: 0x3A046, size: 0x8, addend: 0x0, symName: __ZNSt3__122__compressed_pair_elemIPNS_8optionalIjEELi0ELb0EE5__getB8ne180100Ev, symObjAddr: 0x5DF0, symBinAddr: 0x100011384, symSize: 0x14 }
  - { offset: 0x3A083, size: 0x8, addend: 0x0, symName: __ZNSt3__16vectorINS_8optionalIjEENS_9allocatorIS2_EEE21_ConstructTransactionC1B8ne180100ERS5_m, symObjAddr: 0x5E04, symBinAddr: 0x100011398, symSize: 0x3C }
  - { offset: 0x3A0C9, size: 0x8, addend: 0x0, symName: __ZNSt3__116allocator_traitsINS_9allocatorINS_8optionalIjEEEEE9constructB8ne180100IS3_JEvEEvRS4_PT_DpOT0_, symObjAddr: 0x5E40, symBinAddr: 0x1000113D4, symSize: 0x2C }
  - { offset: 0x3A10A, size: 0x8, addend: 0x0, symName: __ZNSt3__16vectorINS_8optionalIjEENS_9allocatorIS2_EEE21_ConstructTransactionD1B8ne180100Ev, symObjAddr: 0x5E80, symBinAddr: 0x100011414, symSize: 0x2C }
  - { offset: 0x3A132, size: 0x8, addend: 0x0, symName: __ZNSt3__16vectorINS_8optionalIjEENS_9allocatorIS2_EEE21_ConstructTransactionC2B8ne180100ERS5_m, symObjAddr: 0x5EAC, symBinAddr: 0x100011440, symSize: 0x44 }
  - { offset: 0x3A178, size: 0x8, addend: 0x0, symName: __ZNSt3__19allocatorINS_8optionalIjEEE9constructB8ne180100IS2_JEEEvPT_DpOT0_, symObjAddr: 0x5EF0, symBinAddr: 0x100011484, symSize: 0x28 }
  - { offset: 0x3A1B8, size: 0x8, addend: 0x0, symName: __ZNSt3__18optionalIjEC1B8ne180100Ev, symObjAddr: 0x5F18, symBinAddr: 0x1000114AC, symSize: 0x2C }
  - { offset: 0x3A1E0, size: 0x8, addend: 0x0, symName: __ZNSt3__18optionalIjEC2B8ne180100Ev, symObjAddr: 0x5F44, symBinAddr: 0x1000114D8, symSize: 0x2C }
  - { offset: 0x3A208, size: 0x8, addend: 0x0, symName: __ZNSt3__16vectorINS_8optionalIjEENS_9allocatorIS2_EEE21_ConstructTransactionD2B8ne180100Ev, symObjAddr: 0x6068, symBinAddr: 0x100011504, symSize: 0x20 }
  - { offset: 0x3A230, size: 0x8, addend: 0x0, symName: __ZNSt3__128__exception_guard_exceptionsINS_6vectorINS_8optionalIjEENS_9allocatorIS3_EEE16__destroy_vectorEED2B8ne180100Ev, symObjAddr: 0x6088, symBinAddr: 0x100011524, symSize: 0x50 }
  - { offset: 0x3A258, size: 0x8, addend: 0x0, symName: __ZNSt3__16vectorINS_8optionalIjEENS_9allocatorIS2_EEE16__destroy_vectorclB8ne180100Ev, symObjAddr: 0x60D8, symBinAddr: 0x100011574, symSize: 0x90 }
  - { offset: 0x3A27C, size: 0x8, addend: 0x0, symName: __ZNSt3__16vectorINS_8optionalIjEENS_9allocatorIS2_EEE7__clearB8ne180100Ev, symObjAddr: 0x6168, symBinAddr: 0x100011604, symSize: 0x28 }
  - { offset: 0x3A2A0, size: 0x8, addend: 0x0, symName: __ZNKSt3__16vectorINS_8optionalIjEENS_9allocatorIS2_EEE17__annotate_deleteB8ne180100Ev, symObjAddr: 0x6190, symBinAddr: 0x10001162C, symSize: 0x10 }
  - { offset: 0x3A2C4, size: 0x8, addend: 0x0, symName: __ZNSt3__116allocator_traitsINS_9allocatorINS_8optionalIjEEEEE10deallocateB8ne180100ERS4_PS3_m, symObjAddr: 0x61A0, symBinAddr: 0x10001163C, symSize: 0x34 }
  - { offset: 0x3A305, size: 0x8, addend: 0x0, symName: __ZNKSt3__16vectorINS_8optionalIjEENS_9allocatorIS2_EEE8capacityB8ne180100Ev, symObjAddr: 0x61D4, symBinAddr: 0x100011670, symSize: 0x40 }
  - { offset: 0x3A329, size: 0x8, addend: 0x0, symName: __ZNSt3__16vectorINS_8optionalIjEENS_9allocatorIS2_EEE22__base_destruct_at_endB8ne180100EPS2_, symObjAddr: 0x6214, symBinAddr: 0x1000116B0, symSize: 0x8C }
  - { offset: 0x3A36B, size: 0x8, addend: 0x0, symName: __ZNSt3__116allocator_traitsINS_9allocatorINS_8optionalIjEEEEE7destroyB8ne180100IS3_vEEvRS4_PT_, symObjAddr: 0x62A0, symBinAddr: 0x10001173C, symSize: 0x2C }
  - { offset: 0x3A3A7, size: 0x8, addend: 0x0, symName: __ZNSt3__19allocatorINS_8optionalIjEEE7destroyB8ne180100EPS2_, symObjAddr: 0x62CC, symBinAddr: 0x100011768, symSize: 0x14 }
  - { offset: 0x3A3D9, size: 0x8, addend: 0x0, symName: __ZNSt3__19allocatorINS_8optionalIjEEE10deallocateB8ne180100EPS2_m, symObjAddr: 0x62E0, symBinAddr: 0x10001177C, symSize: 0x40 }
  - { offset: 0x3A419, size: 0x8, addend: 0x0, symName: __ZNKSt3__16vectorINS_8optionalIjEENS_9allocatorIS2_EEE9__end_capB8ne180100Ev, symObjAddr: 0x6320, symBinAddr: 0x1000117BC, symSize: 0x28 }
  - { offset: 0x3A43D, size: 0x8, addend: 0x0, symName: __ZNKSt3__117__compressed_pairIPNS_8optionalIjEENS_9allocatorIS2_EEE5firstB8ne180100Ev, symObjAddr: 0x6348, symBinAddr: 0x1000117E4, symSize: 0x24 }
  - { offset: 0x3A461, size: 0x8, addend: 0x0, symName: __ZNKSt3__122__compressed_pair_elemIPNS_8optionalIjEELi0ELb0EE5__getB8ne180100Ev, symObjAddr: 0x636C, symBinAddr: 0x100011808, symSize: 0x14 }
  - { offset: 0x3A485, size: 0x8, addend: 0x0, symName: __ZNSt3__16vectorINS_8optionalIjEENS_9allocatorIS2_EEED2B8ne180100Ev, symObjAddr: 0x6380, symBinAddr: 0x10001181C, symSize: 0x40 }
  - { offset: 0x3A4AD, size: 0x8, addend: 0x0, symName: '__ZNSt3__18functionIFvjRKNS_6vectorIjNS_9allocatorIjEEEEEEC2IZN5Table17materializeColumnEtE3$_0vEET_', symObjAddr: 0x7124, symBinAddr: 0x10001185C, symSize: 0x34 }
  - { offset: 0x3A4F1, size: 0x8, addend: 0x0, symName: '__ZNSt3__110__function12__value_funcIFvjRKNS_6vectorIjNS_9allocatorIjEEEEEEC1B8ne180100IZN5Table17materializeColumnEtE3$_0Li0EEEOT_', symObjAddr: 0x7158, symBinAddr: 0x100011890, symSize: 0x50 }
  - { offset: 0x3A537, size: 0x8, addend: 0x0, symName: '__ZNSt3__19allocatorIZN5Table17materializeColumnEtE3$_0EC1B8ne180100Ev', symObjAddr: 0x71A8, symBinAddr: 0x1000118E0, symSize: 0x2C }
  - { offset: 0x3A55F, size: 0x8, addend: 0x0, symName: '__ZNSt3__110__function12__value_funcIFvjRKNS_6vectorIjNS_9allocatorIjEEEEEEC1B8ne180100IZN5Table17materializeColumnEtE3$_0NS3_ISC_EEEEOT_RKT0_', symObjAddr: 0x71D4, symBinAddr: 0x10001190C, symSize: 0x3C }
  - { offset: 0x3A5B7, size: 0x8, addend: 0x0, symName: '__ZNSt3__19allocatorIZN5Table17materializeColumnEtE3$_0EC2B8ne180100Ev', symObjAddr: 0x7210, symBinAddr: 0x100011948, symSize: 0x2C }
  - { offset: 0x3A5DF, size: 0x8, addend: 0x0, symName: '__ZNSt3__116__non_trivial_ifILb1ENS_9allocatorIZN5Table17materializeColumnEtE3$_0EEEC2B8ne180100Ev', symObjAddr: 0x723C, symBinAddr: 0x100011974, symSize: 0x14 }
  - { offset: 0x3A607, size: 0x8, addend: 0x0, symName: '__ZNSt3__110__function12__value_funcIFvjRKNS_6vectorIjNS_9allocatorIjEEEEEEC2B8ne180100IZN5Table17materializeColumnEtE3$_0NS3_ISC_EEEEOT_RKT0_', symObjAddr: 0x7250, symBinAddr: 0x100011988, symSize: 0xF4 }
  - { offset: 0x3A6B8, size: 0x8, addend: 0x0, symName: '__ZNSt3__19allocatorINS_10__function6__funcIZN5Table17materializeColumnEtE3$_0NS0_IS4_EEFvjRKNS_6vectorIjNS0_IjEEEEEEEEC1B8ne180100IS4_EERKNS0_IT_EE', symObjAddr: 0x735C, symBinAddr: 0x100011A94, symSize: 0x34 }
  - { offset: 0x3A6F3, size: 0x8, addend: 0x0, symName: '__ZNSt3__19allocatorINS_10__function6__funcIZN5Table17materializeColumnEtE3$_0NS0_IS4_EEFvjRKNS_6vectorIjNS0_IjEEEEEEEE8allocateB8ne180100Em', symObjAddr: 0x7390, symBinAddr: 0x100011AC8, symSize: 0x58 }
  - { offset: 0x3A734, size: 0x8, addend: 0x0, symName: '__ZNSt3__122__allocator_destructorINS_9allocatorINS_10__function6__funcIZN5Table17materializeColumnEtE3$_0NS1_IS5_EEFvjRKNS_6vectorIjNS1_IjEEEEEEEEEEC1B8ne180100ERSE_m', symObjAddr: 0x73E8, symBinAddr: 0x100011B20, symSize: 0x3C }
  - { offset: 0x3A804, size: 0x8, addend: 0x0, symName: '__ZNSt3__110unique_ptrINS_10__function6__baseIFvjRKNS_6vectorIjNS_9allocatorIjEEEEEEENS_22__allocator_destructorINS4_INS1_6__funcIZN5Table17materializeColumnEtE3$_0NS4_ISE_EES9_EEEEEEEC1B8ne180100ILb1EvEEPSG_NS_16__dependent_typeINS_27__unique_ptr_deleter_sfinaeISI_EEXT_EE20__good_rval_ref_typeE', symObjAddr: 0x7424, symBinAddr: 0x100011B5C, symSize: 0x3C }
  - { offset: 0x3A853, size: 0x8, addend: 0x0, symName: '__ZNKSt3__110unique_ptrINS_10__function6__baseIFvjRKNS_6vectorIjNS_9allocatorIjEEEEEEENS_22__allocator_destructorINS4_INS1_6__funcIZN5Table17materializeColumnEtE3$_0NS4_ISE_EES9_EEEEEEE3getB8ne180100Ev', symObjAddr: 0x7460, symBinAddr: 0x100011B98, symSize: 0x28 }
  - { offset: 0x3A877, size: 0x8, addend: 0x0, symName: '__ZNSt3__110__function6__funcIZN5Table17materializeColumnEtE3$_0NS_9allocatorIS3_EEFvjRKNS_6vectorIjNS4_IjEEEEEEC1B8ne180100EOS3_OS5_', symObjAddr: 0x7488, symBinAddr: 0x100011BC0, symSize: 0x3C }
  - { offset: 0x3A8BD, size: 0x8, addend: 0x0, symName: '__ZNSt3__110unique_ptrINS_10__function6__baseIFvjRKNS_6vectorIjNS_9allocatorIjEEEEEEENS_22__allocator_destructorINS4_INS1_6__funcIZN5Table17materializeColumnEtE3$_0NS4_ISE_EES9_EEEEEEE7releaseB8ne180100Ev', symObjAddr: 0x74C4, symBinAddr: 0x100011BFC, symSize: 0x44 }
  - { offset: 0x3A8F0, size: 0x8, addend: 0x0, symName: '__ZNSt3__110unique_ptrINS_10__function6__baseIFvjRKNS_6vectorIjNS_9allocatorIjEEEEEEENS_22__allocator_destructorINS4_INS1_6__funcIZN5Table17materializeColumnEtE3$_0NS4_ISE_EES9_EEEEEEED1B8ne180100Ev', symObjAddr: 0x7508, symBinAddr: 0x100011C40, symSize: 0x2C }
  - { offset: 0x3A918, size: 0x8, addend: 0x0, symName: '__ZNSt3__19allocatorINS_10__function6__funcIZN5Table17materializeColumnEtE3$_0NS0_IS4_EEFvjRKNS_6vectorIjNS0_IjEEEEEEEEC2B8ne180100IS4_EERKNS0_IT_EE', symObjAddr: 0x7534, symBinAddr: 0x100011C6C, symSize: 0x30 }
  - { offset: 0x3A953, size: 0x8, addend: 0x0, symName: '__ZNSt3__116__non_trivial_ifILb1ENS_9allocatorINS_10__function6__funcIZN5Table17materializeColumnEtE3$_0NS1_IS5_EEFvjRKNS_6vectorIjNS1_IjEEEEEEEEEEC2B8ne180100Ev', symObjAddr: 0x7564, symBinAddr: 0x100011C9C, symSize: 0x14 }
  - { offset: 0x3A985, size: 0x8, addend: 0x0, symName: '__ZNSt3__116allocator_traitsINS_9allocatorINS_10__function6__funcIZN5Table17materializeColumnEtE3$_0NS1_IS5_EEFvjRKNS_6vectorIjNS1_IjEEEEEEEEEE8max_sizeB8ne180100ISE_vEEmRKSE_', symObjAddr: 0x7578, symBinAddr: 0x100011CB0, symSize: 0x24 }
  - { offset: 0x3A9B2, size: 0x8, addend: 0x0, symName: '__ZNKSt3__19allocatorINS_10__function6__funcIZN5Table17materializeColumnEtE3$_0NS0_IS4_EEFvjRKNS_6vectorIjNS0_IjEEEEEEEE8max_sizeB8ne180100Ev', symObjAddr: 0x759C, symBinAddr: 0x100011CD4, symSize: 0x14 }
  - { offset: 0x3A9D6, size: 0x8, addend: 0x0, symName: '__ZNSt3__122__allocator_destructorINS_9allocatorINS_10__function6__funcIZN5Table17materializeColumnEtE3$_0NS1_IS5_EEFvjRKNS_6vectorIjNS1_IjEEEEEEEEEEC2B8ne180100ERSE_m', symObjAddr: 0x75B0, symBinAddr: 0x100011CE8, symSize: 0x2C }
  - { offset: 0x3AA1A, size: 0x8, addend: 0x0, symName: '__ZNSt3__110unique_ptrINS_10__function6__baseIFvjRKNS_6vectorIjNS_9allocatorIjEEEEEEENS_22__allocator_destructorINS4_INS1_6__funcIZN5Table17materializeColumnEtE3$_0NS4_ISE_EES9_EEEEEEEC2B8ne180100ILb1EvEEPSG_NS_16__dependent_typeINS_27__unique_ptr_deleter_sfinaeISI_EEXT_EE20__good_rval_ref_typeE', symObjAddr: 0x75DC, symBinAddr: 0x100011D14, symSize: 0x48 }
  - { offset: 0x3AA69, size: 0x8, addend: 0x0, symName: '__ZNSt3__117__compressed_pairIPNS_10__function6__funcIZN5Table17materializeColumnEtE3$_0NS_9allocatorIS4_EEFvjRKNS_6vectorIjNS5_IjEEEEEEENS_22__allocator_destructorINS5_ISD_EEEEEC1B8ne180100IRSE_SH_EEOT_OT0_', symObjAddr: 0x7624, symBinAddr: 0x100011D5C, symSize: 0x3C }
  - { offset: 0x3AABF, size: 0x8, addend: 0x0, symName: '__ZNSt3__117__compressed_pairIPNS_10__function6__funcIZN5Table17materializeColumnEtE3$_0NS_9allocatorIS4_EEFvjRKNS_6vectorIjNS5_IjEEEEEEENS_22__allocator_destructorINS5_ISD_EEEEEC2B8ne180100IRSE_SH_EEOT_OT0_', symObjAddr: 0x7660, symBinAddr: 0x100011D98, symSize: 0x48 }
  - { offset: 0x3AB15, size: 0x8, addend: 0x0, symName: '__ZNSt3__122__compressed_pair_elemIPNS_10__function6__funcIZN5Table17materializeColumnEtE3$_0NS_9allocatorIS4_EEFvjRKNS_6vectorIjNS5_IjEEEEEEELi0ELb0EEC2B8ne180100IRSE_vEEOT_', symObjAddr: 0x76A8, symBinAddr: 0x100011DE0, symSize: 0x24 }
  - { offset: 0x3AB55, size: 0x8, addend: 0x0, symName: '__ZNSt3__122__compressed_pair_elemINS_22__allocator_destructorINS_9allocatorINS_10__function6__funcIZN5Table17materializeColumnEtE3$_0NS2_IS6_EEFvjRKNS_6vectorIjNS2_IjEEEEEEEEEEELi1ELb0EEC2B8ne180100ISG_vEEOT_', symObjAddr: 0x76CC, symBinAddr: 0x100011E04, symSize: 0x24 }
  - { offset: 0x3AB95, size: 0x8, addend: 0x0, symName: '__ZNKSt3__117__compressed_pairIPNS_10__function6__funcIZN5Table17materializeColumnEtE3$_0NS_9allocatorIS4_EEFvjRKNS_6vectorIjNS5_IjEEEEEEENS_22__allocator_destructorINS5_ISD_EEEEE5firstB8ne180100Ev', symObjAddr: 0x76F0, symBinAddr: 0x100011E28, symSize: 0x24 }
  - { offset: 0x3ABB9, size: 0x8, addend: 0x0, symName: '__ZNKSt3__122__compressed_pair_elemIPNS_10__function6__funcIZN5Table17materializeColumnEtE3$_0NS_9allocatorIS4_EEFvjRKNS_6vectorIjNS5_IjEEEEEEELi0ELb0EE5__getB8ne180100Ev', symObjAddr: 0x7714, symBinAddr: 0x100011E4C, symSize: 0x14 }
  - { offset: 0x3ABDD, size: 0x8, addend: 0x0, symName: '__ZNSt3__110__function6__funcIZN5Table17materializeColumnEtE3$_0NS_9allocatorIS3_EEFvjRKNS_6vectorIjNS4_IjEEEEEEC2B8ne180100EOS3_OS5_', symObjAddr: 0x7728, symBinAddr: 0x100011E60, symSize: 0x80 }
  - { offset: 0x3AC23, size: 0x8, addend: 0x0, symName: __ZNSt3__110__function6__baseIFvjRKNS_6vectorIjNS_9allocatorIjEEEEEEC2B8ne180100Ev, symObjAddr: 0x77A8, symBinAddr: 0x100011EE0, symSize: 0x24 }
  - { offset: 0x3AC4B, size: 0x8, addend: 0x0, symName: '__ZNSt3__110__function12__alloc_funcIZN5Table17materializeColumnEtE3$_0NS_9allocatorIS3_EEFvjRKNS_6vectorIjNS4_IjEEEEEEC1B8ne180100EOS3_OS5_', symObjAddr: 0x77CC, symBinAddr: 0x100011F04, symSize: 0x3C }
  - { offset: 0x3AC8F, size: 0x8, addend: 0x0, symName: __ZNSt3__110__function6__baseIFvjRKNS_6vectorIjNS_9allocatorIjEEEEEED2Ev, symObjAddr: 0x7808, symBinAddr: 0x100011F40, symSize: 0x14 }
  - { offset: 0x3ACB7, size: 0x8, addend: 0x0, symName: '__ZNSt3__110__function6__funcIZN5Table17materializeColumnEtE3$_0NS_9allocatorIS3_EEFvjRKNS_6vectorIjNS4_IjEEEEEED1Ev', symObjAddr: 0x781C, symBinAddr: 0x100011F54, symSize: 0x2C }
  - { offset: 0x3ACE1, size: 0x8, addend: 0x0, symName: '__ZNSt3__110__function6__funcIZN5Table17materializeColumnEtE3$_0NS_9allocatorIS3_EEFvjRKNS_6vectorIjNS4_IjEEEEEED0Ev', symObjAddr: 0x7848, symBinAddr: 0x100011F80, symSize: 0x30 }
  - { offset: 0x3AD0B, size: 0x8, addend: 0x0, symName: '__ZNKSt3__110__function6__funcIZN5Table17materializeColumnEtE3$_0NS_9allocatorIS3_EEFvjRKNS_6vectorIjNS4_IjEEEEEE7__cloneEv', symObjAddr: 0x7878, symBinAddr: 0x100011FB0, symSize: 0xFC }
  - { offset: 0x3AD5B, size: 0x8, addend: 0x0, symName: '__ZNKSt3__110__function6__funcIZN5Table17materializeColumnEtE3$_0NS_9allocatorIS3_EEFvjRKNS_6vectorIjNS4_IjEEEEEE7__cloneEPNS0_6__baseISB_EE', symObjAddr: 0x7974, symBinAddr: 0x1000120AC, symSize: 0x58 }
  - { offset: 0x3AD90, size: 0x8, addend: 0x0, symName: '__ZNSt3__110__function6__funcIZN5Table17materializeColumnEtE3$_0NS_9allocatorIS3_EEFvjRKNS_6vectorIjNS4_IjEEEEEE7destroyEv', symObjAddr: 0x79CC, symBinAddr: 0x100012104, symSize: 0x28 }
  - { offset: 0x3ADB6, size: 0x8, addend: 0x0, symName: '__ZNSt3__110__function6__funcIZN5Table17materializeColumnEtE3$_0NS_9allocatorIS3_EEFvjRKNS_6vectorIjNS4_IjEEEEEE18destroy_deallocateEv', symObjAddr: 0x79F4, symBinAddr: 0x10001212C, symSize: 0x58 }
  - { offset: 0x3ADF7, size: 0x8, addend: 0x0, symName: '__ZNSt3__110__function6__funcIZN5Table17materializeColumnEtE3$_0NS_9allocatorIS3_EEFvjRKNS_6vectorIjNS4_IjEEEEEEclEOjSA_', symObjAddr: 0x7A4C, symBinAddr: 0x100012184, symSize: 0x38 }
  - { offset: 0x3AE3B, size: 0x8, addend: 0x0, symName: '__ZNKSt3__110__function6__funcIZN5Table17materializeColumnEtE3$_0NS_9allocatorIS3_EEFvjRKNS_6vectorIjNS4_IjEEEEEE6targetERKSt9type_info', symObjAddr: 0x7A84, symBinAddr: 0x1000121BC, symSize: 0x60 }
  - { offset: 0x3AE71, size: 0x8, addend: 0x0, symName: '__ZNKSt3__110__function6__funcIZN5Table17materializeColumnEtE3$_0NS_9allocatorIS3_EEFvjRKNS_6vectorIjNS4_IjEEEEEE11target_typeEv', symObjAddr: 0x7AE4, symBinAddr: 0x10001221C, symSize: 0x18 }
  - { offset: 0x3AE97, size: 0x8, addend: 0x0, symName: __ZNSt3__110__function6__baseIFvjRKNS_6vectorIjNS_9allocatorIjEEEEEED1Ev, symObjAddr: 0x7AFC, symBinAddr: 0x100012234, symSize: 0x14 }
  - { offset: 0x3AEBF, size: 0x8, addend: 0x0, symName: __ZNSt3__110__function6__baseIFvjRKNS_6vectorIjNS_9allocatorIjEEEEEED0Ev, symObjAddr: 0x7B10, symBinAddr: 0x100012248, symSize: 0xC }
  - { offset: 0x3AEE7, size: 0x8, addend: 0x0, symName: '__ZNSt3__110__function12__alloc_funcIZN5Table17materializeColumnEtE3$_0NS_9allocatorIS3_EEFvjRKNS_6vectorIjNS4_IjEEEEEEC2B8ne180100EOS3_OS5_', symObjAddr: 0x7B1C, symBinAddr: 0x100012254, symSize: 0x5C }
  - { offset: 0x3AF2B, size: 0x8, addend: 0x0, symName: '__ZNSt3__117__compressed_pairIZN5Table17materializeColumnEtE3$_0NS_9allocatorIS2_EEEC1B8ne180100IJOS2_EJOS4_EEENS_21piecewise_construct_tENS_5tupleIJDpT_EEENSA_IJDpT0_EEE', symObjAddr: 0x7BD0, symBinAddr: 0x100012308, symSize: 0x3C }
  - { offset: 0x3AF93, size: 0x8, addend: 0x0, symName: '__ZNSt3__15tupleIJOZN5Table17materializeColumnEtE3$_0EEC1B8ne180100IJS2_ELi0EEEDpOT_', symObjAddr: 0x7C0C, symBinAddr: 0x100012344, symSize: 0x34 }
  - { offset: 0x3AFDB, size: 0x8, addend: 0x0, symName: '__ZNSt3__15tupleIJOZN5Table17materializeColumnEtE3$_0EEC2B8ne180100IJS2_ELi0EEEDpOT_', symObjAddr: 0x7C40, symBinAddr: 0x100012378, symSize: 0x34 }
  - { offset: 0x3B023, size: 0x8, addend: 0x0, symName: '__ZNSt3__112__tuple_implINS_15__tuple_indicesIJLm0EEEEJOZN5Table17materializeColumnEtE3$_0EEC1B8ne180100IJLm0EEJS5_EJEJEJS4_EEENS1_IJXspT_EEEENS_13__tuple_typesIJDpT0_EEENS1_IJXspT1_EEEENS9_IJDpT2_EEEDpOT3_', symObjAddr: 0x7C74, symBinAddr: 0x1000123AC, symSize: 0x34 }
  - { offset: 0x3B0B2, size: 0x8, addend: 0x0, symName: '__ZNSt3__112__tuple_implINS_15__tuple_indicesIJLm0EEEEJOZN5Table17materializeColumnEtE3$_0EEC2B8ne180100IJLm0EEJS5_EJEJEJS4_EEENS1_IJXspT_EEEENS_13__tuple_typesIJDpT0_EEENS1_IJXspT1_EEEENS9_IJDpT2_EEEDpOT3_', symObjAddr: 0x7CA8, symBinAddr: 0x1000123E0, symSize: 0x34 }
  - { offset: 0x3B141, size: 0x8, addend: 0x0, symName: '__ZNSt3__112__tuple_leafILm0EOZN5Table17materializeColumnEtE3$_0Lb0EEC2B8ne180100IS2_vEEOT_', symObjAddr: 0x7CDC, symBinAddr: 0x100012414, symSize: 0x20 }
  - { offset: 0x3B182, size: 0x8, addend: 0x0, symName: '__ZNSt3__15tupleIJONS_9allocatorIZN5Table17materializeColumnEtE3$_0EEEEC1B8ne180100IJS4_ELi0EEEDpOT_', symObjAddr: 0x7CFC, symBinAddr: 0x100012434, symSize: 0x34 }
  - { offset: 0x3B1CA, size: 0x8, addend: 0x0, symName: '__ZNSt3__15tupleIJONS_9allocatorIZN5Table17materializeColumnEtE3$_0EEEEC2B8ne180100IJS4_ELi0EEEDpOT_', symObjAddr: 0x7D30, symBinAddr: 0x100012468, symSize: 0x34 }
  - { offset: 0x3B212, size: 0x8, addend: 0x0, symName: '__ZNSt3__112__tuple_implINS_15__tuple_indicesIJLm0EEEEJONS_9allocatorIZN5Table17materializeColumnEtE3$_0EEEEC1B8ne180100IJLm0EEJS7_EJEJEJS6_EEENS1_IJXspT_EEEENS_13__tuple_typesIJDpT0_EEENS1_IJXspT1_EEEENSB_IJDpT2_EEEDpOT3_', symObjAddr: 0x7D64, symBinAddr: 0x10001249C, symSize: 0x34 }
  - { offset: 0x3B2A1, size: 0x8, addend: 0x0, symName: '__ZNSt3__112__tuple_implINS_15__tuple_indicesIJLm0EEEEJONS_9allocatorIZN5Table17materializeColumnEtE3$_0EEEEC2B8ne180100IJLm0EEJS7_EJEJEJS6_EEENS1_IJXspT_EEEENS_13__tuple_typesIJDpT0_EEENS1_IJXspT1_EEEENSB_IJDpT2_EEEDpOT3_', symObjAddr: 0x7D98, symBinAddr: 0x1000124D0, symSize: 0x34 }
  - { offset: 0x3B330, size: 0x8, addend: 0x0, symName: '__ZNSt3__112__tuple_leafILm0EONS_9allocatorIZN5Table17materializeColumnEtE3$_0EELb0EEC2B8ne180100IS4_vEEOT_', symObjAddr: 0x7DCC, symBinAddr: 0x100012504, symSize: 0x20 }
  - { offset: 0x3B371, size: 0x8, addend: 0x0, symName: '__ZNSt3__117__compressed_pairIZN5Table17materializeColumnEtE3$_0NS_9allocatorIS2_EEEC2B8ne180100IJOS2_EJOS4_EEENS_21piecewise_construct_tENS_5tupleIJDpT_EEENSA_IJDpT0_EEE', symObjAddr: 0x7DEC, symBinAddr: 0x100012524, symSize: 0x54 }
  - { offset: 0x3B3D9, size: 0x8, addend: 0x0, symName: '__ZNSt3__122__compressed_pair_elemIZN5Table17materializeColumnEtE3$_0Li0ELb0EEC2B8ne180100IJOS2_EJLm0EEEENS_21piecewise_construct_tENS_5tupleIJDpT_EEENS_15__tuple_indicesIJXspT0_EEEE', symObjAddr: 0x7E40, symBinAddr: 0x100012578, symSize: 0x4C }
  - { offset: 0x3B43A, size: 0x8, addend: 0x0, symName: '__ZNSt3__122__compressed_pair_elemINS_9allocatorIZN5Table17materializeColumnEtE3$_0EELi1ELb1EEC2B8ne180100IJOS4_EJLm0EEEENS_21piecewise_construct_tENS_5tupleIJDpT_EEENS_15__tuple_indicesIJXspT0_EEEE', symObjAddr: 0x7E8C, symBinAddr: 0x1000125C4, symSize: 0x38 }
  - { offset: 0x3B49B, size: 0x8, addend: 0x0, symName: '__ZNSt3__112__tuple_leafILm0EOZN5Table17materializeColumnEtE3$_0Lb0EE3getB8ne180100Ev', symObjAddr: 0x7EE8, symBinAddr: 0x100012620, symSize: 0x18 }
  - { offset: 0x3B4BF, size: 0x8, addend: 0x0, symName: '__ZNSt3__112__tuple_leafILm0EONS_9allocatorIZN5Table17materializeColumnEtE3$_0EELb0EE3getB8ne180100Ev', symObjAddr: 0x7F24, symBinAddr: 0x10001265C, symSize: 0x18 }
  - { offset: 0x3B4E3, size: 0x8, addend: 0x0, symName: '__ZNSt3__110__function6__funcIZN5Table17materializeColumnEtE3$_0NS_9allocatorIS3_EEFvjRKNS_6vectorIjNS4_IjEEEEEED2Ev', symObjAddr: 0x7F3C, symBinAddr: 0x100012674, symSize: 0x2C }
  - { offset: 0x3B50D, size: 0x8, addend: 0x0, symName: '__ZNKSt3__110__function12__alloc_funcIZN5Table17materializeColumnEtE3$_0NS_9allocatorIS3_EEFvjRKNS_6vectorIjNS4_IjEEEEEE15__get_allocatorB8ne180100Ev', symObjAddr: 0x7F68, symBinAddr: 0x1000126A0, symSize: 0x24 }
  - { offset: 0x3B559, size: 0x8, addend: 0x0, symName: '__ZNSt3__110unique_ptrINS_10__function6__funcIZN5Table17materializeColumnEtE3$_0NS_9allocatorIS4_EEFvjRKNS_6vectorIjNS5_IjEEEEEEENS_22__allocator_destructorINS5_ISD_EEEEEC1B8ne180100ILb1EvEEPSD_NS_16__dependent_typeINS_27__unique_ptr_deleter_sfinaeISG_EEXT_EE20__good_rval_ref_typeE', symObjAddr: 0x7F8C, symBinAddr: 0x1000126C4, symSize: 0x3C }
  - { offset: 0x3B5A8, size: 0x8, addend: 0x0, symName: '__ZNKSt3__110unique_ptrINS_10__function6__funcIZN5Table17materializeColumnEtE3$_0NS_9allocatorIS4_EEFvjRKNS_6vectorIjNS5_IjEEEEEEENS_22__allocator_destructorINS5_ISD_EEEEE3getB8ne180100Ev', symObjAddr: 0x7FC8, symBinAddr: 0x100012700, symSize: 0x28 }
  - { offset: 0x3B5CC, size: 0x8, addend: 0x0, symName: '__ZNKSt3__110__function12__alloc_funcIZN5Table17materializeColumnEtE3$_0NS_9allocatorIS3_EEFvjRKNS_6vectorIjNS4_IjEEEEEE8__targetB8ne180100Ev', symObjAddr: 0x7FF0, symBinAddr: 0x100012728, symSize: 0x24 }
  - { offset: 0x3B5F5, size: 0x8, addend: 0x0, symName: '__ZNSt3__19allocatorIZN5Table17materializeColumnEtE3$_0EC1B8ne180100INS_10__function6__funcIS2_S3_FvjRKNS_6vectorIjNS0_IjEEEEEEEEERKNS0_IT_EE', symObjAddr: 0x8014, symBinAddr: 0x10001274C, symSize: 0x34 }
  - { offset: 0x3B630, size: 0x8, addend: 0x0, symName: '__ZNSt3__110__function6__funcIZN5Table17materializeColumnEtE3$_0NS_9allocatorIS3_EEFvjRKNS_6vectorIjNS4_IjEEEEEEC1B8ne180100ERKS3_OS5_', symObjAddr: 0x8048, symBinAddr: 0x100012780, symSize: 0x3C }
  - { offset: 0x3B676, size: 0x8, addend: 0x0, symName: '__ZNSt3__110unique_ptrINS_10__function6__funcIZN5Table17materializeColumnEtE3$_0NS_9allocatorIS4_EEFvjRKNS_6vectorIjNS5_IjEEEEEEENS_22__allocator_destructorINS5_ISD_EEEEE7releaseB8ne180100Ev', symObjAddr: 0x8084, symBinAddr: 0x1000127BC, symSize: 0x44 }
  - { offset: 0x3B6A9, size: 0x8, addend: 0x0, symName: '__ZNSt3__110unique_ptrINS_10__function6__funcIZN5Table17materializeColumnEtE3$_0NS_9allocatorIS4_EEFvjRKNS_6vectorIjNS5_IjEEEEEEENS_22__allocator_destructorINS5_ISD_EEEEED1B8ne180100Ev', symObjAddr: 0x80C8, symBinAddr: 0x100012800, symSize: 0x2C }
  - { offset: 0x3B6D1, size: 0x8, addend: 0x0, symName: '__ZNKSt3__117__compressed_pairIZN5Table17materializeColumnEtE3$_0NS_9allocatorIS2_EEE6secondB8ne180100Ev', symObjAddr: 0x80F4, symBinAddr: 0x10001282C, symSize: 0x24 }
  - { offset: 0x3B6F5, size: 0x8, addend: 0x0, symName: '__ZNKSt3__122__compressed_pair_elemINS_9allocatorIZN5Table17materializeColumnEtE3$_0EELi1ELb1EE5__getB8ne180100Ev', symObjAddr: 0x8118, symBinAddr: 0x100012850, symSize: 0x14 }
  - { offset: 0x3B719, size: 0x8, addend: 0x0, symName: '__ZNSt3__110unique_ptrINS_10__function6__funcIZN5Table17materializeColumnEtE3$_0NS_9allocatorIS4_EEFvjRKNS_6vectorIjNS5_IjEEEEEEENS_22__allocator_destructorINS5_ISD_EEEEEC2B8ne180100ILb1EvEEPSD_NS_16__dependent_typeINS_27__unique_ptr_deleter_sfinaeISG_EEXT_EE20__good_rval_ref_typeE', symObjAddr: 0x812C, symBinAddr: 0x100012864, symSize: 0x48 }
  - { offset: 0x3B768, size: 0x8, addend: 0x0, symName: '__ZNKSt3__117__compressed_pairIZN5Table17materializeColumnEtE3$_0NS_9allocatorIS2_EEE5firstB8ne180100Ev', symObjAddr: 0x8174, symBinAddr: 0x1000128AC, symSize: 0x24 }
  - { offset: 0x3B78C, size: 0x8, addend: 0x0, symName: '__ZNKSt3__122__compressed_pair_elemIZN5Table17materializeColumnEtE3$_0Li0ELb0EE5__getB8ne180100Ev', symObjAddr: 0x8198, symBinAddr: 0x1000128D0, symSize: 0x14 }
  - { offset: 0x3B7B0, size: 0x8, addend: 0x0, symName: '__ZNSt3__19allocatorIZN5Table17materializeColumnEtE3$_0EC2B8ne180100INS_10__function6__funcIS2_S3_FvjRKNS_6vectorIjNS0_IjEEEEEEEEERKNS0_IT_EE', symObjAddr: 0x81AC, symBinAddr: 0x1000128E4, symSize: 0x30 }
  - { offset: 0x3B7EB, size: 0x8, addend: 0x0, symName: '__ZNSt3__110__function6__funcIZN5Table17materializeColumnEtE3$_0NS_9allocatorIS3_EEFvjRKNS_6vectorIjNS4_IjEEEEEEC2B8ne180100ERKS3_OS5_', symObjAddr: 0x81DC, symBinAddr: 0x100012914, symSize: 0x80 }
  - { offset: 0x3B831, size: 0x8, addend: 0x0, symName: '__ZNSt3__110__function12__alloc_funcIZN5Table17materializeColumnEtE3$_0NS_9allocatorIS3_EEFvjRKNS_6vectorIjNS4_IjEEEEEEC1B8ne180100ERKS3_OS5_', symObjAddr: 0x825C, symBinAddr: 0x100012994, symSize: 0x3C }
  - { offset: 0x3B875, size: 0x8, addend: 0x0, symName: '__ZNSt3__110__function12__alloc_funcIZN5Table17materializeColumnEtE3$_0NS_9allocatorIS3_EEFvjRKNS_6vectorIjNS4_IjEEEEEEC2B8ne180100ERKS3_OS5_', symObjAddr: 0x8298, symBinAddr: 0x1000129D0, symSize: 0x5C }
  - { offset: 0x3B8B9, size: 0x8, addend: 0x0, symName: '__ZNSt3__117__compressed_pairIZN5Table17materializeColumnEtE3$_0NS_9allocatorIS2_EEEC1B8ne180100IJRKS2_EJOS4_EEENS_21piecewise_construct_tENS_5tupleIJDpT_EEENSB_IJDpT0_EEE', symObjAddr: 0x8320, symBinAddr: 0x100012A58, symSize: 0x3C }
  - { offset: 0x3B921, size: 0x8, addend: 0x0, symName: '__ZNSt3__15tupleIJRKZN5Table17materializeColumnEtE3$_0EEC1B8ne180100INS_4_AndELi0EEES4_', symObjAddr: 0x835C, symBinAddr: 0x100012A94, symSize: 0x34 }
  - { offset: 0x3B968, size: 0x8, addend: 0x0, symName: '__ZNSt3__15tupleIJRKZN5Table17materializeColumnEtE3$_0EEC2B8ne180100INS_4_AndELi0EEES4_', symObjAddr: 0x8390, symBinAddr: 0x100012AC8, symSize: 0x34 }
  - { offset: 0x3B9AF, size: 0x8, addend: 0x0, symName: '__ZNSt3__112__tuple_implINS_15__tuple_indicesIJLm0EEEEJRKZN5Table17materializeColumnEtE3$_0EEC1B8ne180100IJLm0EEJS6_EJEJEJS6_EEENS1_IJXspT_EEEENS_13__tuple_typesIJDpT0_EEENS1_IJXspT1_EEEENSA_IJDpT2_EEEDpOT3_', symObjAddr: 0x83C4, symBinAddr: 0x100012AFC, symSize: 0x34 }
  - { offset: 0x3BA3E, size: 0x8, addend: 0x0, symName: '__ZNSt3__112__tuple_implINS_15__tuple_indicesIJLm0EEEEJRKZN5Table17materializeColumnEtE3$_0EEC2B8ne180100IJLm0EEJS6_EJEJEJS6_EEENS1_IJXspT_EEEENS_13__tuple_typesIJDpT0_EEENS1_IJXspT1_EEEENSA_IJDpT2_EEEDpOT3_', symObjAddr: 0x83F8, symBinAddr: 0x100012B30, symSize: 0x34 }
  - { offset: 0x3BACD, size: 0x8, addend: 0x0, symName: '__ZNSt3__112__tuple_leafILm0ERKZN5Table17materializeColumnEtE3$_0Lb0EEC2B8ne180100IS4_vEEOT_', symObjAddr: 0x842C, symBinAddr: 0x100012B64, symSize: 0x20 }
  - { offset: 0x3BB0E, size: 0x8, addend: 0x0, symName: '__ZNSt3__117__compressed_pairIZN5Table17materializeColumnEtE3$_0NS_9allocatorIS2_EEEC2B8ne180100IJRKS2_EJOS4_EEENS_21piecewise_construct_tENS_5tupleIJDpT_EEENSB_IJDpT0_EEE', symObjAddr: 0x844C, symBinAddr: 0x100012B84, symSize: 0x54 }
  - { offset: 0x3BB76, size: 0x8, addend: 0x0, symName: '__ZNSt3__122__compressed_pair_elemIZN5Table17materializeColumnEtE3$_0Li0ELb0EEC2B8ne180100IJRKS2_EJLm0EEEENS_21piecewise_construct_tENS_5tupleIJDpT_EEENS_15__tuple_indicesIJXspT0_EEEE', symObjAddr: 0x84A0, symBinAddr: 0x100012BD8, symSize: 0x4C }
  - { offset: 0x3BBD7, size: 0x8, addend: 0x0, symName: '__ZNSt3__112__tuple_leafILm0ERKZN5Table17materializeColumnEtE3$_0Lb0EE3getB8ne180100Ev', symObjAddr: 0x8510, symBinAddr: 0x100012C48, symSize: 0x18 }
  - { offset: 0x3BBFB, size: 0x8, addend: 0x0, symName: '__ZNSt3__117__compressed_pairIPNS_10__function6__funcIZN5Table17materializeColumnEtE3$_0NS_9allocatorIS4_EEFvjRKNS_6vectorIjNS5_IjEEEEEEENS_22__allocator_destructorINS5_ISD_EEEEE5firstB8ne180100Ev', symObjAddr: 0x8528, symBinAddr: 0x100012C60, symSize: 0x24 }
  - { offset: 0x3BC1F, size: 0x8, addend: 0x0, symName: '__ZNSt3__122__compressed_pair_elemIPNS_10__function6__funcIZN5Table17materializeColumnEtE3$_0NS_9allocatorIS4_EEFvjRKNS_6vectorIjNS5_IjEEEEEEELi0ELb0EE5__getB8ne180100Ev', symObjAddr: 0x854C, symBinAddr: 0x100012C84, symSize: 0x14 }
  - { offset: 0x3BC43, size: 0x8, addend: 0x0, symName: '__ZNSt3__110unique_ptrINS_10__function6__funcIZN5Table17materializeColumnEtE3$_0NS_9allocatorIS4_EEFvjRKNS_6vectorIjNS5_IjEEEEEEENS_22__allocator_destructorINS5_ISD_EEEEED2B8ne180100Ev', symObjAddr: 0x8560, symBinAddr: 0x100012C98, symSize: 0x30 }
  - { offset: 0x3BC6B, size: 0x8, addend: 0x0, symName: '__ZNSt3__110unique_ptrINS_10__function6__funcIZN5Table17materializeColumnEtE3$_0NS_9allocatorIS4_EEFvjRKNS_6vectorIjNS5_IjEEEEEEENS_22__allocator_destructorINS5_ISD_EEEEE5resetB8ne180100EPSD_', symObjAddr: 0x8590, symBinAddr: 0x100012CC8, symSize: 0x78 }
  - { offset: 0x3BCAD, size: 0x8, addend: 0x0, symName: '__ZNSt3__117__compressed_pairIPNS_10__function6__funcIZN5Table17materializeColumnEtE3$_0NS_9allocatorIS4_EEFvjRKNS_6vectorIjNS5_IjEEEEEEENS_22__allocator_destructorINS5_ISD_EEEEE6secondB8ne180100Ev', symObjAddr: 0x8608, symBinAddr: 0x100012D40, symSize: 0x28 }
  - { offset: 0x3BCD1, size: 0x8, addend: 0x0, symName: '__ZNSt3__122__allocator_destructorINS_9allocatorINS_10__function6__funcIZN5Table17materializeColumnEtE3$_0NS1_IS5_EEFvjRKNS_6vectorIjNS1_IjEEEEEEEEEEclB8ne180100EPSD_', symObjAddr: 0x8630, symBinAddr: 0x100012D68, symSize: 0x34 }
  - { offset: 0x3BD03, size: 0x8, addend: 0x0, symName: '__ZNSt3__122__compressed_pair_elemINS_22__allocator_destructorINS_9allocatorINS_10__function6__funcIZN5Table17materializeColumnEtE3$_0NS2_IS6_EEFvjRKNS_6vectorIjNS2_IjEEEEEEEEEEELi1ELb0EE5__getB8ne180100Ev', symObjAddr: 0x8664, symBinAddr: 0x100012D9C, symSize: 0x14 }
  - { offset: 0x3BD27, size: 0x8, addend: 0x0, symName: '__ZNSt3__116allocator_traitsINS_9allocatorINS_10__function6__funcIZN5Table17materializeColumnEtE3$_0NS1_IS5_EEFvjRKNS_6vectorIjNS1_IjEEEEEEEEEE10deallocateB8ne180100ERSE_PSD_m', symObjAddr: 0x8678, symBinAddr: 0x100012DB0, symSize: 0x34 }
  - { offset: 0x3BD68, size: 0x8, addend: 0x0, symName: '__ZNSt3__19allocatorINS_10__function6__funcIZN5Table17materializeColumnEtE3$_0NS0_IS4_EEFvjRKNS_6vectorIjNS0_IjEEEEEEEE10deallocateB8ne180100EPSC_m', symObjAddr: 0x86AC, symBinAddr: 0x100012DE4, symSize: 0x40 }
  - { offset: 0x3BDA8, size: 0x8, addend: 0x0, symName: '__ZNSt3__110__function6__funcIZN5Table17materializeColumnEtE3$_0NS_9allocatorIS3_EEFvjRKNS_6vectorIjNS4_IjEEEEEEC1B8ne180100ERKS3_RKS5_', symObjAddr: 0x86EC, symBinAddr: 0x100012E24, symSize: 0x3C }
  - { offset: 0x3BDEE, size: 0x8, addend: 0x0, symName: '__ZNSt3__110__function6__funcIZN5Table17materializeColumnEtE3$_0NS_9allocatorIS3_EEFvjRKNS_6vectorIjNS4_IjEEEEEEC2B8ne180100ERKS3_RKS5_', symObjAddr: 0x8728, symBinAddr: 0x100012E60, symSize: 0x80 }
  - { offset: 0x3BE34, size: 0x8, addend: 0x0, symName: '__ZNSt3__110__function12__alloc_funcIZN5Table17materializeColumnEtE3$_0NS_9allocatorIS3_EEFvjRKNS_6vectorIjNS4_IjEEEEEEC1B8ne180100ERKS3_RKS5_', symObjAddr: 0x87A8, symBinAddr: 0x100012EE0, symSize: 0x3C }
  - { offset: 0x3BE78, size: 0x8, addend: 0x0, symName: '__ZNSt3__110__function12__alloc_funcIZN5Table17materializeColumnEtE3$_0NS_9allocatorIS3_EEFvjRKNS_6vectorIjNS4_IjEEEEEEC2B8ne180100ERKS3_RKS5_', symObjAddr: 0x87E4, symBinAddr: 0x100012F1C, symSize: 0x5C }
  - { offset: 0x3BEBC, size: 0x8, addend: 0x0, symName: '__ZNSt3__117__compressed_pairIZN5Table17materializeColumnEtE3$_0NS_9allocatorIS2_EEEC1B8ne180100IJRKS2_EJRKS4_EEENS_21piecewise_construct_tENS_5tupleIJDpT_EEENSC_IJDpT0_EEE', symObjAddr: 0x886C, symBinAddr: 0x100012FA4, symSize: 0x3C }
  - { offset: 0x3BF24, size: 0x8, addend: 0x0, symName: '__ZNSt3__15tupleIJRKNS_9allocatorIZN5Table17materializeColumnEtE3$_0EEEEC1B8ne180100INS_4_AndELi0EEES6_', symObjAddr: 0x88A8, symBinAddr: 0x100012FE0, symSize: 0x34 }
  - { offset: 0x3BF6B, size: 0x8, addend: 0x0, symName: '__ZNSt3__15tupleIJRKNS_9allocatorIZN5Table17materializeColumnEtE3$_0EEEEC2B8ne180100INS_4_AndELi0EEES6_', symObjAddr: 0x88DC, symBinAddr: 0x100013014, symSize: 0x34 }
  - { offset: 0x3BFB2, size: 0x8, addend: 0x0, symName: '__ZNSt3__112__tuple_implINS_15__tuple_indicesIJLm0EEEEJRKNS_9allocatorIZN5Table17materializeColumnEtE3$_0EEEEC1B8ne180100IJLm0EEJS8_EJEJEJS8_EEENS1_IJXspT_EEEENS_13__tuple_typesIJDpT0_EEENS1_IJXspT1_EEEENSC_IJDpT2_EEEDpOT3_', symObjAddr: 0x8910, symBinAddr: 0x100013048, symSize: 0x34 }
  - { offset: 0x3C041, size: 0x8, addend: 0x0, symName: '__ZNSt3__112__tuple_implINS_15__tuple_indicesIJLm0EEEEJRKNS_9allocatorIZN5Table17materializeColumnEtE3$_0EEEEC2B8ne180100IJLm0EEJS8_EJEJEJS8_EEENS1_IJXspT_EEEENS_13__tuple_typesIJDpT0_EEENS1_IJXspT1_EEEENSC_IJDpT2_EEEDpOT3_', symObjAddr: 0x8944, symBinAddr: 0x10001307C, symSize: 0x34 }
  - { offset: 0x3C0D0, size: 0x8, addend: 0x0, symName: '__ZNSt3__112__tuple_leafILm0ERKNS_9allocatorIZN5Table17materializeColumnEtE3$_0EELb0EEC2B8ne180100IS6_vEEOT_', symObjAddr: 0x8978, symBinAddr: 0x1000130B0, symSize: 0x20 }
  - { offset: 0x3C111, size: 0x8, addend: 0x0, symName: '__ZNSt3__117__compressed_pairIZN5Table17materializeColumnEtE3$_0NS_9allocatorIS2_EEEC2B8ne180100IJRKS2_EJRKS4_EEENS_21piecewise_construct_tENS_5tupleIJDpT_EEENSC_IJDpT0_EEE', symObjAddr: 0x8998, symBinAddr: 0x1000130D0, symSize: 0x54 }
  - { offset: 0x3C179, size: 0x8, addend: 0x0, symName: '__ZNSt3__122__compressed_pair_elemINS_9allocatorIZN5Table17materializeColumnEtE3$_0EELi1ELb1EEC2B8ne180100IJRKS4_EJLm0EEEENS_21piecewise_construct_tENS_5tupleIJDpT_EEENS_15__tuple_indicesIJXspT0_EEEE', symObjAddr: 0x89EC, symBinAddr: 0x100013124, symSize: 0x38 }
  - { offset: 0x3C1DA, size: 0x8, addend: 0x0, symName: '__ZNSt3__112__tuple_leafILm0ERKNS_9allocatorIZN5Table17materializeColumnEtE3$_0EELb0EE3getB8ne180100Ev', symObjAddr: 0x8A48, symBinAddr: 0x100013180, symSize: 0x18 }
  - { offset: 0x3C1FE, size: 0x8, addend: 0x0, symName: '__ZNSt3__110__function12__alloc_funcIZN5Table17materializeColumnEtE3$_0NS_9allocatorIS3_EEFvjRKNS_6vectorIjNS4_IjEEEEEE7destroyB8ne180100Ev', symObjAddr: 0x8A60, symBinAddr: 0x100013198, symSize: 0x10 }
  - { offset: 0x3C222, size: 0x8, addend: 0x0, symName: '__ZNSt3__110__function12__alloc_funcIZN5Table17materializeColumnEtE3$_0NS_9allocatorIS3_EEFvjRKNS_6vectorIjNS4_IjEEEEEEclB8ne180100EOjSA_', symObjAddr: 0x8A70, symBinAddr: 0x1000131A8, symSize: 0x38 }
  - { offset: 0x3C262, size: 0x8, addend: 0x0, symName: '__ZNSt3__128__invoke_void_return_wrapperIvLb1EE6__callB8ne180100IJRZN5Table17materializeColumnEtE3$_0jRKNS_6vectorIjNS_9allocatorIjEEEEEEEvDpOT_', symObjAddr: 0x8AA8, symBinAddr: 0x1000131E0, symSize: 0x34 }
  - { offset: 0x3C2B8, size: 0x8, addend: 0x0, symName: '__ZNSt3__117__compressed_pairIZN5Table17materializeColumnEtE3$_0NS_9allocatorIS2_EEE5firstB8ne180100Ev', symObjAddr: 0x8ADC, symBinAddr: 0x100013214, symSize: 0x24 }
  - { offset: 0x3C2E1, size: 0x8, addend: 0x0, symName: '__ZZN5Table17materializeColumnEtENK3$_0clEjRKNSt3__16vectorIjNS1_9allocatorIjEEEE', symObjAddr: 0x8B38, symBinAddr: 0x100013270, symSize: 0xAC }
  - { offset: 0x3C32F, size: 0x8, addend: 0x0, symName: __ZNKSt3__123__optional_storage_baseIjLb0EE9has_valueB8ne180100Ev, symObjAddr: 0x8BE4, symBinAddr: 0x10001331C, symSize: 0x1C }
  - { offset: 0x3C353, size: 0x8, addend: 0x0, symName: __ZNSt3__16vectorIjNS_9allocatorIjEEE9push_backB8ne180100ERKj, symObjAddr: 0x8C00, symBinAddr: 0x100013338, symSize: 0x90 }
  - { offset: 0x3C397, size: 0x8, addend: 0x0, symName: __ZNRSt3__18optionalIjEdeB8ne180100Ev, symObjAddr: 0x8C90, symBinAddr: 0x1000133C8, symSize: 0x24 }
  - { offset: 0x3C3BB, size: 0x8, addend: 0x0, symName: __ZNSt3__16vectorIjNS_9allocatorIjEEE22__construct_one_at_endB8ne180100IJRKjEEEvDpOT_, symObjAddr: 0x8CB4, symBinAddr: 0x1000133EC, symSize: 0x90 }
  - { offset: 0x3C408, size: 0x8, addend: 0x0, symName: __ZNSt3__16vectorIjNS_9allocatorIjEEE21__push_back_slow_pathIRKjEEPjOT_, symObjAddr: 0x8D44, symBinAddr: 0x10001347C, symSize: 0xE8 }
  - { offset: 0x3C464, size: 0x8, addend: 0x0, symName: __ZNSt3__116allocator_traitsINS_9allocatorIjEEE9constructB8ne180100IjJRKjEvEEvRS2_PT_DpOT0_, symObjAddr: 0x8E2C, symBinAddr: 0x100013564, symSize: 0x34 }
  - { offset: 0x3C4BA, size: 0x8, addend: 0x0, symName: __ZNSt3__19allocatorIjE9constructB8ne180100IjJRKjEEEvPT_DpOT0_, symObjAddr: 0x8E60, symBinAddr: 0x100013598, symSize: 0x28 }
  - { offset: 0x3C50E, size: 0x8, addend: 0x0, symName: __ZNRSt3__123__optional_storage_baseIjLb0EE5__getB8ne180100Ev, symObjAddr: 0x8F3C, symBinAddr: 0x1000135C0, symSize: 0x14 }
  - { offset: 0x3C532, size: 0x8, addend: 0x0, symName: '__ZNSt3__122__compressed_pair_elemIZN5Table17materializeColumnEtE3$_0Li0ELb0EE5__getB8ne180100Ev', symObjAddr: 0x8F50, symBinAddr: 0x1000135D4, symSize: 0x14 }
  - { offset: 0x3C58A, size: 0x8, addend: 0x0, symName: __ZNKSt9type_infoeqB8ne180100ERKS_, symObjAddr: 0x8F64, symBinAddr: 0x1000135E8, symSize: 0xDC }
  - { offset: 0x3C624, size: 0x8, addend: 0x0, symName: __ZNSt27__type_info_implementations30__non_unique_arm_rtti_bit_impl21__is_type_name_uniqueB8ne180100Em, symObjAddr: 0x9040, symBinAddr: 0x1000136C4, symSize: 0x20 }
  - { offset: 0x3C647, size: 0x8, addend: 0x0, symName: '__ZNSt3__110unique_ptrINS_10__function6__baseIFvjRKNS_6vectorIjNS_9allocatorIjEEEEEEENS_22__allocator_destructorINS4_INS1_6__funcIZN5Table17materializeColumnEtE3$_0NS4_ISE_EES9_EEEEEEED2B8ne180100Ev', symObjAddr: 0x9060, symBinAddr: 0x1000136E4, symSize: 0x30 }
  - { offset: 0x3C66F, size: 0x8, addend: 0x0, symName: '__ZNSt3__110unique_ptrINS_10__function6__baseIFvjRKNS_6vectorIjNS_9allocatorIjEEEEEEENS_22__allocator_destructorINS4_INS1_6__funcIZN5Table17materializeColumnEtE3$_0NS4_ISE_EES9_EEEEEEE5resetB8ne180100EPSG_', symObjAddr: 0x9090, symBinAddr: 0x100013714, symSize: 0x78 }
  - { offset: 0x3C6B1, size: 0x8, addend: 0x0, symName: __ZNSt3__18functionIFvjRKNS_6vectorIjNS_9allocatorIjEEEEEED2Ev, symObjAddr: 0x9108, symBinAddr: 0x10001378C, symSize: 0x2C }
  - { offset: 0x3C6DB, size: 0x8, addend: 0x0, symName: __ZNSt3__110__function12__value_funcIFvjRKNS_6vectorIjNS_9allocatorIjEEEEEED1B8ne180100Ev, symObjAddr: 0x9134, symBinAddr: 0x1000137B8, symSize: 0x2C }
  - { offset: 0x3C703, size: 0x8, addend: 0x0, symName: __ZNSt3__110__function12__value_funcIFvjRKNS_6vectorIjNS_9allocatorIjEEEEEED2B8ne180100Ev, symObjAddr: 0x9160, symBinAddr: 0x1000137E4, symSize: 0x90 }
  - { offset: 0x3C72B, size: 0x8, addend: 0x0, symName: '__ZNSt3__18functionIFvjRKNS_6vectorIjNS_9allocatorIjEEEEEEC2IZN5Table10scanEqualsEtjE3$_0vEET_', symObjAddr: 0x91F0, symBinAddr: 0x100013874, symSize: 0x34 }
  - { offset: 0x3C76F, size: 0x8, addend: 0x0, symName: '__ZNSt3__110__function12__value_funcIFvjRKNS_6vectorIjNS_9allocatorIjEEEEEEC1B8ne180100IZN5Table10scanEqualsEtjE3$_0Li0EEEOT_', symObjAddr: 0x9224, symBinAddr: 0x1000138A8, symSize: 0x50 }
  - { offset: 0x3C7B5, size: 0x8, addend: 0x0, symName: '__ZNSt3__19allocatorIZN5Table10scanEqualsEtjE3$_0EC1B8ne180100Ev', symObjAddr: 0x9274, symBinAddr: 0x1000138F8, symSize: 0x2C }
  - { offset: 0x3C7DD, size: 0x8, addend: 0x0, symName: '__ZNSt3__110__function12__value_funcIFvjRKNS_6vectorIjNS_9allocatorIjEEEEEEC1B8ne180100IZN5Table10scanEqualsEtjE3$_0NS3_ISC_EEEEOT_RKT0_', symObjAddr: 0x92A0, symBinAddr: 0x100013924, symSize: 0x3C }
  - { offset: 0x3C835, size: 0x8, addend: 0x0, symName: '__ZNSt3__19allocatorIZN5Table10scanEqualsEtjE3$_0EC2B8ne180100Ev', symObjAddr: 0x92DC, symBinAddr: 0x100013960, symSize: 0x2C }
  - { offset: 0x3C85D, size: 0x8, addend: 0x0, symName: '__ZNSt3__116__non_trivial_ifILb1ENS_9allocatorIZN5Table10scanEqualsEtjE3$_0EEEC2B8ne180100Ev', symObjAddr: 0x9308, symBinAddr: 0x10001398C, symSize: 0x14 }
  - { offset: 0x3C885, size: 0x8, addend: 0x0, symName: '__ZNSt3__110__function12__value_funcIFvjRKNS_6vectorIjNS_9allocatorIjEEEEEEC2B8ne180100IZN5Table10scanEqualsEtjE3$_0NS3_ISC_EEEEOT_RKT0_', symObjAddr: 0x931C, symBinAddr: 0x1000139A0, symSize: 0xF4 }
  - { offset: 0x3C936, size: 0x8, addend: 0x0, symName: '__ZNSt3__19allocatorINS_10__function6__funcIZN5Table10scanEqualsEtjE3$_0NS0_IS4_EEFvjRKNS_6vectorIjNS0_IjEEEEEEEEC1B8ne180100IS4_EERKNS0_IT_EE', symObjAddr: 0x9428, symBinAddr: 0x100013AAC, symSize: 0x34 }
  - { offset: 0x3C971, size: 0x8, addend: 0x0, symName: '__ZNSt3__19allocatorINS_10__function6__funcIZN5Table10scanEqualsEtjE3$_0NS0_IS4_EEFvjRKNS_6vectorIjNS0_IjEEEEEEEE8allocateB8ne180100Em', symObjAddr: 0x945C, symBinAddr: 0x100013AE0, symSize: 0x5C }
  - { offset: 0x3C9B2, size: 0x8, addend: 0x0, symName: '__ZNSt3__122__allocator_destructorINS_9allocatorINS_10__function6__funcIZN5Table10scanEqualsEtjE3$_0NS1_IS5_EEFvjRKNS_6vectorIjNS1_IjEEEEEEEEEEC1B8ne180100ERSE_m', symObjAddr: 0x94B8, symBinAddr: 0x100013B3C, symSize: 0x3C }
  - { offset: 0x3CA82, size: 0x8, addend: 0x0, symName: '__ZNSt3__110unique_ptrINS_10__function6__baseIFvjRKNS_6vectorIjNS_9allocatorIjEEEEEEENS_22__allocator_destructorINS4_INS1_6__funcIZN5Table10scanEqualsEtjE3$_0NS4_ISE_EES9_EEEEEEEC1B8ne180100ILb1EvEEPSG_NS_16__dependent_typeINS_27__unique_ptr_deleter_sfinaeISI_EEXT_EE20__good_rval_ref_typeE', symObjAddr: 0x94F4, symBinAddr: 0x100013B78, symSize: 0x3C }
  - { offset: 0x3CAD1, size: 0x8, addend: 0x0, symName: '__ZNKSt3__110unique_ptrINS_10__function6__baseIFvjRKNS_6vectorIjNS_9allocatorIjEEEEEEENS_22__allocator_destructorINS4_INS1_6__funcIZN5Table10scanEqualsEtjE3$_0NS4_ISE_EES9_EEEEEEE3getB8ne180100Ev', symObjAddr: 0x9530, symBinAddr: 0x100013BB4, symSize: 0x28 }
  - { offset: 0x3CAF5, size: 0x8, addend: 0x0, symName: '__ZNSt3__110__function6__funcIZN5Table10scanEqualsEtjE3$_0NS_9allocatorIS3_EEFvjRKNS_6vectorIjNS4_IjEEEEEEC1B8ne180100EOS3_OS5_', symObjAddr: 0x9558, symBinAddr: 0x100013BDC, symSize: 0x3C }
  - { offset: 0x3CB3B, size: 0x8, addend: 0x0, symName: '__ZNSt3__110unique_ptrINS_10__function6__baseIFvjRKNS_6vectorIjNS_9allocatorIjEEEEEEENS_22__allocator_destructorINS4_INS1_6__funcIZN5Table10scanEqualsEtjE3$_0NS4_ISE_EES9_EEEEEEE7releaseB8ne180100Ev', symObjAddr: 0x9594, symBinAddr: 0x100013C18, symSize: 0x44 }
  - { offset: 0x3CB6E, size: 0x8, addend: 0x0, symName: '__ZNSt3__110unique_ptrINS_10__function6__baseIFvjRKNS_6vectorIjNS_9allocatorIjEEEEEEENS_22__allocator_destructorINS4_INS1_6__funcIZN5Table10scanEqualsEtjE3$_0NS4_ISE_EES9_EEEEEEED1B8ne180100Ev', symObjAddr: 0x95D8, symBinAddr: 0x100013C5C, symSize: 0x2C }
  - { offset: 0x3CB96, size: 0x8, addend: 0x0, symName: '__ZNSt3__19allocatorINS_10__function6__funcIZN5Table10scanEqualsEtjE3$_0NS0_IS4_EEFvjRKNS_6vectorIjNS0_IjEEEEEEEEC2B8ne180100IS4_EERKNS0_IT_EE', symObjAddr: 0x9604, symBinAddr: 0x100013C88, symSize: 0x30 }
  - { offset: 0x3CBD1, size: 0x8, addend: 0x0, symName: '__ZNSt3__116__non_trivial_ifILb1ENS_9allocatorINS_10__function6__funcIZN5Table10scanEqualsEtjE3$_0NS1_IS5_EEFvjRKNS_6vectorIjNS1_IjEEEEEEEEEEC2B8ne180100Ev', symObjAddr: 0x9634, symBinAddr: 0x100013CB8, symSize: 0x14 }
  - { offset: 0x3CC03, size: 0x8, addend: 0x0, symName: '__ZNSt3__116allocator_traitsINS_9allocatorINS_10__function6__funcIZN5Table10scanEqualsEtjE3$_0NS1_IS5_EEFvjRKNS_6vectorIjNS1_IjEEEEEEEEEE8max_sizeB8ne180100ISE_vEEmRKSE_', symObjAddr: 0x9648, symBinAddr: 0x100013CCC, symSize: 0x24 }
  - { offset: 0x3CC30, size: 0x8, addend: 0x0, symName: '__ZNKSt3__19allocatorINS_10__function6__funcIZN5Table10scanEqualsEtjE3$_0NS0_IS4_EEFvjRKNS_6vectorIjNS0_IjEEEEEEEE8max_sizeB8ne180100Ev', symObjAddr: 0x966C, symBinAddr: 0x100013CF0, symSize: 0x18 }
  - { offset: 0x3CC54, size: 0x8, addend: 0x0, symName: '__ZNSt3__122__allocator_destructorINS_9allocatorINS_10__function6__funcIZN5Table10scanEqualsEtjE3$_0NS1_IS5_EEFvjRKNS_6vectorIjNS1_IjEEEEEEEEEEC2B8ne180100ERSE_m', symObjAddr: 0x9684, symBinAddr: 0x100013D08, symSize: 0x2C }
  - { offset: 0x3CC98, size: 0x8, addend: 0x0, symName: '__ZNSt3__110unique_ptrINS_10__function6__baseIFvjRKNS_6vectorIjNS_9allocatorIjEEEEEEENS_22__allocator_destructorINS4_INS1_6__funcIZN5Table10scanEqualsEtjE3$_0NS4_ISE_EES9_EEEEEEEC2B8ne180100ILb1EvEEPSG_NS_16__dependent_typeINS_27__unique_ptr_deleter_sfinaeISI_EEXT_EE20__good_rval_ref_typeE', symObjAddr: 0x96B0, symBinAddr: 0x100013D34, symSize: 0x48 }
  - { offset: 0x3CCE7, size: 0x8, addend: 0x0, symName: '__ZNSt3__117__compressed_pairIPNS_10__function6__funcIZN5Table10scanEqualsEtjE3$_0NS_9allocatorIS4_EEFvjRKNS_6vectorIjNS5_IjEEEEEEENS_22__allocator_destructorINS5_ISD_EEEEEC1B8ne180100IRSE_SH_EEOT_OT0_', symObjAddr: 0x96F8, symBinAddr: 0x100013D7C, symSize: 0x3C }
  - { offset: 0x3CD3D, size: 0x8, addend: 0x0, symName: '__ZNSt3__117__compressed_pairIPNS_10__function6__funcIZN5Table10scanEqualsEtjE3$_0NS_9allocatorIS4_EEFvjRKNS_6vectorIjNS5_IjEEEEEEENS_22__allocator_destructorINS5_ISD_EEEEEC2B8ne180100IRSE_SH_EEOT_OT0_', symObjAddr: 0x9734, symBinAddr: 0x100013DB8, symSize: 0x48 }
  - { offset: 0x3CD93, size: 0x8, addend: 0x0, symName: '__ZNSt3__122__compressed_pair_elemIPNS_10__function6__funcIZN5Table10scanEqualsEtjE3$_0NS_9allocatorIS4_EEFvjRKNS_6vectorIjNS5_IjEEEEEEELi0ELb0EEC2B8ne180100IRSE_vEEOT_', symObjAddr: 0x977C, symBinAddr: 0x100013E00, symSize: 0x24 }
  - { offset: 0x3CDD3, size: 0x8, addend: 0x0, symName: '__ZNSt3__122__compressed_pair_elemINS_22__allocator_destructorINS_9allocatorINS_10__function6__funcIZN5Table10scanEqualsEtjE3$_0NS2_IS6_EEFvjRKNS_6vectorIjNS2_IjEEEEEEEEEEELi1ELb0EEC2B8ne180100ISG_vEEOT_', symObjAddr: 0x97A0, symBinAddr: 0x100013E24, symSize: 0x24 }
  - { offset: 0x3CE13, size: 0x8, addend: 0x0, symName: '__ZNKSt3__117__compressed_pairIPNS_10__function6__funcIZN5Table10scanEqualsEtjE3$_0NS_9allocatorIS4_EEFvjRKNS_6vectorIjNS5_IjEEEEEEENS_22__allocator_destructorINS5_ISD_EEEEE5firstB8ne180100Ev', symObjAddr: 0x97C4, symBinAddr: 0x100013E48, symSize: 0x24 }
  - { offset: 0x3CE37, size: 0x8, addend: 0x0, symName: '__ZNKSt3__122__compressed_pair_elemIPNS_10__function6__funcIZN5Table10scanEqualsEtjE3$_0NS_9allocatorIS4_EEFvjRKNS_6vectorIjNS5_IjEEEEEEELi0ELb0EE5__getB8ne180100Ev', symObjAddr: 0x97E8, symBinAddr: 0x100013E6C, symSize: 0x14 }
  - { offset: 0x3CE5B, size: 0x8, addend: 0x0, symName: '__ZNSt3__110__function6__funcIZN5Table10scanEqualsEtjE3$_0NS_9allocatorIS3_EEFvjRKNS_6vectorIjNS4_IjEEEEEEC2B8ne180100EOS3_OS5_', symObjAddr: 0x97FC, symBinAddr: 0x100013E80, symSize: 0x80 }
  - { offset: 0x3CEA1, size: 0x8, addend: 0x0, symName: '__ZNSt3__110__function12__alloc_funcIZN5Table10scanEqualsEtjE3$_0NS_9allocatorIS3_EEFvjRKNS_6vectorIjNS4_IjEEEEEEC1B8ne180100EOS3_OS5_', symObjAddr: 0x987C, symBinAddr: 0x100013F00, symSize: 0x3C }
  - { offset: 0x3CEE5, size: 0x8, addend: 0x0, symName: '__ZNSt3__110__function6__funcIZN5Table10scanEqualsEtjE3$_0NS_9allocatorIS3_EEFvjRKNS_6vectorIjNS4_IjEEEEEED1Ev', symObjAddr: 0x98B8, symBinAddr: 0x100013F3C, symSize: 0x2C }
  - { offset: 0x3CF0F, size: 0x8, addend: 0x0, symName: '__ZNSt3__110__function6__funcIZN5Table10scanEqualsEtjE3$_0NS_9allocatorIS3_EEFvjRKNS_6vectorIjNS4_IjEEEEEED0Ev', symObjAddr: 0x98E4, symBinAddr: 0x100013F68, symSize: 0x30 }
  - { offset: 0x3CF39, size: 0x8, addend: 0x0, symName: '__ZNKSt3__110__function6__funcIZN5Table10scanEqualsEtjE3$_0NS_9allocatorIS3_EEFvjRKNS_6vectorIjNS4_IjEEEEEE7__cloneEv', symObjAddr: 0x9914, symBinAddr: 0x100013F98, symSize: 0xFC }
  - { offset: 0x3CF89, size: 0x8, addend: 0x0, symName: '__ZNKSt3__110__function6__funcIZN5Table10scanEqualsEtjE3$_0NS_9allocatorIS3_EEFvjRKNS_6vectorIjNS4_IjEEEEEE7__cloneEPNS0_6__baseISB_EE', symObjAddr: 0x9A10, symBinAddr: 0x100014094, symSize: 0x58 }
  - { offset: 0x3CFBE, size: 0x8, addend: 0x0, symName: '__ZNSt3__110__function6__funcIZN5Table10scanEqualsEtjE3$_0NS_9allocatorIS3_EEFvjRKNS_6vectorIjNS4_IjEEEEEE7destroyEv', symObjAddr: 0x9A68, symBinAddr: 0x1000140EC, symSize: 0x28 }
  - { offset: 0x3CFE4, size: 0x8, addend: 0x0, symName: '__ZNSt3__110__function6__funcIZN5Table10scanEqualsEtjE3$_0NS_9allocatorIS3_EEFvjRKNS_6vectorIjNS4_IjEEEEEE18destroy_deallocateEv', symObjAddr: 0x9A90, symBinAddr: 0x100014114, symSize: 0x58 }
  - { offset: 0x3D025, size: 0x8, addend: 0x0, symName: '__ZNSt3__110__function6__funcIZN5Table10scanEqualsEtjE3$_0NS_9allocatorIS3_EEFvjRKNS_6vectorIjNS4_IjEEEEEEclEOjSA_', symObjAddr: 0x9AE8, symBinAddr: 0x10001416C, symSize: 0x38 }
  - { offset: 0x3D069, size: 0x8, addend: 0x0, symName: '__ZNKSt3__110__function6__funcIZN5Table10scanEqualsEtjE3$_0NS_9allocatorIS3_EEFvjRKNS_6vectorIjNS4_IjEEEEEE6targetERKSt9type_info', symObjAddr: 0x9B20, symBinAddr: 0x1000141A4, symSize: 0x60 }
  - { offset: 0x3D09F, size: 0x8, addend: 0x0, symName: '__ZNKSt3__110__function6__funcIZN5Table10scanEqualsEtjE3$_0NS_9allocatorIS3_EEFvjRKNS_6vectorIjNS4_IjEEEEEE11target_typeEv', symObjAddr: 0x9B80, symBinAddr: 0x100014204, symSize: 0x18 }
  - { offset: 0x3D0C5, size: 0x8, addend: 0x0, symName: '__ZNSt3__110__function12__alloc_funcIZN5Table10scanEqualsEtjE3$_0NS_9allocatorIS3_EEFvjRKNS_6vectorIjNS4_IjEEEEEEC2B8ne180100EOS3_OS5_', symObjAddr: 0x9B98, symBinAddr: 0x10001421C, symSize: 0x5C }
  - { offset: 0x3D109, size: 0x8, addend: 0x0, symName: '__ZNSt3__117__compressed_pairIZN5Table10scanEqualsEtjE3$_0NS_9allocatorIS2_EEEC1B8ne180100IJOS2_EJOS4_EEENS_21piecewise_construct_tENS_5tupleIJDpT_EEENSA_IJDpT0_EEE', symObjAddr: 0x9C4C, symBinAddr: 0x1000142D0, symSize: 0x3C }
  - { offset: 0x3D171, size: 0x8, addend: 0x0, symName: '__ZNSt3__15tupleIJOZN5Table10scanEqualsEtjE3$_0EEC1B8ne180100IJS2_ELi0EEEDpOT_', symObjAddr: 0x9C88, symBinAddr: 0x10001430C, symSize: 0x34 }
  - { offset: 0x3D1B9, size: 0x8, addend: 0x0, symName: '__ZNSt3__15tupleIJOZN5Table10scanEqualsEtjE3$_0EEC2B8ne180100IJS2_ELi0EEEDpOT_', symObjAddr: 0x9CBC, symBinAddr: 0x100014340, symSize: 0x34 }
  - { offset: 0x3D201, size: 0x8, addend: 0x0, symName: '__ZNSt3__112__tuple_implINS_15__tuple_indicesIJLm0EEEEJOZN5Table10scanEqualsEtjE3$_0EEC1B8ne180100IJLm0EEJS5_EJEJEJS4_EEENS1_IJXspT_EEEENS_13__tuple_typesIJDpT0_EEENS1_IJXspT1_EEEENS9_IJDpT2_EEEDpOT3_', symObjAddr: 0x9CF0, symBinAddr: 0x100014374, symSize: 0x34 }
  - { offset: 0x3D290, size: 0x8, addend: 0x0, symName: '__ZNSt3__112__tuple_implINS_15__tuple_indicesIJLm0EEEEJOZN5Table10scanEqualsEtjE3$_0EEC2B8ne180100IJLm0EEJS5_EJEJEJS4_EEENS1_IJXspT_EEEENS_13__tuple_typesIJDpT0_EEENS1_IJXspT1_EEEENS9_IJDpT2_EEEDpOT3_', symObjAddr: 0x9D24, symBinAddr: 0x1000143A8, symSize: 0x34 }
  - { offset: 0x3D31F, size: 0x8, addend: 0x0, symName: '__ZNSt3__112__tuple_leafILm0EOZN5Table10scanEqualsEtjE3$_0Lb0EEC2B8ne180100IS2_vEEOT_', symObjAddr: 0x9D58, symBinAddr: 0x1000143DC, symSize: 0x20 }
  - { offset: 0x3D360, size: 0x8, addend: 0x0, symName: '__ZNSt3__15tupleIJONS_9allocatorIZN5Table10scanEqualsEtjE3$_0EEEEC1B8ne180100IJS4_ELi0EEEDpOT_', symObjAddr: 0x9D78, symBinAddr: 0x1000143FC, symSize: 0x34 }
  - { offset: 0x3D3A8, size: 0x8, addend: 0x0, symName: '__ZNSt3__15tupleIJONS_9allocatorIZN5Table10scanEqualsEtjE3$_0EEEEC2B8ne180100IJS4_ELi0EEEDpOT_', symObjAddr: 0x9DAC, symBinAddr: 0x100014430, symSize: 0x34 }
  - { offset: 0x3D3F0, size: 0x8, addend: 0x0, symName: '__ZNSt3__112__tuple_implINS_15__tuple_indicesIJLm0EEEEJONS_9allocatorIZN5Table10scanEqualsEtjE3$_0EEEEC1B8ne180100IJLm0EEJS7_EJEJEJS6_EEENS1_IJXspT_EEEENS_13__tuple_typesIJDpT0_EEENS1_IJXspT1_EEEENSB_IJDpT2_EEEDpOT3_', symObjAddr: 0x9DE0, symBinAddr: 0x100014464, symSize: 0x34 }
  - { offset: 0x3D47F, size: 0x8, addend: 0x0, symName: '__ZNSt3__112__tuple_implINS_15__tuple_indicesIJLm0EEEEJONS_9allocatorIZN5Table10scanEqualsEtjE3$_0EEEEC2B8ne180100IJLm0EEJS7_EJEJEJS6_EEENS1_IJXspT_EEEENS_13__tuple_typesIJDpT0_EEENS1_IJXspT1_EEEENSB_IJDpT2_EEEDpOT3_', symObjAddr: 0x9E14, symBinAddr: 0x100014498, symSize: 0x34 }
  - { offset: 0x3D50E, size: 0x8, addend: 0x0, symName: '__ZNSt3__112__tuple_leafILm0EONS_9allocatorIZN5Table10scanEqualsEtjE3$_0EELb0EEC2B8ne180100IS4_vEEOT_', symObjAddr: 0x9E48, symBinAddr: 0x1000144CC, symSize: 0x20 }
  - { offset: 0x3D54F, size: 0x8, addend: 0x0, symName: '__ZNSt3__117__compressed_pairIZN5Table10scanEqualsEtjE3$_0NS_9allocatorIS2_EEEC2B8ne180100IJOS2_EJOS4_EEENS_21piecewise_construct_tENS_5tupleIJDpT_EEENSA_IJDpT0_EEE', symObjAddr: 0x9E68, symBinAddr: 0x1000144EC, symSize: 0x54 }
  - { offset: 0x3D5B7, size: 0x8, addend: 0x0, symName: '__ZNSt3__122__compressed_pair_elemIZN5Table10scanEqualsEtjE3$_0Li0ELb0EEC2B8ne180100IJOS2_EJLm0EEEENS_21piecewise_construct_tENS_5tupleIJDpT_EEENS_15__tuple_indicesIJXspT0_EEEE', symObjAddr: 0x9EBC, symBinAddr: 0x100014540, symSize: 0x4C }
  - { offset: 0x3D618, size: 0x8, addend: 0x0, symName: '__ZNSt3__122__compressed_pair_elemINS_9allocatorIZN5Table10scanEqualsEtjE3$_0EELi1ELb1EEC2B8ne180100IJOS4_EJLm0EEEENS_21piecewise_construct_tENS_5tupleIJDpT_EEENS_15__tuple_indicesIJXspT0_EEEE', symObjAddr: 0x9F08, symBinAddr: 0x10001458C, symSize: 0x38 }
  - { offset: 0x3D679, size: 0x8, addend: 0x0, symName: '__ZNSt3__112__tuple_leafILm0EOZN5Table10scanEqualsEtjE3$_0Lb0EE3getB8ne180100Ev', symObjAddr: 0x9F64, symBinAddr: 0x1000145E8, symSize: 0x18 }
  - { offset: 0x3D69D, size: 0x8, addend: 0x0, symName: '__ZNSt3__112__tuple_leafILm0EONS_9allocatorIZN5Table10scanEqualsEtjE3$_0EELb0EE3getB8ne180100Ev', symObjAddr: 0x9FA0, symBinAddr: 0x100014624, symSize: 0x18 }
  - { offset: 0x3D6C1, size: 0x8, addend: 0x0, symName: '__ZNSt3__110__function6__funcIZN5Table10scanEqualsEtjE3$_0NS_9allocatorIS3_EEFvjRKNS_6vectorIjNS4_IjEEEEEED2Ev', symObjAddr: 0x9FB8, symBinAddr: 0x10001463C, symSize: 0x2C }
  - { offset: 0x3D6EB, size: 0x8, addend: 0x0, symName: '__ZNKSt3__110__function12__alloc_funcIZN5Table10scanEqualsEtjE3$_0NS_9allocatorIS3_EEFvjRKNS_6vectorIjNS4_IjEEEEEE15__get_allocatorB8ne180100Ev', symObjAddr: 0x9FE4, symBinAddr: 0x100014668, symSize: 0x24 }
  - { offset: 0x3D737, size: 0x8, addend: 0x0, symName: '__ZNSt3__110unique_ptrINS_10__function6__funcIZN5Table10scanEqualsEtjE3$_0NS_9allocatorIS4_EEFvjRKNS_6vectorIjNS5_IjEEEEEEENS_22__allocator_destructorINS5_ISD_EEEEEC1B8ne180100ILb1EvEEPSD_NS_16__dependent_typeINS_27__unique_ptr_deleter_sfinaeISG_EEXT_EE20__good_rval_ref_typeE', symObjAddr: 0xA008, symBinAddr: 0x10001468C, symSize: 0x3C }
  - { offset: 0x3D786, size: 0x8, addend: 0x0, symName: '__ZNKSt3__110unique_ptrINS_10__function6__funcIZN5Table10scanEqualsEtjE3$_0NS_9allocatorIS4_EEFvjRKNS_6vectorIjNS5_IjEEEEEEENS_22__allocator_destructorINS5_ISD_EEEEE3getB8ne180100Ev', symObjAddr: 0xA044, symBinAddr: 0x1000146C8, symSize: 0x28 }
  - { offset: 0x3D7AA, size: 0x8, addend: 0x0, symName: '__ZNKSt3__110__function12__alloc_funcIZN5Table10scanEqualsEtjE3$_0NS_9allocatorIS3_EEFvjRKNS_6vectorIjNS4_IjEEEEEE8__targetB8ne180100Ev', symObjAddr: 0xA06C, symBinAddr: 0x1000146F0, symSize: 0x24 }
  - { offset: 0x3D7D3, size: 0x8, addend: 0x0, symName: '__ZNSt3__19allocatorIZN5Table10scanEqualsEtjE3$_0EC1B8ne180100INS_10__function6__funcIS2_S3_FvjRKNS_6vectorIjNS0_IjEEEEEEEEERKNS0_IT_EE', symObjAddr: 0xA090, symBinAddr: 0x100014714, symSize: 0x34 }
  - { offset: 0x3D80E, size: 0x8, addend: 0x0, symName: '__ZNSt3__110__function6__funcIZN5Table10scanEqualsEtjE3$_0NS_9allocatorIS3_EEFvjRKNS_6vectorIjNS4_IjEEEEEEC1B8ne180100ERKS3_OS5_', symObjAddr: 0xA0C4, symBinAddr: 0x100014748, symSize: 0x3C }
  - { offset: 0x3D854, size: 0x8, addend: 0x0, symName: '__ZNSt3__110unique_ptrINS_10__function6__funcIZN5Table10scanEqualsEtjE3$_0NS_9allocatorIS4_EEFvjRKNS_6vectorIjNS5_IjEEEEEEENS_22__allocator_destructorINS5_ISD_EEEEE7releaseB8ne180100Ev', symObjAddr: 0xA100, symBinAddr: 0x100014784, symSize: 0x44 }
  - { offset: 0x3D887, size: 0x8, addend: 0x0, symName: '__ZNSt3__110unique_ptrINS_10__function6__funcIZN5Table10scanEqualsEtjE3$_0NS_9allocatorIS4_EEFvjRKNS_6vectorIjNS5_IjEEEEEEENS_22__allocator_destructorINS5_ISD_EEEEED1B8ne180100Ev', symObjAddr: 0xA144, symBinAddr: 0x1000147C8, symSize: 0x2C }
  - { offset: 0x3D8AF, size: 0x8, addend: 0x0, symName: '__ZNKSt3__117__compressed_pairIZN5Table10scanEqualsEtjE3$_0NS_9allocatorIS2_EEE6secondB8ne180100Ev', symObjAddr: 0xA170, symBinAddr: 0x1000147F4, symSize: 0x24 }
  - { offset: 0x3D8D3, size: 0x8, addend: 0x0, symName: '__ZNKSt3__122__compressed_pair_elemINS_9allocatorIZN5Table10scanEqualsEtjE3$_0EELi1ELb1EE5__getB8ne180100Ev', symObjAddr: 0xA194, symBinAddr: 0x100014818, symSize: 0x14 }
  - { offset: 0x3D8F7, size: 0x8, addend: 0x0, symName: '__ZNSt3__110unique_ptrINS_10__function6__funcIZN5Table10scanEqualsEtjE3$_0NS_9allocatorIS4_EEFvjRKNS_6vectorIjNS5_IjEEEEEEENS_22__allocator_destructorINS5_ISD_EEEEEC2B8ne180100ILb1EvEEPSD_NS_16__dependent_typeINS_27__unique_ptr_deleter_sfinaeISG_EEXT_EE20__good_rval_ref_typeE', symObjAddr: 0xA1A8, symBinAddr: 0x10001482C, symSize: 0x48 }
  - { offset: 0x3D946, size: 0x8, addend: 0x0, symName: '__ZNKSt3__117__compressed_pairIZN5Table10scanEqualsEtjE3$_0NS_9allocatorIS2_EEE5firstB8ne180100Ev', symObjAddr: 0xA1F0, symBinAddr: 0x100014874, symSize: 0x24 }
  - { offset: 0x3D96A, size: 0x8, addend: 0x0, symName: '__ZNKSt3__122__compressed_pair_elemIZN5Table10scanEqualsEtjE3$_0Li0ELb0EE5__getB8ne180100Ev', symObjAddr: 0xA214, symBinAddr: 0x100014898, symSize: 0x14 }
  - { offset: 0x3D98E, size: 0x8, addend: 0x0, symName: '__ZNSt3__19allocatorIZN5Table10scanEqualsEtjE3$_0EC2B8ne180100INS_10__function6__funcIS2_S3_FvjRKNS_6vectorIjNS0_IjEEEEEEEEERKNS0_IT_EE', symObjAddr: 0xA228, symBinAddr: 0x1000148AC, symSize: 0x30 }
  - { offset: 0x3D9C9, size: 0x8, addend: 0x0, symName: '__ZNSt3__110__function6__funcIZN5Table10scanEqualsEtjE3$_0NS_9allocatorIS3_EEFvjRKNS_6vectorIjNS4_IjEEEEEEC2B8ne180100ERKS3_OS5_', symObjAddr: 0xA258, symBinAddr: 0x1000148DC, symSize: 0x80 }
  - { offset: 0x3DA0F, size: 0x8, addend: 0x0, symName: '__ZNSt3__110__function12__alloc_funcIZN5Table10scanEqualsEtjE3$_0NS_9allocatorIS3_EEFvjRKNS_6vectorIjNS4_IjEEEEEEC1B8ne180100ERKS3_OS5_', symObjAddr: 0xA2D8, symBinAddr: 0x10001495C, symSize: 0x3C }
  - { offset: 0x3DA53, size: 0x8, addend: 0x0, symName: '__ZNSt3__110__function12__alloc_funcIZN5Table10scanEqualsEtjE3$_0NS_9allocatorIS3_EEFvjRKNS_6vectorIjNS4_IjEEEEEEC2B8ne180100ERKS3_OS5_', symObjAddr: 0xA314, symBinAddr: 0x100014998, symSize: 0x5C }
  - { offset: 0x3DA97, size: 0x8, addend: 0x0, symName: '__ZNSt3__117__compressed_pairIZN5Table10scanEqualsEtjE3$_0NS_9allocatorIS2_EEEC1B8ne180100IJRKS2_EJOS4_EEENS_21piecewise_construct_tENS_5tupleIJDpT_EEENSB_IJDpT0_EEE', symObjAddr: 0xA39C, symBinAddr: 0x100014A20, symSize: 0x3C }
  - { offset: 0x3DAFF, size: 0x8, addend: 0x0, symName: '__ZNSt3__15tupleIJRKZN5Table10scanEqualsEtjE3$_0EEC1B8ne180100INS_4_AndELi0EEES4_', symObjAddr: 0xA3D8, symBinAddr: 0x100014A5C, symSize: 0x34 }
  - { offset: 0x3DB46, size: 0x8, addend: 0x0, symName: '__ZNSt3__15tupleIJRKZN5Table10scanEqualsEtjE3$_0EEC2B8ne180100INS_4_AndELi0EEES4_', symObjAddr: 0xA40C, symBinAddr: 0x100014A90, symSize: 0x34 }
  - { offset: 0x3DB8D, size: 0x8, addend: 0x0, symName: '__ZNSt3__112__tuple_implINS_15__tuple_indicesIJLm0EEEEJRKZN5Table10scanEqualsEtjE3$_0EEC1B8ne180100IJLm0EEJS6_EJEJEJS6_EEENS1_IJXspT_EEEENS_13__tuple_typesIJDpT0_EEENS1_IJXspT1_EEEENSA_IJDpT2_EEEDpOT3_', symObjAddr: 0xA440, symBinAddr: 0x100014AC4, symSize: 0x34 }
  - { offset: 0x3DC1C, size: 0x8, addend: 0x0, symName: '__ZNSt3__112__tuple_implINS_15__tuple_indicesIJLm0EEEEJRKZN5Table10scanEqualsEtjE3$_0EEC2B8ne180100IJLm0EEJS6_EJEJEJS6_EEENS1_IJXspT_EEEENS_13__tuple_typesIJDpT0_EEENS1_IJXspT1_EEEENSA_IJDpT2_EEEDpOT3_', symObjAddr: 0xA474, symBinAddr: 0x100014AF8, symSize: 0x34 }
  - { offset: 0x3DCAB, size: 0x8, addend: 0x0, symName: '__ZNSt3__112__tuple_leafILm0ERKZN5Table10scanEqualsEtjE3$_0Lb0EEC2B8ne180100IS4_vEEOT_', symObjAddr: 0xA4A8, symBinAddr: 0x100014B2C, symSize: 0x20 }
  - { offset: 0x3DCEC, size: 0x8, addend: 0x0, symName: '__ZNSt3__117__compressed_pairIZN5Table10scanEqualsEtjE3$_0NS_9allocatorIS2_EEEC2B8ne180100IJRKS2_EJOS4_EEENS_21piecewise_construct_tENS_5tupleIJDpT_EEENSB_IJDpT0_EEE', symObjAddr: 0xA4C8, symBinAddr: 0x100014B4C, symSize: 0x54 }
  - { offset: 0x3DD54, size: 0x8, addend: 0x0, symName: '__ZNSt3__122__compressed_pair_elemIZN5Table10scanEqualsEtjE3$_0Li0ELb0EEC2B8ne180100IJRKS2_EJLm0EEEENS_21piecewise_construct_tENS_5tupleIJDpT_EEENS_15__tuple_indicesIJXspT0_EEEE', symObjAddr: 0xA51C, symBinAddr: 0x100014BA0, symSize: 0x4C }
  - { offset: 0x3DDB5, size: 0x8, addend: 0x0, symName: '__ZNSt3__112__tuple_leafILm0ERKZN5Table10scanEqualsEtjE3$_0Lb0EE3getB8ne180100Ev', symObjAddr: 0xA58C, symBinAddr: 0x100014C10, symSize: 0x18 }
  - { offset: 0x3DDD9, size: 0x8, addend: 0x0, symName: '__ZNSt3__117__compressed_pairIPNS_10__function6__funcIZN5Table10scanEqualsEtjE3$_0NS_9allocatorIS4_EEFvjRKNS_6vectorIjNS5_IjEEEEEEENS_22__allocator_destructorINS5_ISD_EEEEE5firstB8ne180100Ev', symObjAddr: 0xA5A4, symBinAddr: 0x100014C28, symSize: 0x24 }
  - { offset: 0x3DDFD, size: 0x8, addend: 0x0, symName: '__ZNSt3__122__compressed_pair_elemIPNS_10__function6__funcIZN5Table10scanEqualsEtjE3$_0NS_9allocatorIS4_EEFvjRKNS_6vectorIjNS5_IjEEEEEEELi0ELb0EE5__getB8ne180100Ev', symObjAddr: 0xA5C8, symBinAddr: 0x100014C4C, symSize: 0x14 }
  - { offset: 0x3DE21, size: 0x8, addend: 0x0, symName: '__ZNSt3__110unique_ptrINS_10__function6__funcIZN5Table10scanEqualsEtjE3$_0NS_9allocatorIS4_EEFvjRKNS_6vectorIjNS5_IjEEEEEEENS_22__allocator_destructorINS5_ISD_EEEEED2B8ne180100Ev', symObjAddr: 0xA5DC, symBinAddr: 0x100014C60, symSize: 0x30 }
  - { offset: 0x3DE49, size: 0x8, addend: 0x0, symName: '__ZNSt3__110unique_ptrINS_10__function6__funcIZN5Table10scanEqualsEtjE3$_0NS_9allocatorIS4_EEFvjRKNS_6vectorIjNS5_IjEEEEEEENS_22__allocator_destructorINS5_ISD_EEEEE5resetB8ne180100EPSD_', symObjAddr: 0xA60C, symBinAddr: 0x100014C90, symSize: 0x78 }
  - { offset: 0x3DE8B, size: 0x8, addend: 0x0, symName: '__ZNSt3__117__compressed_pairIPNS_10__function6__funcIZN5Table10scanEqualsEtjE3$_0NS_9allocatorIS4_EEFvjRKNS_6vectorIjNS5_IjEEEEEEENS_22__allocator_destructorINS5_ISD_EEEEE6secondB8ne180100Ev', symObjAddr: 0xA684, symBinAddr: 0x100014D08, symSize: 0x28 }
  - { offset: 0x3DEAF, size: 0x8, addend: 0x0, symName: '__ZNSt3__122__allocator_destructorINS_9allocatorINS_10__function6__funcIZN5Table10scanEqualsEtjE3$_0NS1_IS5_EEFvjRKNS_6vectorIjNS1_IjEEEEEEEEEEclB8ne180100EPSD_', symObjAddr: 0xA6AC, symBinAddr: 0x100014D30, symSize: 0x34 }
  - { offset: 0x3DEE1, size: 0x8, addend: 0x0, symName: '__ZNSt3__122__compressed_pair_elemINS_22__allocator_destructorINS_9allocatorINS_10__function6__funcIZN5Table10scanEqualsEtjE3$_0NS2_IS6_EEFvjRKNS_6vectorIjNS2_IjEEEEEEEEEEELi1ELb0EE5__getB8ne180100Ev', symObjAddr: 0xA6E0, symBinAddr: 0x100014D64, symSize: 0x14 }
  - { offset: 0x3DF05, size: 0x8, addend: 0x0, symName: '__ZNSt3__116allocator_traitsINS_9allocatorINS_10__function6__funcIZN5Table10scanEqualsEtjE3$_0NS1_IS5_EEFvjRKNS_6vectorIjNS1_IjEEEEEEEEEE10deallocateB8ne180100ERSE_PSD_m', symObjAddr: 0xA6F4, symBinAddr: 0x100014D78, symSize: 0x34 }
  - { offset: 0x3DF46, size: 0x8, addend: 0x0, symName: '__ZNSt3__19allocatorINS_10__function6__funcIZN5Table10scanEqualsEtjE3$_0NS0_IS4_EEFvjRKNS_6vectorIjNS0_IjEEEEEEEE10deallocateB8ne180100EPSC_m', symObjAddr: 0xA728, symBinAddr: 0x100014DAC, symSize: 0x44 }
  - { offset: 0x3DF86, size: 0x8, addend: 0x0, symName: '__ZNSt3__110__function6__funcIZN5Table10scanEqualsEtjE3$_0NS_9allocatorIS3_EEFvjRKNS_6vectorIjNS4_IjEEEEEEC1B8ne180100ERKS3_RKS5_', symObjAddr: 0xA76C, symBinAddr: 0x100014DF0, symSize: 0x3C }
  - { offset: 0x3DFCC, size: 0x8, addend: 0x0, symName: '__ZNSt3__110__function6__funcIZN5Table10scanEqualsEtjE3$_0NS_9allocatorIS3_EEFvjRKNS_6vectorIjNS4_IjEEEEEEC2B8ne180100ERKS3_RKS5_', symObjAddr: 0xA7A8, symBinAddr: 0x100014E2C, symSize: 0x80 }
  - { offset: 0x3E012, size: 0x8, addend: 0x0, symName: '__ZNSt3__110__function12__alloc_funcIZN5Table10scanEqualsEtjE3$_0NS_9allocatorIS3_EEFvjRKNS_6vectorIjNS4_IjEEEEEEC1B8ne180100ERKS3_RKS5_', symObjAddr: 0xA828, symBinAddr: 0x100014EAC, symSize: 0x3C }
  - { offset: 0x3E056, size: 0x8, addend: 0x0, symName: '__ZNSt3__110__function12__alloc_funcIZN5Table10scanEqualsEtjE3$_0NS_9allocatorIS3_EEFvjRKNS_6vectorIjNS4_IjEEEEEEC2B8ne180100ERKS3_RKS5_', symObjAddr: 0xA864, symBinAddr: 0x100014EE8, symSize: 0x5C }
  - { offset: 0x3E09A, size: 0x8, addend: 0x0, symName: '__ZNSt3__117__compressed_pairIZN5Table10scanEqualsEtjE3$_0NS_9allocatorIS2_EEEC1B8ne180100IJRKS2_EJRKS4_EEENS_21piecewise_construct_tENS_5tupleIJDpT_EEENSC_IJDpT0_EEE', symObjAddr: 0xA8EC, symBinAddr: 0x100014F70, symSize: 0x3C }
  - { offset: 0x3E102, size: 0x8, addend: 0x0, symName: '__ZNSt3__15tupleIJRKNS_9allocatorIZN5Table10scanEqualsEtjE3$_0EEEEC1B8ne180100INS_4_AndELi0EEES6_', symObjAddr: 0xA928, symBinAddr: 0x100014FAC, symSize: 0x34 }
  - { offset: 0x3E149, size: 0x8, addend: 0x0, symName: '__ZNSt3__15tupleIJRKNS_9allocatorIZN5Table10scanEqualsEtjE3$_0EEEEC2B8ne180100INS_4_AndELi0EEES6_', symObjAddr: 0xA95C, symBinAddr: 0x100014FE0, symSize: 0x34 }
  - { offset: 0x3E190, size: 0x8, addend: 0x0, symName: '__ZNSt3__112__tuple_implINS_15__tuple_indicesIJLm0EEEEJRKNS_9allocatorIZN5Table10scanEqualsEtjE3$_0EEEEC1B8ne180100IJLm0EEJS8_EJEJEJS8_EEENS1_IJXspT_EEEENS_13__tuple_typesIJDpT0_EEENS1_IJXspT1_EEEENSC_IJDpT2_EEEDpOT3_', symObjAddr: 0xA990, symBinAddr: 0x100015014, symSize: 0x34 }
  - { offset: 0x3E21F, size: 0x8, addend: 0x0, symName: '__ZNSt3__112__tuple_implINS_15__tuple_indicesIJLm0EEEEJRKNS_9allocatorIZN5Table10scanEqualsEtjE3$_0EEEEC2B8ne180100IJLm0EEJS8_EJEJEJS8_EEENS1_IJXspT_EEEENS_13__tuple_typesIJDpT0_EEENS1_IJXspT1_EEEENSC_IJDpT2_EEEDpOT3_', symObjAddr: 0xA9C4, symBinAddr: 0x100015048, symSize: 0x34 }
  - { offset: 0x3E2AE, size: 0x8, addend: 0x0, symName: '__ZNSt3__112__tuple_leafILm0ERKNS_9allocatorIZN5Table10scanEqualsEtjE3$_0EELb0EEC2B8ne180100IS6_vEEOT_', symObjAddr: 0xA9F8, symBinAddr: 0x10001507C, symSize: 0x20 }
  - { offset: 0x3E2EF, size: 0x8, addend: 0x0, symName: '__ZNSt3__117__compressed_pairIZN5Table10scanEqualsEtjE3$_0NS_9allocatorIS2_EEEC2B8ne180100IJRKS2_EJRKS4_EEENS_21piecewise_construct_tENS_5tupleIJDpT_EEENSC_IJDpT0_EEE', symObjAddr: 0xAA18, symBinAddr: 0x10001509C, symSize: 0x54 }
  - { offset: 0x3E357, size: 0x8, addend: 0x0, symName: '__ZNSt3__122__compressed_pair_elemINS_9allocatorIZN5Table10scanEqualsEtjE3$_0EELi1ELb1EEC2B8ne180100IJRKS4_EJLm0EEEENS_21piecewise_construct_tENS_5tupleIJDpT_EEENS_15__tuple_indicesIJXspT0_EEEE', symObjAddr: 0xAA6C, symBinAddr: 0x1000150F0, symSize: 0x38 }
  - { offset: 0x3E3B8, size: 0x8, addend: 0x0, symName: '__ZNSt3__112__tuple_leafILm0ERKNS_9allocatorIZN5Table10scanEqualsEtjE3$_0EELb0EE3getB8ne180100Ev', symObjAddr: 0xAAC8, symBinAddr: 0x10001514C, symSize: 0x18 }
  - { offset: 0x3E3DC, size: 0x8, addend: 0x0, symName: '__ZNSt3__110__function12__alloc_funcIZN5Table10scanEqualsEtjE3$_0NS_9allocatorIS3_EEFvjRKNS_6vectorIjNS4_IjEEEEEE7destroyB8ne180100Ev', symObjAddr: 0xAAE0, symBinAddr: 0x100015164, symSize: 0x10 }
  - { offset: 0x3E400, size: 0x8, addend: 0x0, symName: '__ZNSt3__110__function12__alloc_funcIZN5Table10scanEqualsEtjE3$_0NS_9allocatorIS3_EEFvjRKNS_6vectorIjNS4_IjEEEEEEclB8ne180100EOjSA_', symObjAddr: 0xAAF0, symBinAddr: 0x100015174, symSize: 0x38 }
  - { offset: 0x3E440, size: 0x8, addend: 0x0, symName: '__ZNSt3__128__invoke_void_return_wrapperIvLb1EE6__callB8ne180100IJRZN5Table10scanEqualsEtjE3$_0jRKNS_6vectorIjNS_9allocatorIjEEEEEEEvDpOT_', symObjAddr: 0xAB28, symBinAddr: 0x1000151AC, symSize: 0x34 }
  - { offset: 0x3E496, size: 0x8, addend: 0x0, symName: '__ZNSt3__117__compressed_pairIZN5Table10scanEqualsEtjE3$_0NS_9allocatorIS2_EEE5firstB8ne180100Ev', symObjAddr: 0xAB5C, symBinAddr: 0x1000151E0, symSize: 0x24 }
  - { offset: 0x3E4BF, size: 0x8, addend: 0x0, symName: '__ZZN5Table10scanEqualsEtjENK3$_0clEjRKNSt3__16vectorIjNS1_9allocatorIjEEEE', symObjAddr: 0xABB8, symBinAddr: 0x10001523C, symSize: 0xC4 }
  - { offset: 0x3E511, size: 0x8, addend: 0x0, symName: __ZNKSt3__18optionalIjEcvbB8ne180100Ev, symObjAddr: 0xAC7C, symBinAddr: 0x100015300, symSize: 0x28 }
  - { offset: 0x3E535, size: 0x8, addend: 0x0, symName: '__ZNSt3__122__compressed_pair_elemIZN5Table10scanEqualsEtjE3$_0Li0ELb0EE5__getB8ne180100Ev', symObjAddr: 0xACA4, symBinAddr: 0x100015328, symSize: 0x14 }
  - { offset: 0x3E559, size: 0x8, addend: 0x0, symName: '__ZNSt3__110unique_ptrINS_10__function6__baseIFvjRKNS_6vectorIjNS_9allocatorIjEEEEEEENS_22__allocator_destructorINS4_INS1_6__funcIZN5Table10scanEqualsEtjE3$_0NS4_ISE_EES9_EEEEEEED2B8ne180100Ev', symObjAddr: 0xACB8, symBinAddr: 0x10001533C, symSize: 0x30 }
  - { offset: 0x3E581, size: 0x8, addend: 0x0, symName: '__ZNSt3__110unique_ptrINS_10__function6__baseIFvjRKNS_6vectorIjNS_9allocatorIjEEEEEEENS_22__allocator_destructorINS4_INS1_6__funcIZN5Table10scanEqualsEtjE3$_0NS4_ISE_EES9_EEEEEEE5resetB8ne180100EPSG_', symObjAddr: 0xACE8, symBinAddr: 0x10001536C, symSize: 0x78 }
  - { offset: 0x3E5C3, size: 0x8, addend: 0x0, symName: '__ZNSt3__18functionIFvjRKNS_6vectorIjNS_9allocatorIjEEEEEEC2IZN5Table9sumColumnEtE3$_0vEET_', symObjAddr: 0xAD60, symBinAddr: 0x1000153E4, symSize: 0x34 }
  - { offset: 0x3E607, size: 0x8, addend: 0x0, symName: '__ZNSt3__110__function12__value_funcIFvjRKNS_6vectorIjNS_9allocatorIjEEEEEEC1B8ne180100IZN5Table9sumColumnEtE3$_0Li0EEEOT_', symObjAddr: 0xAD94, symBinAddr: 0x100015418, symSize: 0x50 }
  - { offset: 0x3E64D, size: 0x8, addend: 0x0, symName: '__ZNSt3__19allocatorIZN5Table9sumColumnEtE3$_0EC1B8ne180100Ev', symObjAddr: 0xADE4, symBinAddr: 0x100015468, symSize: 0x2C }
  - { offset: 0x3E675, size: 0x8, addend: 0x0, symName: '__ZNSt3__110__function12__value_funcIFvjRKNS_6vectorIjNS_9allocatorIjEEEEEEC1B8ne180100IZN5Table9sumColumnEtE3$_0NS3_ISC_EEEEOT_RKT0_', symObjAddr: 0xAE10, symBinAddr: 0x100015494, symSize: 0x3C }
  - { offset: 0x3E6CD, size: 0x8, addend: 0x0, symName: '__ZNSt3__19allocatorIZN5Table9sumColumnEtE3$_0EC2B8ne180100Ev', symObjAddr: 0xAE4C, symBinAddr: 0x1000154D0, symSize: 0x2C }
  - { offset: 0x3E6F5, size: 0x8, addend: 0x0, symName: '__ZNSt3__116__non_trivial_ifILb1ENS_9allocatorIZN5Table9sumColumnEtE3$_0EEEC2B8ne180100Ev', symObjAddr: 0xAE78, symBinAddr: 0x1000154FC, symSize: 0x14 }
  - { offset: 0x3E71D, size: 0x8, addend: 0x0, symName: '__ZNSt3__110__function12__value_funcIFvjRKNS_6vectorIjNS_9allocatorIjEEEEEEC2B8ne180100IZN5Table9sumColumnEtE3$_0NS3_ISC_EEEEOT_RKT0_', symObjAddr: 0xAE8C, symBinAddr: 0x100015510, symSize: 0xF4 }
  - { offset: 0x3E7CE, size: 0x8, addend: 0x0, symName: '__ZNSt3__19allocatorINS_10__function6__funcIZN5Table9sumColumnEtE3$_0NS0_IS4_EEFvjRKNS_6vectorIjNS0_IjEEEEEEEEC1B8ne180100IS4_EERKNS0_IT_EE', symObjAddr: 0xAF98, symBinAddr: 0x10001561C, symSize: 0x34 }
  - { offset: 0x3E809, size: 0x8, addend: 0x0, symName: '__ZNSt3__19allocatorINS_10__function6__funcIZN5Table9sumColumnEtE3$_0NS0_IS4_EEFvjRKNS_6vectorIjNS0_IjEEEEEEEE8allocateB8ne180100Em', symObjAddr: 0xAFCC, symBinAddr: 0x100015650, symSize: 0x58 }
  - { offset: 0x3E84A, size: 0x8, addend: 0x0, symName: '__ZNSt3__122__allocator_destructorINS_9allocatorINS_10__function6__funcIZN5Table9sumColumnEtE3$_0NS1_IS5_EEFvjRKNS_6vectorIjNS1_IjEEEEEEEEEEC1B8ne180100ERSE_m', symObjAddr: 0xB024, symBinAddr: 0x1000156A8, symSize: 0x3C }
  - { offset: 0x3E91A, size: 0x8, addend: 0x0, symName: '__ZNSt3__110unique_ptrINS_10__function6__baseIFvjRKNS_6vectorIjNS_9allocatorIjEEEEEEENS_22__allocator_destructorINS4_INS1_6__funcIZN5Table9sumColumnEtE3$_0NS4_ISE_EES9_EEEEEEEC1B8ne180100ILb1EvEEPSG_NS_16__dependent_typeINS_27__unique_ptr_deleter_sfinaeISI_EEXT_EE20__good_rval_ref_typeE', symObjAddr: 0xB060, symBinAddr: 0x1000156E4, symSize: 0x3C }
  - { offset: 0x3E969, size: 0x8, addend: 0x0, symName: '__ZNKSt3__110unique_ptrINS_10__function6__baseIFvjRKNS_6vectorIjNS_9allocatorIjEEEEEEENS_22__allocator_destructorINS4_INS1_6__funcIZN5Table9sumColumnEtE3$_0NS4_ISE_EES9_EEEEEEE3getB8ne180100Ev', symObjAddr: 0xB09C, symBinAddr: 0x100015720, symSize: 0x28 }
  - { offset: 0x3E98D, size: 0x8, addend: 0x0, symName: '__ZNSt3__110__function6__funcIZN5Table9sumColumnEtE3$_0NS_9allocatorIS3_EEFvjRKNS_6vectorIjNS4_IjEEEEEEC1B8ne180100EOS3_OS5_', symObjAddr: 0xB0C4, symBinAddr: 0x100015748, symSize: 0x3C }
  - { offset: 0x3E9D3, size: 0x8, addend: 0x0, symName: '__ZNSt3__110unique_ptrINS_10__function6__baseIFvjRKNS_6vectorIjNS_9allocatorIjEEEEEEENS_22__allocator_destructorINS4_INS1_6__funcIZN5Table9sumColumnEtE3$_0NS4_ISE_EES9_EEEEEEE7releaseB8ne180100Ev', symObjAddr: 0xB100, symBinAddr: 0x100015784, symSize: 0x44 }
  - { offset: 0x3EA06, size: 0x8, addend: 0x0, symName: '__ZNSt3__110unique_ptrINS_10__function6__baseIFvjRKNS_6vectorIjNS_9allocatorIjEEEEEEENS_22__allocator_destructorINS4_INS1_6__funcIZN5Table9sumColumnEtE3$_0NS4_ISE_EES9_EEEEEEED1B8ne180100Ev', symObjAddr: 0xB144, symBinAddr: 0x1000157C8, symSize: 0x2C }
  - { offset: 0x3EA2E, size: 0x8, addend: 0x0, symName: '__ZNSt3__19allocatorINS_10__function6__funcIZN5Table9sumColumnEtE3$_0NS0_IS4_EEFvjRKNS_6vectorIjNS0_IjEEEEEEEEC2B8ne180100IS4_EERKNS0_IT_EE', symObjAddr: 0xB170, symBinAddr: 0x1000157F4, symSize: 0x30 }
  - { offset: 0x3EA69, size: 0x8, addend: 0x0, symName: '__ZNSt3__116__non_trivial_ifILb1ENS_9allocatorINS_10__function6__funcIZN5Table9sumColumnEtE3$_0NS1_IS5_EEFvjRKNS_6vectorIjNS1_IjEEEEEEEEEEC2B8ne180100Ev', symObjAddr: 0xB1A0, symBinAddr: 0x100015824, symSize: 0x14 }
  - { offset: 0x3EA9B, size: 0x8, addend: 0x0, symName: '__ZNSt3__116allocator_traitsINS_9allocatorINS_10__function6__funcIZN5Table9sumColumnEtE3$_0NS1_IS5_EEFvjRKNS_6vectorIjNS1_IjEEEEEEEEEE8max_sizeB8ne180100ISE_vEEmRKSE_', symObjAddr: 0xB1B4, symBinAddr: 0x100015838, symSize: 0x24 }
  - { offset: 0x3EAC8, size: 0x8, addend: 0x0, symName: '__ZNKSt3__19allocatorINS_10__function6__funcIZN5Table9sumColumnEtE3$_0NS0_IS4_EEFvjRKNS_6vectorIjNS0_IjEEEEEEEE8max_sizeB8ne180100Ev', symObjAddr: 0xB1D8, symBinAddr: 0x10001585C, symSize: 0x14 }
  - { offset: 0x3EAEC, size: 0x8, addend: 0x0, symName: '__ZNSt3__122__allocator_destructorINS_9allocatorINS_10__function6__funcIZN5Table9sumColumnEtE3$_0NS1_IS5_EEFvjRKNS_6vectorIjNS1_IjEEEEEEEEEEC2B8ne180100ERSE_m', symObjAddr: 0xB1EC, symBinAddr: 0x100015870, symSize: 0x2C }
  - { offset: 0x3EB30, size: 0x8, addend: 0x0, symName: '__ZNSt3__110unique_ptrINS_10__function6__baseIFvjRKNS_6vectorIjNS_9allocatorIjEEEEEEENS_22__allocator_destructorINS4_INS1_6__funcIZN5Table9sumColumnEtE3$_0NS4_ISE_EES9_EEEEEEEC2B8ne180100ILb1EvEEPSG_NS_16__dependent_typeINS_27__unique_ptr_deleter_sfinaeISI_EEXT_EE20__good_rval_ref_typeE', symObjAddr: 0xB218, symBinAddr: 0x10001589C, symSize: 0x48 }
  - { offset: 0x3EB7F, size: 0x8, addend: 0x0, symName: '__ZNSt3__117__compressed_pairIPNS_10__function6__funcIZN5Table9sumColumnEtE3$_0NS_9allocatorIS4_EEFvjRKNS_6vectorIjNS5_IjEEEEEEENS_22__allocator_destructorINS5_ISD_EEEEEC1B8ne180100IRSE_SH_EEOT_OT0_', symObjAddr: 0xB260, symBinAddr: 0x1000158E4, symSize: 0x3C }
  - { offset: 0x3EBD5, size: 0x8, addend: 0x0, symName: '__ZNSt3__117__compressed_pairIPNS_10__function6__funcIZN5Table9sumColumnEtE3$_0NS_9allocatorIS4_EEFvjRKNS_6vectorIjNS5_IjEEEEEEENS_22__allocator_destructorINS5_ISD_EEEEEC2B8ne180100IRSE_SH_EEOT_OT0_', symObjAddr: 0xB29C, symBinAddr: 0x100015920, symSize: 0x48 }
  - { offset: 0x3EC2B, size: 0x8, addend: 0x0, symName: '__ZNSt3__122__compressed_pair_elemIPNS_10__function6__funcIZN5Table9sumColumnEtE3$_0NS_9allocatorIS4_EEFvjRKNS_6vectorIjNS5_IjEEEEEEELi0ELb0EEC2B8ne180100IRSE_vEEOT_', symObjAddr: 0xB2E4, symBinAddr: 0x100015968, symSize: 0x24 }
  - { offset: 0x3EC6B, size: 0x8, addend: 0x0, symName: '__ZNSt3__122__compressed_pair_elemINS_22__allocator_destructorINS_9allocatorINS_10__function6__funcIZN5Table9sumColumnEtE3$_0NS2_IS6_EEFvjRKNS_6vectorIjNS2_IjEEEEEEEEEEELi1ELb0EEC2B8ne180100ISG_vEEOT_', symObjAddr: 0xB308, symBinAddr: 0x10001598C, symSize: 0x24 }
  - { offset: 0x3ECAB, size: 0x8, addend: 0x0, symName: '__ZNKSt3__117__compressed_pairIPNS_10__function6__funcIZN5Table9sumColumnEtE3$_0NS_9allocatorIS4_EEFvjRKNS_6vectorIjNS5_IjEEEEEEENS_22__allocator_destructorINS5_ISD_EEEEE5firstB8ne180100Ev', symObjAddr: 0xB32C, symBinAddr: 0x1000159B0, symSize: 0x24 }
  - { offset: 0x3ECCF, size: 0x8, addend: 0x0, symName: '__ZNKSt3__122__compressed_pair_elemIPNS_10__function6__funcIZN5Table9sumColumnEtE3$_0NS_9allocatorIS4_EEFvjRKNS_6vectorIjNS5_IjEEEEEEELi0ELb0EE5__getB8ne180100Ev', symObjAddr: 0xB350, symBinAddr: 0x1000159D4, symSize: 0x14 }
  - { offset: 0x3ECF3, size: 0x8, addend: 0x0, symName: '__ZNSt3__110__function6__funcIZN5Table9sumColumnEtE3$_0NS_9allocatorIS3_EEFvjRKNS_6vectorIjNS4_IjEEEEEEC2B8ne180100EOS3_OS5_', symObjAddr: 0xB364, symBinAddr: 0x1000159E8, symSize: 0x80 }
  - { offset: 0x3ED39, size: 0x8, addend: 0x0, symName: '__ZNSt3__110__function12__alloc_funcIZN5Table9sumColumnEtE3$_0NS_9allocatorIS3_EEFvjRKNS_6vectorIjNS4_IjEEEEEEC1B8ne180100EOS3_OS5_', symObjAddr: 0xB3E4, symBinAddr: 0x100015A68, symSize: 0x3C }
  - { offset: 0x3ED7D, size: 0x8, addend: 0x0, symName: '__ZNSt3__110__function6__funcIZN5Table9sumColumnEtE3$_0NS_9allocatorIS3_EEFvjRKNS_6vectorIjNS4_IjEEEEEED1Ev', symObjAddr: 0xB420, symBinAddr: 0x100015AA4, symSize: 0x2C }
  - { offset: 0x3EDA7, size: 0x8, addend: 0x0, symName: '__ZNSt3__110__function6__funcIZN5Table9sumColumnEtE3$_0NS_9allocatorIS3_EEFvjRKNS_6vectorIjNS4_IjEEEEEED0Ev', symObjAddr: 0xB44C, symBinAddr: 0x100015AD0, symSize: 0x30 }
  - { offset: 0x3EDD1, size: 0x8, addend: 0x0, symName: '__ZNKSt3__110__function6__funcIZN5Table9sumColumnEtE3$_0NS_9allocatorIS3_EEFvjRKNS_6vectorIjNS4_IjEEEEEE7__cloneEv', symObjAddr: 0xB47C, symBinAddr: 0x100015B00, symSize: 0xFC }
  - { offset: 0x3EE21, size: 0x8, addend: 0x0, symName: '__ZNKSt3__110__function6__funcIZN5Table9sumColumnEtE3$_0NS_9allocatorIS3_EEFvjRKNS_6vectorIjNS4_IjEEEEEE7__cloneEPNS0_6__baseISB_EE', symObjAddr: 0xB578, symBinAddr: 0x100015BFC, symSize: 0x58 }
  - { offset: 0x3EE56, size: 0x8, addend: 0x0, symName: '__ZNSt3__110__function6__funcIZN5Table9sumColumnEtE3$_0NS_9allocatorIS3_EEFvjRKNS_6vectorIjNS4_IjEEEEEE7destroyEv', symObjAddr: 0xB5D0, symBinAddr: 0x100015C54, symSize: 0x28 }
  - { offset: 0x3EE7C, size: 0x8, addend: 0x0, symName: '__ZNSt3__110__function6__funcIZN5Table9sumColumnEtE3$_0NS_9allocatorIS3_EEFvjRKNS_6vectorIjNS4_IjEEEEEE18destroy_deallocateEv', symObjAddr: 0xB5F8, symBinAddr: 0x100015C7C, symSize: 0x58 }
  - { offset: 0x3EEBD, size: 0x8, addend: 0x0, symName: '__ZNSt3__110__function6__funcIZN5Table9sumColumnEtE3$_0NS_9allocatorIS3_EEFvjRKNS_6vectorIjNS4_IjEEEEEEclEOjSA_', symObjAddr: 0xB650, symBinAddr: 0x100015CD4, symSize: 0x38 }
  - { offset: 0x3EF01, size: 0x8, addend: 0x0, symName: '__ZNKSt3__110__function6__funcIZN5Table9sumColumnEtE3$_0NS_9allocatorIS3_EEFvjRKNS_6vectorIjNS4_IjEEEEEE6targetERKSt9type_info', symObjAddr: 0xB688, symBinAddr: 0x100015D0C, symSize: 0x60 }
  - { offset: 0x3EF37, size: 0x8, addend: 0x0, symName: '__ZNKSt3__110__function6__funcIZN5Table9sumColumnEtE3$_0NS_9allocatorIS3_EEFvjRKNS_6vectorIjNS4_IjEEEEEE11target_typeEv', symObjAddr: 0xB6E8, symBinAddr: 0x100015D6C, symSize: 0x18 }
  - { offset: 0x3EF5D, size: 0x8, addend: 0x0, symName: '__ZNSt3__110__function12__alloc_funcIZN5Table9sumColumnEtE3$_0NS_9allocatorIS3_EEFvjRKNS_6vectorIjNS4_IjEEEEEEC2B8ne180100EOS3_OS5_', symObjAddr: 0xB700, symBinAddr: 0x100015D84, symSize: 0x5C }
  - { offset: 0x3EFA1, size: 0x8, addend: 0x0, symName: '__ZNSt3__117__compressed_pairIZN5Table9sumColumnEtE3$_0NS_9allocatorIS2_EEEC1B8ne180100IJOS2_EJOS4_EEENS_21piecewise_construct_tENS_5tupleIJDpT_EEENSA_IJDpT0_EEE', symObjAddr: 0xB7B4, symBinAddr: 0x100015E38, symSize: 0x3C }
  - { offset: 0x3F009, size: 0x8, addend: 0x0, symName: '__ZNSt3__15tupleIJOZN5Table9sumColumnEtE3$_0EEC1B8ne180100IJS2_ELi0EEEDpOT_', symObjAddr: 0xB7F0, symBinAddr: 0x100015E74, symSize: 0x34 }
  - { offset: 0x3F051, size: 0x8, addend: 0x0, symName: '__ZNSt3__15tupleIJOZN5Table9sumColumnEtE3$_0EEC2B8ne180100IJS2_ELi0EEEDpOT_', symObjAddr: 0xB824, symBinAddr: 0x100015EA8, symSize: 0x34 }
  - { offset: 0x3F099, size: 0x8, addend: 0x0, symName: '__ZNSt3__112__tuple_implINS_15__tuple_indicesIJLm0EEEEJOZN5Table9sumColumnEtE3$_0EEC1B8ne180100IJLm0EEJS5_EJEJEJS4_EEENS1_IJXspT_EEEENS_13__tuple_typesIJDpT0_EEENS1_IJXspT1_EEEENS9_IJDpT2_EEEDpOT3_', symObjAddr: 0xB858, symBinAddr: 0x100015EDC, symSize: 0x34 }
  - { offset: 0x3F128, size: 0x8, addend: 0x0, symName: '__ZNSt3__112__tuple_implINS_15__tuple_indicesIJLm0EEEEJOZN5Table9sumColumnEtE3$_0EEC2B8ne180100IJLm0EEJS5_EJEJEJS4_EEENS1_IJXspT_EEEENS_13__tuple_typesIJDpT0_EEENS1_IJXspT1_EEEENS9_IJDpT2_EEEDpOT3_', symObjAddr: 0xB88C, symBinAddr: 0x100015F10, symSize: 0x34 }
  - { offset: 0x3F1B7, size: 0x8, addend: 0x0, symName: '__ZNSt3__112__tuple_leafILm0EOZN5Table9sumColumnEtE3$_0Lb0EEC2B8ne180100IS2_vEEOT_', symObjAddr: 0xB8C0, symBinAddr: 0x100015F44, symSize: 0x20 }
  - { offset: 0x3F1F8, size: 0x8, addend: 0x0, symName: '__ZNSt3__15tupleIJONS_9allocatorIZN5Table9sumColumnEtE3$_0EEEEC1B8ne180100IJS4_ELi0EEEDpOT_', symObjAddr: 0xB8E0, symBinAddr: 0x100015F64, symSize: 0x34 }
  - { offset: 0x3F240, size: 0x8, addend: 0x0, symName: '__ZNSt3__15tupleIJONS_9allocatorIZN5Table9sumColumnEtE3$_0EEEEC2B8ne180100IJS4_ELi0EEEDpOT_', symObjAddr: 0xB914, symBinAddr: 0x100015F98, symSize: 0x34 }
  - { offset: 0x3F288, size: 0x8, addend: 0x0, symName: '__ZNSt3__112__tuple_implINS_15__tuple_indicesIJLm0EEEEJONS_9allocatorIZN5Table9sumColumnEtE3$_0EEEEC1B8ne180100IJLm0EEJS7_EJEJEJS6_EEENS1_IJXspT_EEEENS_13__tuple_typesIJDpT0_EEENS1_IJXspT1_EEEENSB_IJDpT2_EEEDpOT3_', symObjAddr: 0xB948, symBinAddr: 0x100015FCC, symSize: 0x34 }
  - { offset: 0x3F317, size: 0x8, addend: 0x0, symName: '__ZNSt3__112__tuple_implINS_15__tuple_indicesIJLm0EEEEJONS_9allocatorIZN5Table9sumColumnEtE3$_0EEEEC2B8ne180100IJLm0EEJS7_EJEJEJS6_EEENS1_IJXspT_EEEENS_13__tuple_typesIJDpT0_EEENS1_IJXspT1_EEEENSB_IJDpT2_EEEDpOT3_', symObjAddr: 0xB97C, symBinAddr: 0x100016000, symSize: 0x34 }
  - { offset: 0x3F3A6, size: 0x8, addend: 0x0, symName: '__ZNSt3__112__tuple_leafILm0EONS_9allocatorIZN5Table9sumColumnEtE3$_0EELb0EEC2B8ne180100IS4_vEEOT_', symObjAddr: 0xB9B0, symBinAddr: 0x100016034, symSize: 0x20 }
  - { offset: 0x3F3E7, size: 0x8, addend: 0x0, symName: '__ZNSt3__117__compressed_pairIZN5Table9sumColumnEtE3$_0NS_9allocatorIS2_EEEC2B8ne180100IJOS2_EJOS4_EEENS_21piecewise_construct_tENS_5tupleIJDpT_EEENSA_IJDpT0_EEE', symObjAddr: 0xB9D0, symBinAddr: 0x100016054, symSize: 0x54 }
  - { offset: 0x3F44F, size: 0x8, addend: 0x0, symName: '__ZNSt3__122__compressed_pair_elemIZN5Table9sumColumnEtE3$_0Li0ELb0EEC2B8ne180100IJOS2_EJLm0EEEENS_21piecewise_construct_tENS_5tupleIJDpT_EEENS_15__tuple_indicesIJXspT0_EEEE', symObjAddr: 0xBA24, symBinAddr: 0x1000160A8, symSize: 0x4C }
  - { offset: 0x3F4B0, size: 0x8, addend: 0x0, symName: '__ZNSt3__122__compressed_pair_elemINS_9allocatorIZN5Table9sumColumnEtE3$_0EELi1ELb1EEC2B8ne180100IJOS4_EJLm0EEEENS_21piecewise_construct_tENS_5tupleIJDpT_EEENS_15__tuple_indicesIJXspT0_EEEE', symObjAddr: 0xBA70, symBinAddr: 0x1000160F4, symSize: 0x38 }
  - { offset: 0x3F511, size: 0x8, addend: 0x0, symName: '__ZNSt3__112__tuple_leafILm0EOZN5Table9sumColumnEtE3$_0Lb0EE3getB8ne180100Ev', symObjAddr: 0xBACC, symBinAddr: 0x100016150, symSize: 0x18 }
  - { offset: 0x3F535, size: 0x8, addend: 0x0, symName: '__ZNSt3__112__tuple_leafILm0EONS_9allocatorIZN5Table9sumColumnEtE3$_0EELb0EE3getB8ne180100Ev', symObjAddr: 0xBB08, symBinAddr: 0x10001618C, symSize: 0x18 }
  - { offset: 0x3F559, size: 0x8, addend: 0x0, symName: '__ZNSt3__110__function6__funcIZN5Table9sumColumnEtE3$_0NS_9allocatorIS3_EEFvjRKNS_6vectorIjNS4_IjEEEEEED2Ev', symObjAddr: 0xBB20, symBinAddr: 0x1000161A4, symSize: 0x2C }
  - { offset: 0x3F583, size: 0x8, addend: 0x0, symName: '__ZNKSt3__110__function12__alloc_funcIZN5Table9sumColumnEtE3$_0NS_9allocatorIS3_EEFvjRKNS_6vectorIjNS4_IjEEEEEE15__get_allocatorB8ne180100Ev', symObjAddr: 0xBB4C, symBinAddr: 0x1000161D0, symSize: 0x24 }
  - { offset: 0x3F5CF, size: 0x8, addend: 0x0, symName: '__ZNSt3__110unique_ptrINS_10__function6__funcIZN5Table9sumColumnEtE3$_0NS_9allocatorIS4_EEFvjRKNS_6vectorIjNS5_IjEEEEEEENS_22__allocator_destructorINS5_ISD_EEEEEC1B8ne180100ILb1EvEEPSD_NS_16__dependent_typeINS_27__unique_ptr_deleter_sfinaeISG_EEXT_EE20__good_rval_ref_typeE', symObjAddr: 0xBB70, symBinAddr: 0x1000161F4, symSize: 0x3C }
  - { offset: 0x3F61E, size: 0x8, addend: 0x0, symName: '__ZNKSt3__110unique_ptrINS_10__function6__funcIZN5Table9sumColumnEtE3$_0NS_9allocatorIS4_EEFvjRKNS_6vectorIjNS5_IjEEEEEEENS_22__allocator_destructorINS5_ISD_EEEEE3getB8ne180100Ev', symObjAddr: 0xBBAC, symBinAddr: 0x100016230, symSize: 0x28 }
  - { offset: 0x3F642, size: 0x8, addend: 0x0, symName: '__ZNKSt3__110__function12__alloc_funcIZN5Table9sumColumnEtE3$_0NS_9allocatorIS3_EEFvjRKNS_6vectorIjNS4_IjEEEEEE8__targetB8ne180100Ev', symObjAddr: 0xBBD4, symBinAddr: 0x100016258, symSize: 0x24 }
  - { offset: 0x3F66B, size: 0x8, addend: 0x0, symName: '__ZNSt3__19allocatorIZN5Table9sumColumnEtE3$_0EC1B8ne180100INS_10__function6__funcIS2_S3_FvjRKNS_6vectorIjNS0_IjEEEEEEEEERKNS0_IT_EE', symObjAddr: 0xBBF8, symBinAddr: 0x10001627C, symSize: 0x34 }
  - { offset: 0x3F6A6, size: 0x8, addend: 0x0, symName: '__ZNSt3__110__function6__funcIZN5Table9sumColumnEtE3$_0NS_9allocatorIS3_EEFvjRKNS_6vectorIjNS4_IjEEEEEEC1B8ne180100ERKS3_OS5_', symObjAddr: 0xBC2C, symBinAddr: 0x1000162B0, symSize: 0x3C }
  - { offset: 0x3F6EC, size: 0x8, addend: 0x0, symName: '__ZNSt3__110unique_ptrINS_10__function6__funcIZN5Table9sumColumnEtE3$_0NS_9allocatorIS4_EEFvjRKNS_6vectorIjNS5_IjEEEEEEENS_22__allocator_destructorINS5_ISD_EEEEE7releaseB8ne180100Ev', symObjAddr: 0xBC68, symBinAddr: 0x1000162EC, symSize: 0x44 }
  - { offset: 0x3F71F, size: 0x8, addend: 0x0, symName: '__ZNSt3__110unique_ptrINS_10__function6__funcIZN5Table9sumColumnEtE3$_0NS_9allocatorIS4_EEFvjRKNS_6vectorIjNS5_IjEEEEEEENS_22__allocator_destructorINS5_ISD_EEEEED1B8ne180100Ev', symObjAddr: 0xBCAC, symBinAddr: 0x100016330, symSize: 0x2C }
  - { offset: 0x3F747, size: 0x8, addend: 0x0, symName: '__ZNKSt3__117__compressed_pairIZN5Table9sumColumnEtE3$_0NS_9allocatorIS2_EEE6secondB8ne180100Ev', symObjAddr: 0xBCD8, symBinAddr: 0x10001635C, symSize: 0x24 }
  - { offset: 0x3F76B, size: 0x8, addend: 0x0, symName: '__ZNKSt3__122__compressed_pair_elemINS_9allocatorIZN5Table9sumColumnEtE3$_0EELi1ELb1EE5__getB8ne180100Ev', symObjAddr: 0xBCFC, symBinAddr: 0x100016380, symSize: 0x14 }
  - { offset: 0x3F78F, size: 0x8, addend: 0x0, symName: '__ZNSt3__110unique_ptrINS_10__function6__funcIZN5Table9sumColumnEtE3$_0NS_9allocatorIS4_EEFvjRKNS_6vectorIjNS5_IjEEEEEEENS_22__allocator_destructorINS5_ISD_EEEEEC2B8ne180100ILb1EvEEPSD_NS_16__dependent_typeINS_27__unique_ptr_deleter_sfinaeISG_EEXT_EE20__good_rval_ref_typeE', symObjAddr: 0xBD10, symBinAddr: 0x100016394, symSize: 0x48 }
  - { offset: 0x3F7DE, size: 0x8, addend: 0x0, symName: '__ZNKSt3__117__compressed_pairIZN5Table9sumColumnEtE3$_0NS_9allocatorIS2_EEE5firstB8ne180100Ev', symObjAddr: 0xBD58, symBinAddr: 0x1000163DC, symSize: 0x24 }
  - { offset: 0x3F802, size: 0x8, addend: 0x0, symName: '__ZNKSt3__122__compressed_pair_elemIZN5Table9sumColumnEtE3$_0Li0ELb0EE5__getB8ne180100Ev', symObjAddr: 0xBD7C, symBinAddr: 0x100016400, symSize: 0x14 }
  - { offset: 0x3F826, size: 0x8, addend: 0x0, symName: '__ZNSt3__19allocatorIZN5Table9sumColumnEtE3$_0EC2B8ne180100INS_10__function6__funcIS2_S3_FvjRKNS_6vectorIjNS0_IjEEEEEEEEERKNS0_IT_EE', symObjAddr: 0xBD90, symBinAddr: 0x100016414, symSize: 0x30 }
  - { offset: 0x3F861, size: 0x8, addend: 0x0, symName: '__ZNSt3__110__function6__funcIZN5Table9sumColumnEtE3$_0NS_9allocatorIS3_EEFvjRKNS_6vectorIjNS4_IjEEEEEEC2B8ne180100ERKS3_OS5_', symObjAddr: 0xBDC0, symBinAddr: 0x100016444, symSize: 0x80 }
  - { offset: 0x3F8A7, size: 0x8, addend: 0x0, symName: '__ZNSt3__110__function12__alloc_funcIZN5Table9sumColumnEtE3$_0NS_9allocatorIS3_EEFvjRKNS_6vectorIjNS4_IjEEEEEEC1B8ne180100ERKS3_OS5_', symObjAddr: 0xBE40, symBinAddr: 0x1000164C4, symSize: 0x3C }
  - { offset: 0x3F8EB, size: 0x8, addend: 0x0, symName: '__ZNSt3__110__function12__alloc_funcIZN5Table9sumColumnEtE3$_0NS_9allocatorIS3_EEFvjRKNS_6vectorIjNS4_IjEEEEEEC2B8ne180100ERKS3_OS5_', symObjAddr: 0xBE7C, symBinAddr: 0x100016500, symSize: 0x5C }
  - { offset: 0x3F92F, size: 0x8, addend: 0x0, symName: '__ZNSt3__117__compressed_pairIZN5Table9sumColumnEtE3$_0NS_9allocatorIS2_EEEC1B8ne180100IJRKS2_EJOS4_EEENS_21piecewise_construct_tENS_5tupleIJDpT_EEENSB_IJDpT0_EEE', symObjAddr: 0xBF04, symBinAddr: 0x100016588, symSize: 0x3C }
  - { offset: 0x3F997, size: 0x8, addend: 0x0, symName: '__ZNSt3__15tupleIJRKZN5Table9sumColumnEtE3$_0EEC1B8ne180100INS_4_AndELi0EEES4_', symObjAddr: 0xBF40, symBinAddr: 0x1000165C4, symSize: 0x34 }
  - { offset: 0x3F9DE, size: 0x8, addend: 0x0, symName: '__ZNSt3__15tupleIJRKZN5Table9sumColumnEtE3$_0EEC2B8ne180100INS_4_AndELi0EEES4_', symObjAddr: 0xBF74, symBinAddr: 0x1000165F8, symSize: 0x34 }
  - { offset: 0x3FA25, size: 0x8, addend: 0x0, symName: '__ZNSt3__112__tuple_implINS_15__tuple_indicesIJLm0EEEEJRKZN5Table9sumColumnEtE3$_0EEC1B8ne180100IJLm0EEJS6_EJEJEJS6_EEENS1_IJXspT_EEEENS_13__tuple_typesIJDpT0_EEENS1_IJXspT1_EEEENSA_IJDpT2_EEEDpOT3_', symObjAddr: 0xBFA8, symBinAddr: 0x10001662C, symSize: 0x34 }
  - { offset: 0x3FAB4, size: 0x8, addend: 0x0, symName: '__ZNSt3__112__tuple_implINS_15__tuple_indicesIJLm0EEEEJRKZN5Table9sumColumnEtE3$_0EEC2B8ne180100IJLm0EEJS6_EJEJEJS6_EEENS1_IJXspT_EEEENS_13__tuple_typesIJDpT0_EEENS1_IJXspT1_EEEENSA_IJDpT2_EEEDpOT3_', symObjAddr: 0xBFDC, symBinAddr: 0x100016660, symSize: 0x34 }
  - { offset: 0x3FB43, size: 0x8, addend: 0x0, symName: '__ZNSt3__112__tuple_leafILm0ERKZN5Table9sumColumnEtE3$_0Lb0EEC2B8ne180100IS4_vEEOT_', symObjAddr: 0xC010, symBinAddr: 0x100016694, symSize: 0x20 }
  - { offset: 0x3FB84, size: 0x8, addend: 0x0, symName: '__ZNSt3__117__compressed_pairIZN5Table9sumColumnEtE3$_0NS_9allocatorIS2_EEEC2B8ne180100IJRKS2_EJOS4_EEENS_21piecewise_construct_tENS_5tupleIJDpT_EEENSB_IJDpT0_EEE', symObjAddr: 0xC030, symBinAddr: 0x1000166B4, symSize: 0x54 }
  - { offset: 0x3FBEC, size: 0x8, addend: 0x0, symName: '__ZNSt3__122__compressed_pair_elemIZN5Table9sumColumnEtE3$_0Li0ELb0EEC2B8ne180100IJRKS2_EJLm0EEEENS_21piecewise_construct_tENS_5tupleIJDpT_EEENS_15__tuple_indicesIJXspT0_EEEE', symObjAddr: 0xC084, symBinAddr: 0x100016708, symSize: 0x4C }
  - { offset: 0x3FC4D, size: 0x8, addend: 0x0, symName: '__ZNSt3__112__tuple_leafILm0ERKZN5Table9sumColumnEtE3$_0Lb0EE3getB8ne180100Ev', symObjAddr: 0xC0F4, symBinAddr: 0x100016778, symSize: 0x18 }
  - { offset: 0x3FC71, size: 0x8, addend: 0x0, symName: '__ZNSt3__117__compressed_pairIPNS_10__function6__funcIZN5Table9sumColumnEtE3$_0NS_9allocatorIS4_EEFvjRKNS_6vectorIjNS5_IjEEEEEEENS_22__allocator_destructorINS5_ISD_EEEEE5firstB8ne180100Ev', symObjAddr: 0xC10C, symBinAddr: 0x100016790, symSize: 0x24 }
  - { offset: 0x3FC95, size: 0x8, addend: 0x0, symName: '__ZNSt3__122__compressed_pair_elemIPNS_10__function6__funcIZN5Table9sumColumnEtE3$_0NS_9allocatorIS4_EEFvjRKNS_6vectorIjNS5_IjEEEEEEELi0ELb0EE5__getB8ne180100Ev', symObjAddr: 0xC130, symBinAddr: 0x1000167B4, symSize: 0x14 }
  - { offset: 0x3FCB9, size: 0x8, addend: 0x0, symName: '__ZNSt3__110unique_ptrINS_10__function6__funcIZN5Table9sumColumnEtE3$_0NS_9allocatorIS4_EEFvjRKNS_6vectorIjNS5_IjEEEEEEENS_22__allocator_destructorINS5_ISD_EEEEED2B8ne180100Ev', symObjAddr: 0xC144, symBinAddr: 0x1000167C8, symSize: 0x30 }
  - { offset: 0x3FCE1, size: 0x8, addend: 0x0, symName: '__ZNSt3__110unique_ptrINS_10__function6__funcIZN5Table9sumColumnEtE3$_0NS_9allocatorIS4_EEFvjRKNS_6vectorIjNS5_IjEEEEEEENS_22__allocator_destructorINS5_ISD_EEEEE5resetB8ne180100EPSD_', symObjAddr: 0xC174, symBinAddr: 0x1000167F8, symSize: 0x78 }
  - { offset: 0x3FD23, size: 0x8, addend: 0x0, symName: '__ZNSt3__117__compressed_pairIPNS_10__function6__funcIZN5Table9sumColumnEtE3$_0NS_9allocatorIS4_EEFvjRKNS_6vectorIjNS5_IjEEEEEEENS_22__allocator_destructorINS5_ISD_EEEEE6secondB8ne180100Ev', symObjAddr: 0xC1EC, symBinAddr: 0x100016870, symSize: 0x28 }
  - { offset: 0x3FD47, size: 0x8, addend: 0x0, symName: '__ZNSt3__122__allocator_destructorINS_9allocatorINS_10__function6__funcIZN5Table9sumColumnEtE3$_0NS1_IS5_EEFvjRKNS_6vectorIjNS1_IjEEEEEEEEEEclB8ne180100EPSD_', symObjAddr: 0xC214, symBinAddr: 0x100016898, symSize: 0x34 }
  - { offset: 0x3FD79, size: 0x8, addend: 0x0, symName: '__ZNSt3__122__compressed_pair_elemINS_22__allocator_destructorINS_9allocatorINS_10__function6__funcIZN5Table9sumColumnEtE3$_0NS2_IS6_EEFvjRKNS_6vectorIjNS2_IjEEEEEEEEEEELi1ELb0EE5__getB8ne180100Ev', symObjAddr: 0xC248, symBinAddr: 0x1000168CC, symSize: 0x14 }
  - { offset: 0x3FD9D, size: 0x8, addend: 0x0, symName: '__ZNSt3__116allocator_traitsINS_9allocatorINS_10__function6__funcIZN5Table9sumColumnEtE3$_0NS1_IS5_EEFvjRKNS_6vectorIjNS1_IjEEEEEEEEEE10deallocateB8ne180100ERSE_PSD_m', symObjAddr: 0xC25C, symBinAddr: 0x1000168E0, symSize: 0x34 }
  - { offset: 0x3FDDE, size: 0x8, addend: 0x0, symName: '__ZNSt3__19allocatorINS_10__function6__funcIZN5Table9sumColumnEtE3$_0NS0_IS4_EEFvjRKNS_6vectorIjNS0_IjEEEEEEEE10deallocateB8ne180100EPSC_m', symObjAddr: 0xC290, symBinAddr: 0x100016914, symSize: 0x40 }
  - { offset: 0x3FE1E, size: 0x8, addend: 0x0, symName: '__ZNSt3__110__function6__funcIZN5Table9sumColumnEtE3$_0NS_9allocatorIS3_EEFvjRKNS_6vectorIjNS4_IjEEEEEEC1B8ne180100ERKS3_RKS5_', symObjAddr: 0xC2D0, symBinAddr: 0x100016954, symSize: 0x3C }
  - { offset: 0x3FE64, size: 0x8, addend: 0x0, symName: '__ZNSt3__110__function6__funcIZN5Table9sumColumnEtE3$_0NS_9allocatorIS3_EEFvjRKNS_6vectorIjNS4_IjEEEEEEC2B8ne180100ERKS3_RKS5_', symObjAddr: 0xC30C, symBinAddr: 0x100016990, symSize: 0x80 }
  - { offset: 0x3FEAA, size: 0x8, addend: 0x0, symName: '__ZNSt3__110__function12__alloc_funcIZN5Table9sumColumnEtE3$_0NS_9allocatorIS3_EEFvjRKNS_6vectorIjNS4_IjEEEEEEC1B8ne180100ERKS3_RKS5_', symObjAddr: 0xC38C, symBinAddr: 0x100016A10, symSize: 0x3C }
  - { offset: 0x3FEEE, size: 0x8, addend: 0x0, symName: '__ZNSt3__110__function12__alloc_funcIZN5Table9sumColumnEtE3$_0NS_9allocatorIS3_EEFvjRKNS_6vectorIjNS4_IjEEEEEEC2B8ne180100ERKS3_RKS5_', symObjAddr: 0xC3C8, symBinAddr: 0x100016A4C, symSize: 0x5C }
  - { offset: 0x3FF32, size: 0x8, addend: 0x0, symName: '__ZNSt3__117__compressed_pairIZN5Table9sumColumnEtE3$_0NS_9allocatorIS2_EEEC1B8ne180100IJRKS2_EJRKS4_EEENS_21piecewise_construct_tENS_5tupleIJDpT_EEENSC_IJDpT0_EEE', symObjAddr: 0xC450, symBinAddr: 0x100016AD4, symSize: 0x3C }
  - { offset: 0x3FF9A, size: 0x8, addend: 0x0, symName: '__ZNSt3__15tupleIJRKNS_9allocatorIZN5Table9sumColumnEtE3$_0EEEEC1B8ne180100INS_4_AndELi0EEES6_', symObjAddr: 0xC48C, symBinAddr: 0x100016B10, symSize: 0x34 }
  - { offset: 0x3FFE1, size: 0x8, addend: 0x0, symName: '__ZNSt3__15tupleIJRKNS_9allocatorIZN5Table9sumColumnEtE3$_0EEEEC2B8ne180100INS_4_AndELi0EEES6_', symObjAddr: 0xC4C0, symBinAddr: 0x100016B44, symSize: 0x34 }
  - { offset: 0x40028, size: 0x8, addend: 0x0, symName: '__ZNSt3__112__tuple_implINS_15__tuple_indicesIJLm0EEEEJRKNS_9allocatorIZN5Table9sumColumnEtE3$_0EEEEC1B8ne180100IJLm0EEJS8_EJEJEJS8_EEENS1_IJXspT_EEEENS_13__tuple_typesIJDpT0_EEENS1_IJXspT1_EEEENSC_IJDpT2_EEEDpOT3_', symObjAddr: 0xC4F4, symBinAddr: 0x100016B78, symSize: 0x34 }
  - { offset: 0x400B7, size: 0x8, addend: 0x0, symName: '__ZNSt3__112__tuple_implINS_15__tuple_indicesIJLm0EEEEJRKNS_9allocatorIZN5Table9sumColumnEtE3$_0EEEEC2B8ne180100IJLm0EEJS8_EJEJEJS8_EEENS1_IJXspT_EEEENS_13__tuple_typesIJDpT0_EEENS1_IJXspT1_EEEENSC_IJDpT2_EEEDpOT3_', symObjAddr: 0xC528, symBinAddr: 0x100016BAC, symSize: 0x34 }
  - { offset: 0x40146, size: 0x8, addend: 0x0, symName: '__ZNSt3__112__tuple_leafILm0ERKNS_9allocatorIZN5Table9sumColumnEtE3$_0EELb0EEC2B8ne180100IS6_vEEOT_', symObjAddr: 0xC55C, symBinAddr: 0x100016BE0, symSize: 0x20 }
  - { offset: 0x40187, size: 0x8, addend: 0x0, symName: '__ZNSt3__117__compressed_pairIZN5Table9sumColumnEtE3$_0NS_9allocatorIS2_EEEC2B8ne180100IJRKS2_EJRKS4_EEENS_21piecewise_construct_tENS_5tupleIJDpT_EEENSC_IJDpT0_EEE', symObjAddr: 0xC57C, symBinAddr: 0x100016C00, symSize: 0x54 }
  - { offset: 0x401EF, size: 0x8, addend: 0x0, symName: '__ZNSt3__122__compressed_pair_elemINS_9allocatorIZN5Table9sumColumnEtE3$_0EELi1ELb1EEC2B8ne180100IJRKS4_EJLm0EEEENS_21piecewise_construct_tENS_5tupleIJDpT_EEENS_15__tuple_indicesIJXspT0_EEEE', symObjAddr: 0xC5D0, symBinAddr: 0x100016C54, symSize: 0x38 }
  - { offset: 0x40250, size: 0x8, addend: 0x0, symName: '__ZNSt3__112__tuple_leafILm0ERKNS_9allocatorIZN5Table9sumColumnEtE3$_0EELb0EE3getB8ne180100Ev', symObjAddr: 0xC62C, symBinAddr: 0x100016CB0, symSize: 0x18 }
  - { offset: 0x40274, size: 0x8, addend: 0x0, symName: '__ZNSt3__110__function12__alloc_funcIZN5Table9sumColumnEtE3$_0NS_9allocatorIS3_EEFvjRKNS_6vectorIjNS4_IjEEEEEE7destroyB8ne180100Ev', symObjAddr: 0xC644, symBinAddr: 0x100016CC8, symSize: 0x10 }
  - { offset: 0x40298, size: 0x8, addend: 0x0, symName: '__ZNSt3__110__function12__alloc_funcIZN5Table9sumColumnEtE3$_0NS_9allocatorIS3_EEFvjRKNS_6vectorIjNS4_IjEEEEEEclB8ne180100EOjSA_', symObjAddr: 0xC654, symBinAddr: 0x100016CD8, symSize: 0x38 }
  - { offset: 0x402D8, size: 0x8, addend: 0x0, symName: '__ZNSt3__128__invoke_void_return_wrapperIvLb1EE6__callB8ne180100IJRZN5Table9sumColumnEtE3$_0jRKNS_6vectorIjNS_9allocatorIjEEEEEEEvDpOT_', symObjAddr: 0xC68C, symBinAddr: 0x100016D10, symSize: 0x34 }
  - { offset: 0x4032E, size: 0x8, addend: 0x0, symName: '__ZNSt3__117__compressed_pairIZN5Table9sumColumnEtE3$_0NS_9allocatorIS2_EEE5firstB8ne180100Ev', symObjAddr: 0xC6C0, symBinAddr: 0x100016D44, symSize: 0x24 }
  - { offset: 0x40357, size: 0x8, addend: 0x0, symName: '__ZZN5Table9sumColumnEtENK3$_0clEjRKNSt3__16vectorIjNS1_9allocatorIjEEEE', symObjAddr: 0xC71C, symBinAddr: 0x100016DA0, symSize: 0xB0 }
  - { offset: 0x403A5, size: 0x8, addend: 0x0, symName: '__ZNSt3__122__compressed_pair_elemIZN5Table9sumColumnEtE3$_0Li0ELb0EE5__getB8ne180100Ev', symObjAddr: 0xC7CC, symBinAddr: 0x100016E50, symSize: 0x14 }
  - { offset: 0x403C9, size: 0x8, addend: 0x0, symName: '__ZNSt3__110unique_ptrINS_10__function6__baseIFvjRKNS_6vectorIjNS_9allocatorIjEEEEEEENS_22__allocator_destructorINS4_INS1_6__funcIZN5Table9sumColumnEtE3$_0NS4_ISE_EES9_EEEEEEED2B8ne180100Ev', symObjAddr: 0xC7E0, symBinAddr: 0x100016E64, symSize: 0x30 }
  - { offset: 0x403F1, size: 0x8, addend: 0x0, symName: '__ZNSt3__110unique_ptrINS_10__function6__baseIFvjRKNS_6vectorIjNS_9allocatorIjEEEEEEENS_22__allocator_destructorINS4_INS1_6__funcIZN5Table9sumColumnEtE3$_0NS4_ISE_EES9_EEEEEEE5resetB8ne180100EPSG_', symObjAddr: 0xC810, symBinAddr: 0x100016E94, symSize: 0x78 }
  - { offset: 0x40433, size: 0x8, addend: 0x0, symName: '__ZNSt3__18functionIFvjRKNS_6vectorIjNS_9allocatorIjEEEEEEC2IZN5Table27materializeColumnWithRowIDsEtE3$_0vEET_', symObjAddr: 0xC888, symBinAddr: 0x100016F0C, symSize: 0x34 }
  - { offset: 0x40477, size: 0x8, addend: 0x0, symName: '__ZNSt3__110__function12__value_funcIFvjRKNS_6vectorIjNS_9allocatorIjEEEEEEC1B8ne180100IZN5Table27materializeColumnWithRowIDsEtE3$_0Li0EEEOT_', symObjAddr: 0xC8BC, symBinAddr: 0x100016F40, symSize: 0x50 }
  - { offset: 0x404BD, size: 0x8, addend: 0x0, symName: '__ZNSt3__19allocatorIZN5Table27materializeColumnWithRowIDsEtE3$_0EC1B8ne180100Ev', symObjAddr: 0xC90C, symBinAddr: 0x100016F90, symSize: 0x2C }
  - { offset: 0x404E5, size: 0x8, addend: 0x0, symName: '__ZNSt3__110__function12__value_funcIFvjRKNS_6vectorIjNS_9allocatorIjEEEEEEC1B8ne180100IZN5Table27materializeColumnWithRowIDsEtE3$_0NS3_ISC_EEEEOT_RKT0_', symObjAddr: 0xC938, symBinAddr: 0x100016FBC, symSize: 0x3C }
  - { offset: 0x4053D, size: 0x8, addend: 0x0, symName: '__ZNSt3__19allocatorIZN5Table27materializeColumnWithRowIDsEtE3$_0EC2B8ne180100Ev', symObjAddr: 0xC974, symBinAddr: 0x100016FF8, symSize: 0x2C }
  - { offset: 0x40565, size: 0x8, addend: 0x0, symName: '__ZNSt3__116__non_trivial_ifILb1ENS_9allocatorIZN5Table27materializeColumnWithRowIDsEtE3$_0EEEC2B8ne180100Ev', symObjAddr: 0xC9A0, symBinAddr: 0x100017024, symSize: 0x14 }
  - { offset: 0x4058D, size: 0x8, addend: 0x0, symName: '__ZNSt3__110__function12__value_funcIFvjRKNS_6vectorIjNS_9allocatorIjEEEEEEC2B8ne180100IZN5Table27materializeColumnWithRowIDsEtE3$_0NS3_ISC_EEEEOT_RKT0_', symObjAddr: 0xC9B4, symBinAddr: 0x100017038, symSize: 0xF4 }
  - { offset: 0x4063E, size: 0x8, addend: 0x0, symName: '__ZNSt3__19allocatorINS_10__function6__funcIZN5Table27materializeColumnWithRowIDsEtE3$_0NS0_IS4_EEFvjRKNS_6vectorIjNS0_IjEEEEEEEEC1B8ne180100IS4_EERKNS0_IT_EE', symObjAddr: 0xCAC0, symBinAddr: 0x100017144, symSize: 0x34 }
  - { offset: 0x40679, size: 0x8, addend: 0x0, symName: '__ZNSt3__19allocatorINS_10__function6__funcIZN5Table27materializeColumnWithRowIDsEtE3$_0NS0_IS4_EEFvjRKNS_6vectorIjNS0_IjEEEEEEEE8allocateB8ne180100Em', symObjAddr: 0xCAF4, symBinAddr: 0x100017178, symSize: 0x58 }
  - { offset: 0x406BA, size: 0x8, addend: 0x0, symName: '__ZNSt3__122__allocator_destructorINS_9allocatorINS_10__function6__funcIZN5Table27materializeColumnWithRowIDsEtE3$_0NS1_IS5_EEFvjRKNS_6vectorIjNS1_IjEEEEEEEEEEC1B8ne180100ERSE_m', symObjAddr: 0xCB4C, symBinAddr: 0x1000171D0, symSize: 0x3C }
  - { offset: 0x4078A, size: 0x8, addend: 0x0, symName: '__ZNSt3__110unique_ptrINS_10__function6__baseIFvjRKNS_6vectorIjNS_9allocatorIjEEEEEEENS_22__allocator_destructorINS4_INS1_6__funcIZN5Table27materializeColumnWithRowIDsEtE3$_0NS4_ISE_EES9_EEEEEEEC1B8ne180100ILb1EvEEPSG_NS_16__dependent_typeINS_27__unique_ptr_deleter_sfinaeISI_EEXT_EE20__good_rval_ref_typeE', symObjAddr: 0xCB88, symBinAddr: 0x10001720C, symSize: 0x3C }
  - { offset: 0x407D9, size: 0x8, addend: 0x0, symName: '__ZNKSt3__110unique_ptrINS_10__function6__baseIFvjRKNS_6vectorIjNS_9allocatorIjEEEEEEENS_22__allocator_destructorINS4_INS1_6__funcIZN5Table27materializeColumnWithRowIDsEtE3$_0NS4_ISE_EES9_EEEEEEE3getB8ne180100Ev', symObjAddr: 0xCBC4, symBinAddr: 0x100017248, symSize: 0x28 }
  - { offset: 0x407FD, size: 0x8, addend: 0x0, symName: '__ZNSt3__110__function6__funcIZN5Table27materializeColumnWithRowIDsEtE3$_0NS_9allocatorIS3_EEFvjRKNS_6vectorIjNS4_IjEEEEEEC1B8ne180100EOS3_OS5_', symObjAddr: 0xCBEC, symBinAddr: 0x100017270, symSize: 0x3C }
  - { offset: 0x40843, size: 0x8, addend: 0x0, symName: '__ZNSt3__110unique_ptrINS_10__function6__baseIFvjRKNS_6vectorIjNS_9allocatorIjEEEEEEENS_22__allocator_destructorINS4_INS1_6__funcIZN5Table27materializeColumnWithRowIDsEtE3$_0NS4_ISE_EES9_EEEEEEE7releaseB8ne180100Ev', symObjAddr: 0xCC28, symBinAddr: 0x1000172AC, symSize: 0x44 }
  - { offset: 0x40876, size: 0x8, addend: 0x0, symName: '__ZNSt3__110unique_ptrINS_10__function6__baseIFvjRKNS_6vectorIjNS_9allocatorIjEEEEEEENS_22__allocator_destructorINS4_INS1_6__funcIZN5Table27materializeColumnWithRowIDsEtE3$_0NS4_ISE_EES9_EEEEEEED1B8ne180100Ev', symObjAddr: 0xCC6C, symBinAddr: 0x1000172F0, symSize: 0x2C }
  - { offset: 0x4089E, size: 0x8, addend: 0x0, symName: '__ZNSt3__19allocatorINS_10__function6__funcIZN5Table27materializeColumnWithRowIDsEtE3$_0NS0_IS4_EEFvjRKNS_6vectorIjNS0_IjEEEEEEEEC2B8ne180100IS4_EERKNS0_IT_EE', symObjAddr: 0xCC98, symBinAddr: 0x10001731C, symSize: 0x30 }
  - { offset: 0x408D9, size: 0x8, addend: 0x0, symName: '__ZNSt3__116__non_trivial_ifILb1ENS_9allocatorINS_10__function6__funcIZN5Table27materializeColumnWithRowIDsEtE3$_0NS1_IS5_EEFvjRKNS_6vectorIjNS1_IjEEEEEEEEEEC2B8ne180100Ev', symObjAddr: 0xCCC8, symBinAddr: 0x10001734C, symSize: 0x14 }
  - { offset: 0x4090B, size: 0x8, addend: 0x0, symName: '__ZNSt3__116allocator_traitsINS_9allocatorINS_10__function6__funcIZN5Table27materializeColumnWithRowIDsEtE3$_0NS1_IS5_EEFvjRKNS_6vectorIjNS1_IjEEEEEEEEEE8max_sizeB8ne180100ISE_vEEmRKSE_', symObjAddr: 0xCCDC, symBinAddr: 0x100017360, symSize: 0x24 }
  - { offset: 0x40938, size: 0x8, addend: 0x0, symName: '__ZNKSt3__19allocatorINS_10__function6__funcIZN5Table27materializeColumnWithRowIDsEtE3$_0NS0_IS4_EEFvjRKNS_6vectorIjNS0_IjEEEEEEEE8max_sizeB8ne180100Ev', symObjAddr: 0xCD00, symBinAddr: 0x100017384, symSize: 0x14 }
  - { offset: 0x4095C, size: 0x8, addend: 0x0, symName: '__ZNSt3__122__allocator_destructorINS_9allocatorINS_10__function6__funcIZN5Table27materializeColumnWithRowIDsEtE3$_0NS1_IS5_EEFvjRKNS_6vectorIjNS1_IjEEEEEEEEEEC2B8ne180100ERSE_m', symObjAddr: 0xCD14, symBinAddr: 0x100017398, symSize: 0x2C }
  - { offset: 0x409A0, size: 0x8, addend: 0x0, symName: '__ZNSt3__110unique_ptrINS_10__function6__baseIFvjRKNS_6vectorIjNS_9allocatorIjEEEEEEENS_22__allocator_destructorINS4_INS1_6__funcIZN5Table27materializeColumnWithRowIDsEtE3$_0NS4_ISE_EES9_EEEEEEEC2B8ne180100ILb1EvEEPSG_NS_16__dependent_typeINS_27__unique_ptr_deleter_sfinaeISI_EEXT_EE20__good_rval_ref_typeE', symObjAddr: 0xCD40, symBinAddr: 0x1000173C4, symSize: 0x48 }
  - { offset: 0x409EF, size: 0x8, addend: 0x0, symName: '__ZNSt3__117__compressed_pairIPNS_10__function6__funcIZN5Table27materializeColumnWithRowIDsEtE3$_0NS_9allocatorIS4_EEFvjRKNS_6vectorIjNS5_IjEEEEEEENS_22__allocator_destructorINS5_ISD_EEEEEC1B8ne180100IRSE_SH_EEOT_OT0_', symObjAddr: 0xCD88, symBinAddr: 0x10001740C, symSize: 0x3C }
  - { offset: 0x40A45, size: 0x8, addend: 0x0, symName: '__ZNSt3__117__compressed_pairIPNS_10__function6__funcIZN5Table27materializeColumnWithRowIDsEtE3$_0NS_9allocatorIS4_EEFvjRKNS_6vectorIjNS5_IjEEEEEEENS_22__allocator_destructorINS5_ISD_EEEEEC2B8ne180100IRSE_SH_EEOT_OT0_', symObjAddr: 0xCDC4, symBinAddr: 0x100017448, symSize: 0x48 }
  - { offset: 0x40A9B, size: 0x8, addend: 0x0, symName: '__ZNSt3__122__compressed_pair_elemIPNS_10__function6__funcIZN5Table27materializeColumnWithRowIDsEtE3$_0NS_9allocatorIS4_EEFvjRKNS_6vectorIjNS5_IjEEEEEEELi0ELb0EEC2B8ne180100IRSE_vEEOT_', symObjAddr: 0xCE0C, symBinAddr: 0x100017490, symSize: 0x24 }
  - { offset: 0x40ADB, size: 0x8, addend: 0x0, symName: '__ZNSt3__122__compressed_pair_elemINS_22__allocator_destructorINS_9allocatorINS_10__function6__funcIZN5Table27materializeColumnWithRowIDsEtE3$_0NS2_IS6_EEFvjRKNS_6vectorIjNS2_IjEEEEEEEEEEELi1ELb0EEC2B8ne180100ISG_vEEOT_', symObjAddr: 0xCE30, symBinAddr: 0x1000174B4, symSize: 0x24 }
  - { offset: 0x40B1B, size: 0x8, addend: 0x0, symName: '__ZNKSt3__117__compressed_pairIPNS_10__function6__funcIZN5Table27materializeColumnWithRowIDsEtE3$_0NS_9allocatorIS4_EEFvjRKNS_6vectorIjNS5_IjEEEEEEENS_22__allocator_destructorINS5_ISD_EEEEE5firstB8ne180100Ev', symObjAddr: 0xCE54, symBinAddr: 0x1000174D8, symSize: 0x24 }
  - { offset: 0x40B3F, size: 0x8, addend: 0x0, symName: '__ZNKSt3__122__compressed_pair_elemIPNS_10__function6__funcIZN5Table27materializeColumnWithRowIDsEtE3$_0NS_9allocatorIS4_EEFvjRKNS_6vectorIjNS5_IjEEEEEEELi0ELb0EE5__getB8ne180100Ev', symObjAddr: 0xCE78, symBinAddr: 0x1000174FC, symSize: 0x14 }
  - { offset: 0x40B63, size: 0x8, addend: 0x0, symName: '__ZNSt3__110__function6__funcIZN5Table27materializeColumnWithRowIDsEtE3$_0NS_9allocatorIS3_EEFvjRKNS_6vectorIjNS4_IjEEEEEEC2B8ne180100EOS3_OS5_', symObjAddr: 0xCE8C, symBinAddr: 0x100017510, symSize: 0x80 }
  - { offset: 0x40BA9, size: 0x8, addend: 0x0, symName: '__ZNSt3__110__function12__alloc_funcIZN5Table27materializeColumnWithRowIDsEtE3$_0NS_9allocatorIS3_EEFvjRKNS_6vectorIjNS4_IjEEEEEEC1B8ne180100EOS3_OS5_', symObjAddr: 0xCF0C, symBinAddr: 0x100017590, symSize: 0x3C }
  - { offset: 0x40BED, size: 0x8, addend: 0x0, symName: '__ZNSt3__110__function6__funcIZN5Table27materializeColumnWithRowIDsEtE3$_0NS_9allocatorIS3_EEFvjRKNS_6vectorIjNS4_IjEEEEEED1Ev', symObjAddr: 0xCF48, symBinAddr: 0x1000175CC, symSize: 0x2C }
  - { offset: 0x40C17, size: 0x8, addend: 0x0, symName: '__ZNSt3__110__function6__funcIZN5Table27materializeColumnWithRowIDsEtE3$_0NS_9allocatorIS3_EEFvjRKNS_6vectorIjNS4_IjEEEEEED0Ev', symObjAddr: 0xCF74, symBinAddr: 0x1000175F8, symSize: 0x30 }
  - { offset: 0x40C41, size: 0x8, addend: 0x0, symName: '__ZNKSt3__110__function6__funcIZN5Table27materializeColumnWithRowIDsEtE3$_0NS_9allocatorIS3_EEFvjRKNS_6vectorIjNS4_IjEEEEEE7__cloneEv', symObjAddr: 0xCFA4, symBinAddr: 0x100017628, symSize: 0xFC }
  - { offset: 0x40C91, size: 0x8, addend: 0x0, symName: '__ZNKSt3__110__function6__funcIZN5Table27materializeColumnWithRowIDsEtE3$_0NS_9allocatorIS3_EEFvjRKNS_6vectorIjNS4_IjEEEEEE7__cloneEPNS0_6__baseISB_EE', symObjAddr: 0xD0A0, symBinAddr: 0x100017724, symSize: 0x58 }
  - { offset: 0x40CC6, size: 0x8, addend: 0x0, symName: '__ZNSt3__110__function6__funcIZN5Table27materializeColumnWithRowIDsEtE3$_0NS_9allocatorIS3_EEFvjRKNS_6vectorIjNS4_IjEEEEEE7destroyEv', symObjAddr: 0xD0F8, symBinAddr: 0x10001777C, symSize: 0x28 }
  - { offset: 0x40CEC, size: 0x8, addend: 0x0, symName: '__ZNSt3__110__function6__funcIZN5Table27materializeColumnWithRowIDsEtE3$_0NS_9allocatorIS3_EEFvjRKNS_6vectorIjNS4_IjEEEEEE18destroy_deallocateEv', symObjAddr: 0xD120, symBinAddr: 0x1000177A4, symSize: 0x58 }
  - { offset: 0x40D2D, size: 0x8, addend: 0x0, symName: '__ZNSt3__110__function6__funcIZN5Table27materializeColumnWithRowIDsEtE3$_0NS_9allocatorIS3_EEFvjRKNS_6vectorIjNS4_IjEEEEEEclEOjSA_', symObjAddr: 0xD178, symBinAddr: 0x1000177FC, symSize: 0x38 }
  - { offset: 0x40D71, size: 0x8, addend: 0x0, symName: '__ZNKSt3__110__function6__funcIZN5Table27materializeColumnWithRowIDsEtE3$_0NS_9allocatorIS3_EEFvjRKNS_6vectorIjNS4_IjEEEEEE6targetERKSt9type_info', symObjAddr: 0xD1B0, symBinAddr: 0x100017834, symSize: 0x60 }
  - { offset: 0x40DA7, size: 0x8, addend: 0x0, symName: '__ZNKSt3__110__function6__funcIZN5Table27materializeColumnWithRowIDsEtE3$_0NS_9allocatorIS3_EEFvjRKNS_6vectorIjNS4_IjEEEEEE11target_typeEv', symObjAddr: 0xD210, symBinAddr: 0x100017894, symSize: 0x18 }
  - { offset: 0x40DCD, size: 0x8, addend: 0x0, symName: '__ZNSt3__110__function12__alloc_funcIZN5Table27materializeColumnWithRowIDsEtE3$_0NS_9allocatorIS3_EEFvjRKNS_6vectorIjNS4_IjEEEEEEC2B8ne180100EOS3_OS5_', symObjAddr: 0xD228, symBinAddr: 0x1000178AC, symSize: 0x5C }
  - { offset: 0x40E11, size: 0x8, addend: 0x0, symName: '__ZNSt3__117__compressed_pairIZN5Table27materializeColumnWithRowIDsEtE3$_0NS_9allocatorIS2_EEEC1B8ne180100IJOS2_EJOS4_EEENS_21piecewise_construct_tENS_5tupleIJDpT_EEENSA_IJDpT0_EEE', symObjAddr: 0xD2DC, symBinAddr: 0x100017960, symSize: 0x3C }
  - { offset: 0x40E79, size: 0x8, addend: 0x0, symName: '__ZNSt3__15tupleIJOZN5Table27materializeColumnWithRowIDsEtE3$_0EEC1B8ne180100IJS2_ELi0EEEDpOT_', symObjAddr: 0xD318, symBinAddr: 0x10001799C, symSize: 0x34 }
  - { offset: 0x40EC1, size: 0x8, addend: 0x0, symName: '__ZNSt3__15tupleIJOZN5Table27materializeColumnWithRowIDsEtE3$_0EEC2B8ne180100IJS2_ELi0EEEDpOT_', symObjAddr: 0xD34C, symBinAddr: 0x1000179D0, symSize: 0x34 }
  - { offset: 0x40F09, size: 0x8, addend: 0x0, symName: '__ZNSt3__112__tuple_implINS_15__tuple_indicesIJLm0EEEEJOZN5Table27materializeColumnWithRowIDsEtE3$_0EEC1B8ne180100IJLm0EEJS5_EJEJEJS4_EEENS1_IJXspT_EEEENS_13__tuple_typesIJDpT0_EEENS1_IJXspT1_EEEENS9_IJDpT2_EEEDpOT3_', symObjAddr: 0xD380, symBinAddr: 0x100017A04, symSize: 0x34 }
  - { offset: 0x40F98, size: 0x8, addend: 0x0, symName: '__ZNSt3__112__tuple_implINS_15__tuple_indicesIJLm0EEEEJOZN5Table27materializeColumnWithRowIDsEtE3$_0EEC2B8ne180100IJLm0EEJS5_EJEJEJS4_EEENS1_IJXspT_EEEENS_13__tuple_typesIJDpT0_EEENS1_IJXspT1_EEEENS9_IJDpT2_EEEDpOT3_', symObjAddr: 0xD3B4, symBinAddr: 0x100017A38, symSize: 0x34 }
  - { offset: 0x41027, size: 0x8, addend: 0x0, symName: '__ZNSt3__112__tuple_leafILm0EOZN5Table27materializeColumnWithRowIDsEtE3$_0Lb0EEC2B8ne180100IS2_vEEOT_', symObjAddr: 0xD3E8, symBinAddr: 0x100017A6C, symSize: 0x20 }
  - { offset: 0x41068, size: 0x8, addend: 0x0, symName: '__ZNSt3__15tupleIJONS_9allocatorIZN5Table27materializeColumnWithRowIDsEtE3$_0EEEEC1B8ne180100IJS4_ELi0EEEDpOT_', symObjAddr: 0xD408, symBinAddr: 0x100017A8C, symSize: 0x34 }
  - { offset: 0x410B0, size: 0x8, addend: 0x0, symName: '__ZNSt3__15tupleIJONS_9allocatorIZN5Table27materializeColumnWithRowIDsEtE3$_0EEEEC2B8ne180100IJS4_ELi0EEEDpOT_', symObjAddr: 0xD43C, symBinAddr: 0x100017AC0, symSize: 0x34 }
  - { offset: 0x410F8, size: 0x8, addend: 0x0, symName: '__ZNSt3__112__tuple_implINS_15__tuple_indicesIJLm0EEEEJONS_9allocatorIZN5Table27materializeColumnWithRowIDsEtE3$_0EEEEC1B8ne180100IJLm0EEJS7_EJEJEJS6_EEENS1_IJXspT_EEEENS_13__tuple_typesIJDpT0_EEENS1_IJXspT1_EEEENSB_IJDpT2_EEEDpOT3_', symObjAddr: 0xD470, symBinAddr: 0x100017AF4, symSize: 0x34 }
  - { offset: 0x41187, size: 0x8, addend: 0x0, symName: '__ZNSt3__112__tuple_implINS_15__tuple_indicesIJLm0EEEEJONS_9allocatorIZN5Table27materializeColumnWithRowIDsEtE3$_0EEEEC2B8ne180100IJLm0EEJS7_EJEJEJS6_EEENS1_IJXspT_EEEENS_13__tuple_typesIJDpT0_EEENS1_IJXspT1_EEEENSB_IJDpT2_EEEDpOT3_', symObjAddr: 0xD4A4, symBinAddr: 0x100017B28, symSize: 0x34 }
  - { offset: 0x41216, size: 0x8, addend: 0x0, symName: '__ZNSt3__112__tuple_leafILm0EONS_9allocatorIZN5Table27materializeColumnWithRowIDsEtE3$_0EELb0EEC2B8ne180100IS4_vEEOT_', symObjAddr: 0xD4D8, symBinAddr: 0x100017B5C, symSize: 0x20 }
  - { offset: 0x41257, size: 0x8, addend: 0x0, symName: '__ZNSt3__117__compressed_pairIZN5Table27materializeColumnWithRowIDsEtE3$_0NS_9allocatorIS2_EEEC2B8ne180100IJOS2_EJOS4_EEENS_21piecewise_construct_tENS_5tupleIJDpT_EEENSA_IJDpT0_EEE', symObjAddr: 0xD4F8, symBinAddr: 0x100017B7C, symSize: 0x54 }
  - { offset: 0x412BF, size: 0x8, addend: 0x0, symName: '__ZNSt3__122__compressed_pair_elemIZN5Table27materializeColumnWithRowIDsEtE3$_0Li0ELb0EEC2B8ne180100IJOS2_EJLm0EEEENS_21piecewise_construct_tENS_5tupleIJDpT_EEENS_15__tuple_indicesIJXspT0_EEEE', symObjAddr: 0xD54C, symBinAddr: 0x100017BD0, symSize: 0x4C }
  - { offset: 0x41320, size: 0x8, addend: 0x0, symName: '__ZNSt3__122__compressed_pair_elemINS_9allocatorIZN5Table27materializeColumnWithRowIDsEtE3$_0EELi1ELb1EEC2B8ne180100IJOS4_EJLm0EEEENS_21piecewise_construct_tENS_5tupleIJDpT_EEENS_15__tuple_indicesIJXspT0_EEEE', symObjAddr: 0xD598, symBinAddr: 0x100017C1C, symSize: 0x38 }
  - { offset: 0x41381, size: 0x8, addend: 0x0, symName: '__ZNSt3__112__tuple_leafILm0EOZN5Table27materializeColumnWithRowIDsEtE3$_0Lb0EE3getB8ne180100Ev', symObjAddr: 0xD5F4, symBinAddr: 0x100017C78, symSize: 0x18 }
  - { offset: 0x413A5, size: 0x8, addend: 0x0, symName: '__ZNSt3__112__tuple_leafILm0EONS_9allocatorIZN5Table27materializeColumnWithRowIDsEtE3$_0EELb0EE3getB8ne180100Ev', symObjAddr: 0xD630, symBinAddr: 0x100017CB4, symSize: 0x18 }
  - { offset: 0x413C9, size: 0x8, addend: 0x0, symName: '__ZNSt3__110__function6__funcIZN5Table27materializeColumnWithRowIDsEtE3$_0NS_9allocatorIS3_EEFvjRKNS_6vectorIjNS4_IjEEEEEED2Ev', symObjAddr: 0xD648, symBinAddr: 0x100017CCC, symSize: 0x2C }
  - { offset: 0x413F3, size: 0x8, addend: 0x0, symName: '__ZNKSt3__110__function12__alloc_funcIZN5Table27materializeColumnWithRowIDsEtE3$_0NS_9allocatorIS3_EEFvjRKNS_6vectorIjNS4_IjEEEEEE15__get_allocatorB8ne180100Ev', symObjAddr: 0xD674, symBinAddr: 0x100017CF8, symSize: 0x24 }
  - { offset: 0x4143F, size: 0x8, addend: 0x0, symName: '__ZNSt3__110unique_ptrINS_10__function6__funcIZN5Table27materializeColumnWithRowIDsEtE3$_0NS_9allocatorIS4_EEFvjRKNS_6vectorIjNS5_IjEEEEEEENS_22__allocator_destructorINS5_ISD_EEEEEC1B8ne180100ILb1EvEEPSD_NS_16__dependent_typeINS_27__unique_ptr_deleter_sfinaeISG_EEXT_EE20__good_rval_ref_typeE', symObjAddr: 0xD698, symBinAddr: 0x100017D1C, symSize: 0x3C }
  - { offset: 0x4148E, size: 0x8, addend: 0x0, symName: '__ZNKSt3__110unique_ptrINS_10__function6__funcIZN5Table27materializeColumnWithRowIDsEtE3$_0NS_9allocatorIS4_EEFvjRKNS_6vectorIjNS5_IjEEEEEEENS_22__allocator_destructorINS5_ISD_EEEEE3getB8ne180100Ev', symObjAddr: 0xD6D4, symBinAddr: 0x100017D58, symSize: 0x28 }
  - { offset: 0x414B2, size: 0x8, addend: 0x0, symName: '__ZNKSt3__110__function12__alloc_funcIZN5Table27materializeColumnWithRowIDsEtE3$_0NS_9allocatorIS3_EEFvjRKNS_6vectorIjNS4_IjEEEEEE8__targetB8ne180100Ev', symObjAddr: 0xD6FC, symBinAddr: 0x100017D80, symSize: 0x24 }
  - { offset: 0x414DB, size: 0x8, addend: 0x0, symName: '__ZNSt3__19allocatorIZN5Table27materializeColumnWithRowIDsEtE3$_0EC1B8ne180100INS_10__function6__funcIS2_S3_FvjRKNS_6vectorIjNS0_IjEEEEEEEEERKNS0_IT_EE', symObjAddr: 0xD720, symBinAddr: 0x100017DA4, symSize: 0x34 }
  - { offset: 0x41516, size: 0x8, addend: 0x0, symName: '__ZNSt3__110__function6__funcIZN5Table27materializeColumnWithRowIDsEtE3$_0NS_9allocatorIS3_EEFvjRKNS_6vectorIjNS4_IjEEEEEEC1B8ne180100ERKS3_OS5_', symObjAddr: 0xD754, symBinAddr: 0x100017DD8, symSize: 0x3C }
  - { offset: 0x4155C, size: 0x8, addend: 0x0, symName: '__ZNSt3__110unique_ptrINS_10__function6__funcIZN5Table27materializeColumnWithRowIDsEtE3$_0NS_9allocatorIS4_EEFvjRKNS_6vectorIjNS5_IjEEEEEEENS_22__allocator_destructorINS5_ISD_EEEEE7releaseB8ne180100Ev', symObjAddr: 0xD790, symBinAddr: 0x100017E14, symSize: 0x44 }
  - { offset: 0x4158F, size: 0x8, addend: 0x0, symName: '__ZNSt3__110unique_ptrINS_10__function6__funcIZN5Table27materializeColumnWithRowIDsEtE3$_0NS_9allocatorIS4_EEFvjRKNS_6vectorIjNS5_IjEEEEEEENS_22__allocator_destructorINS5_ISD_EEEEED1B8ne180100Ev', symObjAddr: 0xD7D4, symBinAddr: 0x100017E58, symSize: 0x2C }
  - { offset: 0x415B7, size: 0x8, addend: 0x0, symName: '__ZNKSt3__117__compressed_pairIZN5Table27materializeColumnWithRowIDsEtE3$_0NS_9allocatorIS2_EEE6secondB8ne180100Ev', symObjAddr: 0xD800, symBinAddr: 0x100017E84, symSize: 0x24 }
  - { offset: 0x415DB, size: 0x8, addend: 0x0, symName: '__ZNKSt3__122__compressed_pair_elemINS_9allocatorIZN5Table27materializeColumnWithRowIDsEtE3$_0EELi1ELb1EE5__getB8ne180100Ev', symObjAddr: 0xD824, symBinAddr: 0x100017EA8, symSize: 0x14 }
  - { offset: 0x415FF, size: 0x8, addend: 0x0, symName: '__ZNSt3__110unique_ptrINS_10__function6__funcIZN5Table27materializeColumnWithRowIDsEtE3$_0NS_9allocatorIS4_EEFvjRKNS_6vectorIjNS5_IjEEEEEEENS_22__allocator_destructorINS5_ISD_EEEEEC2B8ne180100ILb1EvEEPSD_NS_16__dependent_typeINS_27__unique_ptr_deleter_sfinaeISG_EEXT_EE20__good_rval_ref_typeE', symObjAddr: 0xD838, symBinAddr: 0x100017EBC, symSize: 0x48 }
  - { offset: 0x4164E, size: 0x8, addend: 0x0, symName: '__ZNKSt3__117__compressed_pairIZN5Table27materializeColumnWithRowIDsEtE3$_0NS_9allocatorIS2_EEE5firstB8ne180100Ev', symObjAddr: 0xD880, symBinAddr: 0x100017F04, symSize: 0x24 }
  - { offset: 0x41672, size: 0x8, addend: 0x0, symName: '__ZNKSt3__122__compressed_pair_elemIZN5Table27materializeColumnWithRowIDsEtE3$_0Li0ELb0EE5__getB8ne180100Ev', symObjAddr: 0xD8A4, symBinAddr: 0x100017F28, symSize: 0x14 }
  - { offset: 0x41696, size: 0x8, addend: 0x0, symName: '__ZNSt3__19allocatorIZN5Table27materializeColumnWithRowIDsEtE3$_0EC2B8ne180100INS_10__function6__funcIS2_S3_FvjRKNS_6vectorIjNS0_IjEEEEEEEEERKNS0_IT_EE', symObjAddr: 0xD8B8, symBinAddr: 0x100017F3C, symSize: 0x30 }
  - { offset: 0x416D1, size: 0x8, addend: 0x0, symName: '__ZNSt3__110__function6__funcIZN5Table27materializeColumnWithRowIDsEtE3$_0NS_9allocatorIS3_EEFvjRKNS_6vectorIjNS4_IjEEEEEEC2B8ne180100ERKS3_OS5_', symObjAddr: 0xD8E8, symBinAddr: 0x100017F6C, symSize: 0x80 }
  - { offset: 0x41717, size: 0x8, addend: 0x0, symName: '__ZNSt3__110__function12__alloc_funcIZN5Table27materializeColumnWithRowIDsEtE3$_0NS_9allocatorIS3_EEFvjRKNS_6vectorIjNS4_IjEEEEEEC1B8ne180100ERKS3_OS5_', symObjAddr: 0xD968, symBinAddr: 0x100017FEC, symSize: 0x3C }
  - { offset: 0x4175B, size: 0x8, addend: 0x0, symName: '__ZNSt3__110__function12__alloc_funcIZN5Table27materializeColumnWithRowIDsEtE3$_0NS_9allocatorIS3_EEFvjRKNS_6vectorIjNS4_IjEEEEEEC2B8ne180100ERKS3_OS5_', symObjAddr: 0xD9A4, symBinAddr: 0x100018028, symSize: 0x5C }
  - { offset: 0x4179F, size: 0x8, addend: 0x0, symName: '__ZNSt3__117__compressed_pairIZN5Table27materializeColumnWithRowIDsEtE3$_0NS_9allocatorIS2_EEEC1B8ne180100IJRKS2_EJOS4_EEENS_21piecewise_construct_tENS_5tupleIJDpT_EEENSB_IJDpT0_EEE', symObjAddr: 0xDA2C, symBinAddr: 0x1000180B0, symSize: 0x3C }
  - { offset: 0x41807, size: 0x8, addend: 0x0, symName: '__ZNSt3__15tupleIJRKZN5Table27materializeColumnWithRowIDsEtE3$_0EEC1B8ne180100INS_4_AndELi0EEES4_', symObjAddr: 0xDA68, symBinAddr: 0x1000180EC, symSize: 0x34 }
  - { offset: 0x4184E, size: 0x8, addend: 0x0, symName: '__ZNSt3__15tupleIJRKZN5Table27materializeColumnWithRowIDsEtE3$_0EEC2B8ne180100INS_4_AndELi0EEES4_', symObjAddr: 0xDA9C, symBinAddr: 0x100018120, symSize: 0x34 }
  - { offset: 0x41895, size: 0x8, addend: 0x0, symName: '__ZNSt3__112__tuple_implINS_15__tuple_indicesIJLm0EEEEJRKZN5Table27materializeColumnWithRowIDsEtE3$_0EEC1B8ne180100IJLm0EEJS6_EJEJEJS6_EEENS1_IJXspT_EEEENS_13__tuple_typesIJDpT0_EEENS1_IJXspT1_EEEENSA_IJDpT2_EEEDpOT3_', symObjAddr: 0xDAD0, symBinAddr: 0x100018154, symSize: 0x34 }
  - { offset: 0x41924, size: 0x8, addend: 0x0, symName: '__ZNSt3__112__tuple_implINS_15__tuple_indicesIJLm0EEEEJRKZN5Table27materializeColumnWithRowIDsEtE3$_0EEC2B8ne180100IJLm0EEJS6_EJEJEJS6_EEENS1_IJXspT_EEEENS_13__tuple_typesIJDpT0_EEENS1_IJXspT1_EEEENSA_IJDpT2_EEEDpOT3_', symObjAddr: 0xDB04, symBinAddr: 0x100018188, symSize: 0x34 }
  - { offset: 0x419B3, size: 0x8, addend: 0x0, symName: '__ZNSt3__112__tuple_leafILm0ERKZN5Table27materializeColumnWithRowIDsEtE3$_0Lb0EEC2B8ne180100IS4_vEEOT_', symObjAddr: 0xDB38, symBinAddr: 0x1000181BC, symSize: 0x20 }
  - { offset: 0x419F4, size: 0x8, addend: 0x0, symName: '__ZNSt3__117__compressed_pairIZN5Table27materializeColumnWithRowIDsEtE3$_0NS_9allocatorIS2_EEEC2B8ne180100IJRKS2_EJOS4_EEENS_21piecewise_construct_tENS_5tupleIJDpT_EEENSB_IJDpT0_EEE', symObjAddr: 0xDB58, symBinAddr: 0x1000181DC, symSize: 0x54 }
  - { offset: 0x41A5C, size: 0x8, addend: 0x0, symName: '__ZNSt3__122__compressed_pair_elemIZN5Table27materializeColumnWithRowIDsEtE3$_0Li0ELb0EEC2B8ne180100IJRKS2_EJLm0EEEENS_21piecewise_construct_tENS_5tupleIJDpT_EEENS_15__tuple_indicesIJXspT0_EEEE', symObjAddr: 0xDBAC, symBinAddr: 0x100018230, symSize: 0x4C }
  - { offset: 0x41ABD, size: 0x8, addend: 0x0, symName: '__ZNSt3__112__tuple_leafILm0ERKZN5Table27materializeColumnWithRowIDsEtE3$_0Lb0EE3getB8ne180100Ev', symObjAddr: 0xDC1C, symBinAddr: 0x1000182A0, symSize: 0x18 }
  - { offset: 0x41AE1, size: 0x8, addend: 0x0, symName: '__ZNSt3__117__compressed_pairIPNS_10__function6__funcIZN5Table27materializeColumnWithRowIDsEtE3$_0NS_9allocatorIS4_EEFvjRKNS_6vectorIjNS5_IjEEEEEEENS_22__allocator_destructorINS5_ISD_EEEEE5firstB8ne180100Ev', symObjAddr: 0xDC34, symBinAddr: 0x1000182B8, symSize: 0x24 }
  - { offset: 0x41B05, size: 0x8, addend: 0x0, symName: '__ZNSt3__122__compressed_pair_elemIPNS_10__function6__funcIZN5Table27materializeColumnWithRowIDsEtE3$_0NS_9allocatorIS4_EEFvjRKNS_6vectorIjNS5_IjEEEEEEELi0ELb0EE5__getB8ne180100Ev', symObjAddr: 0xDC58, symBinAddr: 0x1000182DC, symSize: 0x14 }
  - { offset: 0x41B29, size: 0x8, addend: 0x0, symName: '__ZNSt3__110unique_ptrINS_10__function6__funcIZN5Table27materializeColumnWithRowIDsEtE3$_0NS_9allocatorIS4_EEFvjRKNS_6vectorIjNS5_IjEEEEEEENS_22__allocator_destructorINS5_ISD_EEEEED2B8ne180100Ev', symObjAddr: 0xDC6C, symBinAddr: 0x1000182F0, symSize: 0x30 }
  - { offset: 0x41B51, size: 0x8, addend: 0x0, symName: '__ZNSt3__110unique_ptrINS_10__function6__funcIZN5Table27materializeColumnWithRowIDsEtE3$_0NS_9allocatorIS4_EEFvjRKNS_6vectorIjNS5_IjEEEEEEENS_22__allocator_destructorINS5_ISD_EEEEE5resetB8ne180100EPSD_', symObjAddr: 0xDC9C, symBinAddr: 0x100018320, symSize: 0x78 }
  - { offset: 0x41B93, size: 0x8, addend: 0x0, symName: '__ZNSt3__117__compressed_pairIPNS_10__function6__funcIZN5Table27materializeColumnWithRowIDsEtE3$_0NS_9allocatorIS4_EEFvjRKNS_6vectorIjNS5_IjEEEEEEENS_22__allocator_destructorINS5_ISD_EEEEE6secondB8ne180100Ev', symObjAddr: 0xDD14, symBinAddr: 0x100018398, symSize: 0x28 }
  - { offset: 0x41BB7, size: 0x8, addend: 0x0, symName: '__ZNSt3__122__allocator_destructorINS_9allocatorINS_10__function6__funcIZN5Table27materializeColumnWithRowIDsEtE3$_0NS1_IS5_EEFvjRKNS_6vectorIjNS1_IjEEEEEEEEEEclB8ne180100EPSD_', symObjAddr: 0xDD3C, symBinAddr: 0x1000183C0, symSize: 0x34 }
  - { offset: 0x41BE9, size: 0x8, addend: 0x0, symName: '__ZNSt3__122__compressed_pair_elemINS_22__allocator_destructorINS_9allocatorINS_10__function6__funcIZN5Table27materializeColumnWithRowIDsEtE3$_0NS2_IS6_EEFvjRKNS_6vectorIjNS2_IjEEEEEEEEEEELi1ELb0EE5__getB8ne180100Ev', symObjAddr: 0xDD70, symBinAddr: 0x1000183F4, symSize: 0x14 }
  - { offset: 0x41C0D, size: 0x8, addend: 0x0, symName: '__ZNSt3__116allocator_traitsINS_9allocatorINS_10__function6__funcIZN5Table27materializeColumnWithRowIDsEtE3$_0NS1_IS5_EEFvjRKNS_6vectorIjNS1_IjEEEEEEEEEE10deallocateB8ne180100ERSE_PSD_m', symObjAddr: 0xDD84, symBinAddr: 0x100018408, symSize: 0x34 }
  - { offset: 0x41C4E, size: 0x8, addend: 0x0, symName: '__ZNSt3__19allocatorINS_10__function6__funcIZN5Table27materializeColumnWithRowIDsEtE3$_0NS0_IS4_EEFvjRKNS_6vectorIjNS0_IjEEEEEEEE10deallocateB8ne180100EPSC_m', symObjAddr: 0xDDB8, symBinAddr: 0x10001843C, symSize: 0x40 }
  - { offset: 0x41C8E, size: 0x8, addend: 0x0, symName: '__ZNSt3__110__function6__funcIZN5Table27materializeColumnWithRowIDsEtE3$_0NS_9allocatorIS3_EEFvjRKNS_6vectorIjNS4_IjEEEEEEC1B8ne180100ERKS3_RKS5_', symObjAddr: 0xDDF8, symBinAddr: 0x10001847C, symSize: 0x3C }
  - { offset: 0x41CD4, size: 0x8, addend: 0x0, symName: '__ZNSt3__110__function6__funcIZN5Table27materializeColumnWithRowIDsEtE3$_0NS_9allocatorIS3_EEFvjRKNS_6vectorIjNS4_IjEEEEEEC2B8ne180100ERKS3_RKS5_', symObjAddr: 0xDE34, symBinAddr: 0x1000184B8, symSize: 0x80 }
  - { offset: 0x41D1A, size: 0x8, addend: 0x0, symName: '__ZNSt3__110__function12__alloc_funcIZN5Table27materializeColumnWithRowIDsEtE3$_0NS_9allocatorIS3_EEFvjRKNS_6vectorIjNS4_IjEEEEEEC1B8ne180100ERKS3_RKS5_', symObjAddr: 0xDEB4, symBinAddr: 0x100018538, symSize: 0x3C }
  - { offset: 0x41D5E, size: 0x8, addend: 0x0, symName: '__ZNSt3__110__function12__alloc_funcIZN5Table27materializeColumnWithRowIDsEtE3$_0NS_9allocatorIS3_EEFvjRKNS_6vectorIjNS4_IjEEEEEEC2B8ne180100ERKS3_RKS5_', symObjAddr: 0xDEF0, symBinAddr: 0x100018574, symSize: 0x5C }
  - { offset: 0x41DA2, size: 0x8, addend: 0x0, symName: '__ZNSt3__117__compressed_pairIZN5Table27materializeColumnWithRowIDsEtE3$_0NS_9allocatorIS2_EEEC1B8ne180100IJRKS2_EJRKS4_EEENS_21piecewise_construct_tENS_5tupleIJDpT_EEENSC_IJDpT0_EEE', symObjAddr: 0xDF78, symBinAddr: 0x1000185FC, symSize: 0x3C }
  - { offset: 0x41E0A, size: 0x8, addend: 0x0, symName: '__ZNSt3__15tupleIJRKNS_9allocatorIZN5Table27materializeColumnWithRowIDsEtE3$_0EEEEC1B8ne180100INS_4_AndELi0EEES6_', symObjAddr: 0xDFB4, symBinAddr: 0x100018638, symSize: 0x34 }
  - { offset: 0x41E51, size: 0x8, addend: 0x0, symName: '__ZNSt3__15tupleIJRKNS_9allocatorIZN5Table27materializeColumnWithRowIDsEtE3$_0EEEEC2B8ne180100INS_4_AndELi0EEES6_', symObjAddr: 0xDFE8, symBinAddr: 0x10001866C, symSize: 0x34 }
  - { offset: 0x41E98, size: 0x8, addend: 0x0, symName: '__ZNSt3__112__tuple_implINS_15__tuple_indicesIJLm0EEEEJRKNS_9allocatorIZN5Table27materializeColumnWithRowIDsEtE3$_0EEEEC1B8ne180100IJLm0EEJS8_EJEJEJS8_EEENS1_IJXspT_EEEENS_13__tuple_typesIJDpT0_EEENS1_IJXspT1_EEEENSC_IJDpT2_EEEDpOT3_', symObjAddr: 0xE01C, symBinAddr: 0x1000186A0, symSize: 0x34 }
  - { offset: 0x41F27, size: 0x8, addend: 0x0, symName: '__ZNSt3__112__tuple_implINS_15__tuple_indicesIJLm0EEEEJRKNS_9allocatorIZN5Table27materializeColumnWithRowIDsEtE3$_0EEEEC2B8ne180100IJLm0EEJS8_EJEJEJS8_EEENS1_IJXspT_EEEENS_13__tuple_typesIJDpT0_EEENS1_IJXspT1_EEEENSC_IJDpT2_EEEDpOT3_', symObjAddr: 0xE050, symBinAddr: 0x1000186D4, symSize: 0x34 }
  - { offset: 0x41FB6, size: 0x8, addend: 0x0, symName: '__ZNSt3__112__tuple_leafILm0ERKNS_9allocatorIZN5Table27materializeColumnWithRowIDsEtE3$_0EELb0EEC2B8ne180100IS6_vEEOT_', symObjAddr: 0xE084, symBinAddr: 0x100018708, symSize: 0x20 }
  - { offset: 0x41FF7, size: 0x8, addend: 0x0, symName: '__ZNSt3__117__compressed_pairIZN5Table27materializeColumnWithRowIDsEtE3$_0NS_9allocatorIS2_EEEC2B8ne180100IJRKS2_EJRKS4_EEENS_21piecewise_construct_tENS_5tupleIJDpT_EEENSC_IJDpT0_EEE', symObjAddr: 0xE0A4, symBinAddr: 0x100018728, symSize: 0x54 }
  - { offset: 0x4205F, size: 0x8, addend: 0x0, symName: '__ZNSt3__122__compressed_pair_elemINS_9allocatorIZN5Table27materializeColumnWithRowIDsEtE3$_0EELi1ELb1EEC2B8ne180100IJRKS4_EJLm0EEEENS_21piecewise_construct_tENS_5tupleIJDpT_EEENS_15__tuple_indicesIJXspT0_EEEE', symObjAddr: 0xE0F8, symBinAddr: 0x10001877C, symSize: 0x38 }
  - { offset: 0x420C0, size: 0x8, addend: 0x0, symName: '__ZNSt3__112__tuple_leafILm0ERKNS_9allocatorIZN5Table27materializeColumnWithRowIDsEtE3$_0EELb0EE3getB8ne180100Ev', symObjAddr: 0xE154, symBinAddr: 0x1000187D8, symSize: 0x18 }
  - { offset: 0x420E4, size: 0x8, addend: 0x0, symName: '__ZNSt3__110__function12__alloc_funcIZN5Table27materializeColumnWithRowIDsEtE3$_0NS_9allocatorIS3_EEFvjRKNS_6vectorIjNS4_IjEEEEEE7destroyB8ne180100Ev', symObjAddr: 0xE16C, symBinAddr: 0x1000187F0, symSize: 0x10 }
  - { offset: 0x42108, size: 0x8, addend: 0x0, symName: '__ZNSt3__110__function12__alloc_funcIZN5Table27materializeColumnWithRowIDsEtE3$_0NS_9allocatorIS3_EEFvjRKNS_6vectorIjNS4_IjEEEEEEclB8ne180100EOjSA_', symObjAddr: 0xE17C, symBinAddr: 0x100018800, symSize: 0x38 }
  - { offset: 0x42148, size: 0x8, addend: 0x0, symName: '__ZNSt3__128__invoke_void_return_wrapperIvLb1EE6__callB8ne180100IJRZN5Table27materializeColumnWithRowIDsEtE3$_0jRKNS_6vectorIjNS_9allocatorIjEEEEEEEvDpOT_', symObjAddr: 0xE1B4, symBinAddr: 0x100018838, symSize: 0x34 }
  - { offset: 0x4219E, size: 0x8, addend: 0x0, symName: '__ZNSt3__117__compressed_pairIZN5Table27materializeColumnWithRowIDsEtE3$_0NS_9allocatorIS2_EEE5firstB8ne180100Ev', symObjAddr: 0xE1E8, symBinAddr: 0x10001886C, symSize: 0x24 }
  - { offset: 0x421C7, size: 0x8, addend: 0x0, symName: '__ZZN5Table27materializeColumnWithRowIDsEtENK3$_0clEjRKNSt3__16vectorIjNS1_9allocatorIjEEEE', symObjAddr: 0xE244, symBinAddr: 0x1000188C8, symSize: 0xC0 }
  - { offset: 0x42219, size: 0x8, addend: 0x0, symName: '__ZNSt3__122__compressed_pair_elemIZN5Table27materializeColumnWithRowIDsEtE3$_0Li0ELb0EE5__getB8ne180100Ev', symObjAddr: 0xE304, symBinAddr: 0x100018988, symSize: 0x14 }
  - { offset: 0x4223D, size: 0x8, addend: 0x0, symName: '__ZNSt3__110unique_ptrINS_10__function6__baseIFvjRKNS_6vectorIjNS_9allocatorIjEEEEEEENS_22__allocator_destructorINS4_INS1_6__funcIZN5Table27materializeColumnWithRowIDsEtE3$_0NS4_ISE_EES9_EEEEEEED2B8ne180100Ev', symObjAddr: 0xE318, symBinAddr: 0x10001899C, symSize: 0x30 }
  - { offset: 0x42265, size: 0x8, addend: 0x0, symName: '__ZNSt3__110unique_ptrINS_10__function6__baseIFvjRKNS_6vectorIjNS_9allocatorIjEEEEEEENS_22__allocator_destructorINS4_INS1_6__funcIZN5Table27materializeColumnWithRowIDsEtE3$_0NS4_ISE_EES9_EEEEEEE5resetB8ne180100EPSG_', symObjAddr: 0xE348, symBinAddr: 0x1000189CC, symSize: 0x78 }
  - { offset: 0x4448E, size: 0x8, addend: 0x0, symName: __ZN3MTL7Private8Selector13s_kbeginScopeE, symObjAddr: 0x106BB0, symBinAddr: 0x100040008, symSize: 0x0 }
  - { offset: 0x444A8, size: 0x8, addend: 0x0, symName: __ZN3MTL7Private8Selector11s_kendScopeE, symObjAddr: 0x106BB8, symBinAddr: 0x100040010, symSize: 0x0 }
  - { offset: 0x444C2, size: 0x8, addend: 0x0, symName: __ZN3MTL7Private8Selector13s_kGPUEndTimeE, symObjAddr: 0x107080, symBinAddr: 0x1000404D8, symSize: 0x0 }
  - { offset: 0x444DC, size: 0x8, addend: 0x0, symName: __ZN3MTL7Private8Selector15s_kGPUStartTimeE, symObjAddr: 0x107088, symBinAddr: 0x1000404E0, symSize: 0x0 }
  - { offset: 0x444F6, size: 0x8, addend: 0x0, symName: __ZN3MTL7Private8Selector6s_kURLE, symObjAddr: 0x107090, symBinAddr: 0x1000404E8, symSize: 0x0 }
  - { offset: 0x44510, size: 0x8, addend: 0x0, symName: __ZN3MTL7Private8Selector38s_kaccelerationStructureCommandEncoderE, symObjAddr: 0x107098, symBinAddr: 0x1000404F0, symSize: 0x0 }
  - { offset: 0x4452A, size: 0x8, addend: 0x0, symName: __ZN3MTL7Private8Selector53s_kaccelerationStructureCommandEncoderWithDescriptor_E, symObjAddr: 0x1070A0, symBinAddr: 0x1000404F8, symSize: 0x0 }
  - { offset: 0x44544, size: 0x8, addend: 0x0, symName: __ZN3MTL7Private8Selector38s_kaccelerationStructurePassDescriptorE, symObjAddr: 0x1070A8, symBinAddr: 0x100040500, symSize: 0x0 }
  - { offset: 0x4455E, size: 0x8, addend: 0x0, symName: __ZN3MTL7Private8Selector44s_kaccelerationStructureSizesWithDescriptor_E, symObjAddr: 0x1070B0, symBinAddr: 0x100040508, symSize: 0x0 }
  - { offset: 0x44578, size: 0x8, addend: 0x0, symName: __ZN3MTL7Private8Selector9s_kaccessE, symObjAddr: 0x1070B8, symBinAddr: 0x100040510, symSize: 0x0 }
  - { offset: 0x44592, size: 0x8, addend: 0x0, symName: __ZN3MTL7Private8Selector13s_kaddBarrierE, symObjAddr: 0x1070C0, symBinAddr: 0x100040518, symSize: 0x0 }
  - { offset: 0x445AC, size: 0x8, addend: 0x0, symName: __ZN3MTL7Private8Selector23s_kaddCompletedHandler_E, symObjAddr: 0x1070C8, symBinAddr: 0x100040520, symSize: 0x0 }
  - { offset: 0x445C6, size: 0x8, addend: 0x0, symName: __ZN3MTL7Private8Selector51s_kaddComputePipelineFunctionsWithDescriptor_error_E, symObjAddr: 0x1070D0, symBinAddr: 0x100040528, symSize: 0x0 }
  - { offset: 0x445E0, size: 0x8, addend: 0x0, symName: __ZN3MTL7Private8Selector24s_kaddDebugMarker_range_E, symObjAddr: 0x1070D8, symBinAddr: 0x100040530, symSize: 0x0 }
  - { offset: 0x445FA, size: 0x8, addend: 0x0, symName: __ZN3MTL7Private8Selector43s_kaddFunctionWithDescriptor_library_error_E, symObjAddr: 0x1070E0, symBinAddr: 0x100040538, symSize: 0x0 }
  - { offset: 0x44614, size: 0x8, addend: 0x0, symName: __ZN3MTL7Private8Selector23s_kaddPresentedHandler_E, symObjAddr: 0x1070E8, symBinAddr: 0x100040540, symSize: 0x0 }
  - { offset: 0x4462E, size: 0x8, addend: 0x0, symName: __ZN3MTL7Private8Selector50s_kaddRenderPipelineFunctionsWithDescriptor_error_E, symObjAddr: 0x1070F0, symBinAddr: 0x100040548, symSize: 0x0 }
  - { offset: 0x44648, size: 0x8, addend: 0x0, symName: __ZN3MTL7Private8Selector23s_kaddScheduledHandler_E, symObjAddr: 0x1070F8, symBinAddr: 0x100040550, symSize: 0x0 }
  - { offset: 0x44662, size: 0x8, addend: 0x0, symName: __ZN3MTL7Private8Selector54s_kaddTileRenderPipelineFunctionsWithDescriptor_error_E, symObjAddr: 0x107100, symBinAddr: 0x100040558, symSize: 0x0 }
  - { offset: 0x4467C, size: 0x8, addend: 0x0, symName: __ZN3MTL7Private8Selector12s_kalignmentE, symObjAddr: 0x107108, symBinAddr: 0x100040560, symSize: 0x0 }
  - { offset: 0x44696, size: 0x8, addend: 0x0, symName: __ZN3MTL7Private8Selector16s_kallocatedSizeE, symObjAddr: 0x107110, symBinAddr: 0x100040568, symSize: 0x0 }
  - { offset: 0x446B0, size: 0x8, addend: 0x0, symName: __ZN3MTL7Private8Selector47s_kallowDuplicateIntersectionFunctionInvocationE, symObjAddr: 0x107118, symBinAddr: 0x100040570, symSize: 0x0 }
  - { offset: 0x446CA, size: 0x8, addend: 0x0, symName: __ZN3MTL7Private8Selector28s_kallowGPUOptimizedContentsE, symObjAddr: 0x107120, symBinAddr: 0x100040578, symSize: 0x0 }
  - { offset: 0x446E4, size: 0x8, addend: 0x0, symName: __ZN3MTL7Private8Selector35s_kallowReferencingUndefinedSymbolsE, symObjAddr: 0x107128, symBinAddr: 0x100040580, symSize: 0x0 }
  - { offset: 0x446FE, size: 0x8, addend: 0x0, symName: __ZN3MTL7Private8Selector22s_kalphaBlendOperationE, symObjAddr: 0x107130, symBinAddr: 0x100040588, symSize: 0x0 }
  - { offset: 0x44718, size: 0x8, addend: 0x0, symName: __ZN3MTL7Private8Selector15s_karchitectureE, symObjAddr: 0x107138, symBinAddr: 0x100040590, symSize: 0x0 }
  - { offset: 0x44732, size: 0x8, addend: 0x0, symName: __ZN3MTL7Private8Selector32s_kareBarycentricCoordsSupportedE, symObjAddr: 0x107140, symBinAddr: 0x100040598, symSize: 0x0 }
  - { offset: 0x4474C, size: 0x8, addend: 0x0, symName: __ZN3MTL7Private8Selector42s_kareProgrammableSamplePositionsSupportedE, symObjAddr: 0x107148, symBinAddr: 0x1000405A0, symSize: 0x0 }
  - { offset: 0x44766, size: 0x8, addend: 0x0, symName: __ZN3MTL7Private8Selector32s_kareRasterOrderGroupsSupportedE, symObjAddr: 0x107150, symBinAddr: 0x1000405A8, symSize: 0x0 }
  - { offset: 0x44780, size: 0x8, addend: 0x0, symName: __ZN3MTL7Private8Selector25s_kargumentBuffersSupportE, symObjAddr: 0x107158, symBinAddr: 0x1000405B0, symSize: 0x0 }
  - { offset: 0x4479A, size: 0x8, addend: 0x0, symName: __ZN3MTL7Private8Selector21s_kargumentDescriptorE, symObjAddr: 0x107160, symBinAddr: 0x1000405B8, symSize: 0x0 }
  - { offset: 0x447B4, size: 0x8, addend: 0x0, symName: __ZN3MTL7Private8Selector16s_kargumentIndexE, symObjAddr: 0x107168, symBinAddr: 0x1000405C0, symSize: 0x0 }
  - { offset: 0x447CE, size: 0x8, addend: 0x0, symName: __ZN3MTL7Private8Selector22s_kargumentIndexStrideE, symObjAddr: 0x107170, symBinAddr: 0x1000405C8, symSize: 0x0 }
  - { offset: 0x447E8, size: 0x8, addend: 0x0, symName: __ZN3MTL7Private8Selector12s_kargumentsE, symObjAddr: 0x107178, symBinAddr: 0x1000405D0, symSize: 0x0 }
  - { offset: 0x44802, size: 0x8, addend: 0x0, symName: __ZN3MTL7Private8Selector14s_karrayLengthE, symObjAddr: 0x107180, symBinAddr: 0x1000405D8, symSize: 0x0 }
  - { offset: 0x4481D, size: 0x8, addend: 0x0, symName: __ZN3MTL7Private8Selector12s_karrayTypeE, symObjAddr: 0x107188, symBinAddr: 0x1000405E0, symSize: 0x0 }
  - { offset: 0x44838, size: 0x8, addend: 0x0, symName: __ZN3MTL7Private8Selector17s_kattributeIndexE, symObjAddr: 0x107190, symBinAddr: 0x1000405E8, symSize: 0x0 }
  - { offset: 0x44853, size: 0x8, addend: 0x0, symName: __ZN3MTL7Private8Selector16s_kattributeTypeE, symObjAddr: 0x107198, symBinAddr: 0x1000405F0, symSize: 0x0 }
  - { offset: 0x4486E, size: 0x8, addend: 0x0, symName: __ZN3MTL7Private8Selector13s_kattributesE, symObjAddr: 0x1071A0, symBinAddr: 0x1000405F8, symSize: 0x0 }
  - { offset: 0x44889, size: 0x8, addend: 0x0, symName: __ZN3MTL7Private8Selector18s_kbackFaceStencilE, symObjAddr: 0x1071A8, symBinAddr: 0x100040600, symSize: 0x0 }
  - { offset: 0x448A4, size: 0x8, addend: 0x0, symName: __ZN3MTL7Private8Selector17s_kbinaryArchivesE, symObjAddr: 0x1071B0, symBinAddr: 0x100040608, symSize: 0x0 }
  - { offset: 0x448BF, size: 0x8, addend: 0x0, symName: __ZN3MTL7Private8Selector18s_kbinaryFunctionsE, symObjAddr: 0x1071B8, symBinAddr: 0x100040610, symSize: 0x0 }
  - { offset: 0x448DA, size: 0x8, addend: 0x0, symName: __ZN3MTL7Private8Selector11s_kbindingsE, symObjAddr: 0x1071C0, symBinAddr: 0x100040618, symSize: 0x0 }
  - { offset: 0x448F5, size: 0x8, addend: 0x0, symName: __ZN3MTL7Private8Selector21s_kblitCommandEncoderE, symObjAddr: 0x1071C8, symBinAddr: 0x100040620, symSize: 0x0 }
  - { offset: 0x44910, size: 0x8, addend: 0x0, symName: __ZN3MTL7Private8Selector36s_kblitCommandEncoderWithDescriptor_E, symObjAddr: 0x1071D0, symBinAddr: 0x100040628, symSize: 0x0 }
  - { offset: 0x4492B, size: 0x8, addend: 0x0, symName: __ZN3MTL7Private8Selector21s_kblitPassDescriptorE, symObjAddr: 0x1071D8, symBinAddr: 0x100040630, symSize: 0x0 }
  - { offset: 0x44946, size: 0x8, addend: 0x0, symName: __ZN3MTL7Private8Selector14s_kborderColorE, symObjAddr: 0x1071E0, symBinAddr: 0x100040638, symSize: 0x0 }
  - { offset: 0x44961, size: 0x8, addend: 0x0, symName: __ZN3MTL7Private8Selector20s_kboundingBoxBufferE, symObjAddr: 0x1071E8, symBinAddr: 0x100040640, symSize: 0x0 }
  - { offset: 0x4497C, size: 0x8, addend: 0x0, symName: __ZN3MTL7Private8Selector26s_kboundingBoxBufferOffsetE, symObjAddr: 0x1071F0, symBinAddr: 0x100040648, symSize: 0x0 }
  - { offset: 0x44997, size: 0x8, addend: 0x0, symName: __ZN3MTL7Private8Selector21s_kboundingBoxBuffersE, symObjAddr: 0x1071F8, symBinAddr: 0x100040650, symSize: 0x0 }
  - { offset: 0x449B2, size: 0x8, addend: 0x0, symName: __ZN3MTL7Private8Selector19s_kboundingBoxCountE, symObjAddr: 0x107200, symBinAddr: 0x100040658, symSize: 0x0 }
  - { offset: 0x449CD, size: 0x8, addend: 0x0, symName: __ZN3MTL7Private8Selector20s_kboundingBoxStrideE, symObjAddr: 0x107208, symBinAddr: 0x100040660, symSize: 0x0 }
  - { offset: 0x449E8, size: 0x8, addend: 0x0, symName: __ZN3MTL7Private8Selector9s_kbufferE, symObjAddr: 0x107210, symBinAddr: 0x100040668, symSize: 0x0 }
  - { offset: 0x44A03, size: 0x8, addend: 0x0, symName: __ZN3MTL7Private8Selector18s_kbufferAlignmentE, symObjAddr: 0x107218, symBinAddr: 0x100040670, symSize: 0x0 }
  - { offset: 0x44A1E, size: 0x8, addend: 0x0, symName: __ZN3MTL7Private8Selector20s_kbufferBytesPerRowE, symObjAddr: 0x107220, symBinAddr: 0x100040678, symSize: 0x0 }
  - { offset: 0x44A39, size: 0x8, addend: 0x0, symName: __ZN3MTL7Private8Selector17s_kbufferDataSizeE, symObjAddr: 0x107228, symBinAddr: 0x100040680, symSize: 0x0 }
  - { offset: 0x44A54, size: 0x8, addend: 0x0, symName: __ZN3MTL7Private8Selector17s_kbufferDataTypeE, symObjAddr: 0x107230, symBinAddr: 0x100040688, symSize: 0x0 }
  - { offset: 0x44A6F, size: 0x8, addend: 0x0, symName: __ZN3MTL7Private8Selector14s_kbufferIndexE, symObjAddr: 0x107238, symBinAddr: 0x100040690, symSize: 0x0 }
  - { offset: 0x44A8A, size: 0x8, addend: 0x0, symName: __ZN3MTL7Private8Selector15s_kbufferOffsetE, symObjAddr: 0x107240, symBinAddr: 0x100040698, symSize: 0x0 }
  - { offset: 0x44AA5, size: 0x8, addend: 0x0, symName: __ZN3MTL7Private8Selector20s_kbufferPointerTypeE, symObjAddr: 0x107248, symBinAddr: 0x1000406A0, symSize: 0x0 }
  - { offset: 0x44AC0, size: 0x8, addend: 0x0, symName: __ZN3MTL7Private8Selector19s_kbufferStructTypeE, symObjAddr: 0x107250, symBinAddr: 0x1000406A8, symSize: 0x0 }
  - { offset: 0x44ADB, size: 0x8, addend: 0x0, symName: __ZN3MTL7Private8Selector10s_kbuffersE, symObjAddr: 0x107258, symBinAddr: 0x1000406B0, symSize: 0x0 }
  - { offset: 0x44AF6, size: 0x8, addend: 0x0, symName: __ZN3MTL7Private8Selector75s_kbuildAccelerationStructure_descriptor_scratchBuffer_scratchBufferOffset_E, symObjAddr: 0x107260, symBinAddr: 0x1000406B8, symSize: 0x0 }
  - { offset: 0x44B11, size: 0x8, addend: 0x0, symName: __ZN3MTL7Private8Selector16s_kcaptureObjectE, symObjAddr: 0x107268, symBinAddr: 0x1000406C0, symSize: 0x0 }
  - { offset: 0x44B2C, size: 0x8, addend: 0x0, symName: __ZN3MTL7Private8Selector15s_kclearBarrierE, symObjAddr: 0x107270, symBinAddr: 0x1000406C8, symSize: 0x0 }
  - { offset: 0x44B47, size: 0x8, addend: 0x0, symName: __ZN3MTL7Private8Selector13s_kclearColorE, symObjAddr: 0x107278, symBinAddr: 0x1000406D0, symSize: 0x0 }
  - { offset: 0x44B62, size: 0x8, addend: 0x0, symName: __ZN3MTL7Private8Selector13s_kclearDepthE, symObjAddr: 0x107280, symBinAddr: 0x1000406D8, symSize: 0x0 }
  - { offset: 0x44B7D, size: 0x8, addend: 0x0, symName: __ZN3MTL7Private8Selector15s_kclearStencilE, symObjAddr: 0x107288, symBinAddr: 0x1000406E0, symSize: 0x0 }
  - { offset: 0x44B98, size: 0x8, addend: 0x0, symName: __ZN3MTL7Private8Selector19s_kcolorAttachmentsE, symObjAddr: 0x107290, symBinAddr: 0x1000406E8, symSize: 0x0 }
  - { offset: 0x44BB3, size: 0x8, addend: 0x0, symName: __ZN3MTL7Private8Selector9s_kcolumnE, symObjAddr: 0x107298, symBinAddr: 0x1000406F0, symSize: 0x0 }
  - { offset: 0x44BCE, size: 0x8, addend: 0x0, symName: __ZN3MTL7Private8Selector16s_kcommandBufferE, symObjAddr: 0x1072A0, symBinAddr: 0x1000406F8, symSize: 0x0 }
  - { offset: 0x44BE9, size: 0x8, addend: 0x0, symName: __ZN3MTL7Private8Selector31s_kcommandBufferWithDescriptor_E, symObjAddr: 0x1072A8, symBinAddr: 0x100040700, symSize: 0x0 }
  - { offset: 0x44C04, size: 0x8, addend: 0x0, symName: __ZN3MTL7Private8Selector40s_kcommandBufferWithUnretainedReferencesE, symObjAddr: 0x1072B0, symBinAddr: 0x100040708, symSize: 0x0 }
  - { offset: 0x44C1F, size: 0x8, addend: 0x0, symName: __ZN3MTL7Private8Selector15s_kcommandQueueE, symObjAddr: 0x1072B8, symBinAddr: 0x100040710, symSize: 0x0 }
  - { offset: 0x44C3A, size: 0x8, addend: 0x0, symName: __ZN3MTL7Private8Selector15s_kcommandTypesE, symObjAddr: 0x1072C0, symBinAddr: 0x100040718, symSize: 0x0 }
  - { offset: 0x44C55, size: 0x8, addend: 0x0, symName: __ZN3MTL7Private8Selector9s_kcommitE, symObjAddr: 0x1072C8, symBinAddr: 0x100040720, symSize: 0x0 }
  - { offset: 0x44C70, size: 0x8, addend: 0x0, symName: __ZN3MTL7Private8Selector18s_kcompareFunctionE, symObjAddr: 0x1072D0, symBinAddr: 0x100040728, symSize: 0x0 }
  - { offset: 0x44C8B, size: 0x8, addend: 0x0, symName: __ZN3MTL7Private8Selector26s_kcompileSymbolVisibilityE, symObjAddr: 0x1072D8, symBinAddr: 0x100040730, symSize: 0x0 }
  - { offset: 0x44CA6, size: 0x8, addend: 0x0, symName: __ZN3MTL7Private8Selector18s_kcompressionTypeE, symObjAddr: 0x1072E0, symBinAddr: 0x100040738, symSize: 0x0 }
  - { offset: 0x44CC1, size: 0x8, addend: 0x0, symName: __ZN3MTL7Private8Selector24s_kcomputeCommandEncoderE, symObjAddr: 0x1072E8, symBinAddr: 0x100040740, symSize: 0x0 }
  - { offset: 0x44CDC, size: 0x8, addend: 0x0, symName: __ZN3MTL7Private8Selector39s_kcomputeCommandEncoderWithDescriptor_E, symObjAddr: 0x1072F0, symBinAddr: 0x100040748, symSize: 0x0 }
  - { offset: 0x44CF7, size: 0x8, addend: 0x0, symName: __ZN3MTL7Private8Selector41s_kcomputeCommandEncoderWithDispatchType_E, symObjAddr: 0x1072F8, symBinAddr: 0x100040750, symSize: 0x0 }
  - { offset: 0x44D12, size: 0x8, addend: 0x0, symName: __ZN3MTL7Private8Selector18s_kcomputeFunctionE, symObjAddr: 0x107300, symBinAddr: 0x100040758, symSize: 0x0 }
  - { offset: 0x44D2D, size: 0x8, addend: 0x0, symName: __ZN3MTL7Private8Selector24s_kcomputePassDescriptorE, symObjAddr: 0x107308, symBinAddr: 0x100040760, symSize: 0x0 }
  - { offset: 0x44D48, size: 0x8, addend: 0x0, symName: __ZN3MTL7Private8Selector56s_kconcurrentDispatchThreadgroups_threadsPerThreadgroup_E, symObjAddr: 0x107310, symBinAddr: 0x100040768, symSize: 0x0 }
  - { offset: 0x44D63, size: 0x8, addend: 0x0, symName: __ZN3MTL7Private8Selector51s_kconcurrentDispatchThreads_threadsPerThreadgroup_E, symObjAddr: 0x107318, symBinAddr: 0x100040770, symSize: 0x0 }
  - { offset: 0x44D7E, size: 0x8, addend: 0x0, symName: __ZN3MTL7Private8Selector25s_kconstantBlockAlignmentE, symObjAddr: 0x107320, symBinAddr: 0x100040778, symSize: 0x0 }
  - { offset: 0x44D99, size: 0x8, addend: 0x0, symName: __ZN3MTL7Private8Selector23s_kconstantDataAtIndex_E, symObjAddr: 0x107328, symBinAddr: 0x100040780, symSize: 0x0 }
  - { offset: 0x44DB4, size: 0x8, addend: 0x0, symName: __ZN3MTL7Private8Selector17s_kconstantValuesE, symObjAddr: 0x107330, symBinAddr: 0x100040788, symSize: 0x0 }
  - { offset: 0x44DCF, size: 0x8, addend: 0x0, symName: __ZN3MTL7Private8Selector11s_kcontentsE, symObjAddr: 0x107338, symBinAddr: 0x100040790, symSize: 0x0 }
  - { offset: 0x44DEA, size: 0x8, addend: 0x0, symName: __ZN3MTL7Private8Selector22s_kcontrolDependenciesE, symObjAddr: 0x107340, symBinAddr: 0x100040798, symSize: 0x0 }
  - { offset: 0x44E05, size: 0x8, addend: 0x0, symName: __ZN3MTL7Private8Selector21s_kcontrolPointBufferE, symObjAddr: 0x107348, symBinAddr: 0x1000407A0, symSize: 0x0 }
  - { offset: 0x44E20, size: 0x8, addend: 0x0, symName: __ZN3MTL7Private8Selector27s_kcontrolPointBufferOffsetE, symObjAddr: 0x107350, symBinAddr: 0x1000407A8, symSize: 0x0 }
  - { offset: 0x44E3B, size: 0x8, addend: 0x0, symName: __ZN3MTL7Private8Selector22s_kcontrolPointBuffersE, symObjAddr: 0x107358, symBinAddr: 0x1000407B0, symSize: 0x0 }
  - { offset: 0x44E56, size: 0x8, addend: 0x0, symName: __ZN3MTL7Private8Selector20s_kcontrolPointCountE, symObjAddr: 0x107360, symBinAddr: 0x1000407B8, symSize: 0x0 }
  - { offset: 0x44E71, size: 0x8, addend: 0x0, symName: __ZN3MTL7Private8Selector21s_kcontrolPointFormatE, symObjAddr: 0x107368, symBinAddr: 0x1000407C0, symSize: 0x0 }
  - { offset: 0x44E8C, size: 0x8, addend: 0x0, symName: __ZN3MTL7Private8Selector21s_kcontrolPointStrideE, symObjAddr: 0x107370, symBinAddr: 0x1000407C8, symSize: 0x0 }
  - { offset: 0x44EA7, size: 0x8, addend: 0x0, symName: __ZN3MTL7Private8Selector81s_kconvertSparsePixelRegions_toTileRegions_withTileSize_alignmentMode_numRegions_E, symObjAddr: 0x107378, symBinAddr: 0x1000407D0, symSize: 0x0 }
  - { offset: 0x44EC2, size: 0x8, addend: 0x0, symName: __ZN3MTL7Private8Selector67s_kconvertSparseTileRegions_toPixelRegions_withTileSize_numRegions_E, symObjAddr: 0x107380, symBinAddr: 0x1000407D8, symSize: 0x0 }
  - { offset: 0x44EDD, size: 0x8, addend: 0x0, symName: __ZN3MTL7Private8Selector53s_kcopyAccelerationStructure_toAccelerationStructure_E, symObjAddr: 0x107388, symBinAddr: 0x1000407E0, symSize: 0x0 }
  - { offset: 0x44EF8, size: 0x8, addend: 0x0, symName: __ZN3MTL7Private8Selector63s_kcopyAndCompactAccelerationStructure_toAccelerationStructure_E, symObjAddr: 0x107390, symBinAddr: 0x1000407E8, symSize: 0x0 }
  - { offset: 0x44F13, size: 0x8, addend: 0x0, symName: __ZN3MTL7Private8Selector142s_kcopyFromBuffer_sourceOffset_sourceBytesPerRow_sourceBytesPerImage_sourceSize_toTexture_destinationSlice_destinationLevel_destinationOrigin_E, symObjAddr: 0x107398, symBinAddr: 0x1000407F0, symSize: 0x0 }
  - { offset: 0x44F2E, size: 0x8, addend: 0x0, symName: __ZN3MTL7Private8Selector150s_kcopyFromBuffer_sourceOffset_sourceBytesPerRow_sourceBytesPerImage_sourceSize_toTexture_destinationSlice_destinationLevel_destinationOrigin_options_E, symObjAddr: 0x1073A0, symBinAddr: 0x1000407F8, symSize: 0x0 }
  - { offset: 0x44F49, size: 0x8, addend: 0x0, symName: __ZN3MTL7Private8Selector63s_kcopyFromBuffer_sourceOffset_toBuffer_destinationOffset_size_E, symObjAddr: 0x1073A8, symBinAddr: 0x100040800, symSize: 0x0 }
  - { offset: 0x44F64, size: 0x8, addend: 0x0, symName: __ZN3MTL7Private8Selector142s_kcopyFromTexture_sourceSlice_sourceLevel_sourceOrigin_sourceSize_toBuffer_destinationOffset_destinationBytesPerRow_destinationBytesPerImage_E, symObjAddr: 0x1073B0, symBinAddr: 0x100040808, symSize: 0x0 }
  - { offset: 0x44F7F, size: 0x8, addend: 0x0, symName: __ZN3MTL7Private8Selector150s_kcopyFromTexture_sourceSlice_sourceLevel_sourceOrigin_sourceSize_toBuffer_destinationOffset_destinationBytesPerRow_destinationBytesPerImage_options_E, symObjAddr: 0x1073B8, symBinAddr: 0x100040810, symSize: 0x0 }
  - { offset: 0x44F9A, size: 0x8, addend: 0x0, symName: __ZN3MTL7Private8Selector129s_kcopyFromTexture_sourceSlice_sourceLevel_sourceOrigin_sourceSize_toTexture_destinationSlice_destinationLevel_destinationOrigin_E, symObjAddr: 0x1073C0, symBinAddr: 0x100040818, symSize: 0x0 }
  - { offset: 0x44FB5, size: 0x8, addend: 0x0, symName: __ZN3MTL7Private8Selector109s_kcopyFromTexture_sourceSlice_sourceLevel_toTexture_destinationSlice_destinationLevel_sliceCount_levelCount_E, symObjAddr: 0x1073C8, symBinAddr: 0x100040820, symSize: 0x0 }
  - { offset: 0x44FD0, size: 0x8, addend: 0x0, symName: __ZN3MTL7Private8Selector29s_kcopyFromTexture_toTexture_E, symObjAddr: 0x1073D0, symBinAddr: 0x100040828, symSize: 0x0 }
  - { offset: 0x44FEB, size: 0x8, addend: 0x0, symName: __ZN3MTL7Private8Selector70s_kcopyIndirectCommandBuffer_sourceRange_destination_destinationIndex_E, symObjAddr: 0x1073D8, symBinAddr: 0x100040830, symSize: 0x0 }
  - { offset: 0x45006, size: 0x8, addend: 0x0, symName: __ZN3MTL7Private8Selector36s_kcopyParameterDataToBuffer_offset_E, symObjAddr: 0x1073E0, symBinAddr: 0x100040838, symSize: 0x0 }
  - { offset: 0x45021, size: 0x8, addend: 0x0, symName: __ZN3MTL7Private8Selector29s_kcopyStatusToBuffer_offset_E, symObjAddr: 0x1073E8, symBinAddr: 0x100040840, symSize: 0x0 }
  - { offset: 0x4503C, size: 0x8, addend: 0x0, symName: __ZN3MTL7Private8Selector13s_kcounterSetE, symObjAddr: 0x1073F0, symBinAddr: 0x100040848, symSize: 0x0 }
  - { offset: 0x45057, size: 0x8, addend: 0x0, symName: __ZN3MTL7Private8Selector14s_kcounterSetsE, symObjAddr: 0x1073F8, symBinAddr: 0x100040850, symSize: 0x0 }
  - { offset: 0x45072, size: 0x8, addend: 0x0, symName: __ZN3MTL7Private8Selector11s_kcountersE, symObjAddr: 0x107400, symBinAddr: 0x100040858, symSize: 0x0 }
  - { offset: 0x4508D, size: 0x8, addend: 0x0, symName: __ZN3MTL7Private8Selector15s_kcpuCacheModeE, symObjAddr: 0x107408, symBinAddr: 0x100040860, symSize: 0x0 }
  - { offset: 0x450A8, size: 0x8, addend: 0x0, symName: __ZN3MTL7Private8Selector23s_kcurrentAllocatedSizeE, symObjAddr: 0x107410, symBinAddr: 0x100040868, symSize: 0x0 }
  - { offset: 0x450C3, size: 0x8, addend: 0x0, symName: __ZN3MTL7Private8Selector13s_kcurveBasisE, symObjAddr: 0x107418, symBinAddr: 0x100040870, symSize: 0x0 }
  - { offset: 0x450DE, size: 0x8, addend: 0x0, symName: __ZN3MTL7Private8Selector15s_kcurveEndCapsE, symObjAddr: 0x107420, symBinAddr: 0x100040878, symSize: 0x0 }
  - { offset: 0x450F9, size: 0x8, addend: 0x0, symName: __ZN3MTL7Private8Selector12s_kcurveTypeE, symObjAddr: 0x107428, symBinAddr: 0x100040880, symSize: 0x0 }
  - { offset: 0x45114, size: 0x8, addend: 0x0, symName: __ZN3MTL7Private8Selector7s_kdataE, symObjAddr: 0x107430, symBinAddr: 0x100040888, symSize: 0x0 }
  - { offset: 0x4512F, size: 0x8, addend: 0x0, symName: __ZN3MTL7Private8Selector11s_kdataSizeE, symObjAddr: 0x107438, symBinAddr: 0x100040890, symSize: 0x0 }
  - { offset: 0x4514A, size: 0x8, addend: 0x0, symName: __ZN3MTL7Private8Selector11s_kdataTypeE, symObjAddr: 0x107440, symBinAddr: 0x100040898, symSize: 0x0 }
  - { offset: 0x45165, size: 0x8, addend: 0x0, symName: __ZN3MTL7Private8Selector10s_kdeallocE, symObjAddr: 0x107448, symBinAddr: 0x1000408A0, symSize: 0x0 }
  - { offset: 0x45180, size: 0x8, addend: 0x0, symName: __ZN3MTL7Private8Selector16s_kdebugLocationE, symObjAddr: 0x107450, symBinAddr: 0x1000408A8, symSize: 0x0 }
  - { offset: 0x4519B, size: 0x8, addend: 0x0, symName: __ZN3MTL7Private8Selector17s_kdebugSignpostsE, symObjAddr: 0x107458, symBinAddr: 0x1000408B0, symSize: 0x0 }
  - { offset: 0x451B6, size: 0x8, addend: 0x0, symName: __ZN3MTL7Private8Selector22s_kdefaultCaptureScopeE, symObjAddr: 0x107460, symBinAddr: 0x1000408B8, symSize: 0x0 }
  - { offset: 0x451D1, size: 0x8, addend: 0x0, symName: __ZN3MTL7Private8Selector27s_kdefaultRasterSampleCountE, symObjAddr: 0x107468, symBinAddr: 0x1000408C0, symSize: 0x0 }
  - { offset: 0x451EC, size: 0x8, addend: 0x0, symName: __ZN3MTL7Private8Selector8s_kdepthE, symObjAddr: 0x107470, symBinAddr: 0x1000408C8, symSize: 0x0 }
  - { offset: 0x45207, size: 0x8, addend: 0x0, symName: __ZN3MTL7Private8Selector18s_kdepthAttachmentE, symObjAddr: 0x107478, symBinAddr: 0x1000408D0, symSize: 0x0 }
  - { offset: 0x45222, size: 0x8, addend: 0x0, symName: __ZN3MTL7Private8Selector29s_kdepthAttachmentPixelFormatE, symObjAddr: 0x107480, symBinAddr: 0x1000408D8, symSize: 0x0 }
  - { offset: 0x4523D, size: 0x8, addend: 0x0, symName: __ZN3MTL7Private8Selector23s_kdepthCompareFunctionE, symObjAddr: 0x107488, symBinAddr: 0x1000408E0, symSize: 0x0 }
  - { offset: 0x45258, size: 0x8, addend: 0x0, symName: __ZN3MTL7Private8Selector24s_kdepthFailureOperationE, symObjAddr: 0x107490, symBinAddr: 0x1000408E8, symSize: 0x0 }
  - { offset: 0x45273, size: 0x8, addend: 0x0, symName: __ZN3MTL7Private8Selector13s_kdepthPlaneE, symObjAddr: 0x107498, symBinAddr: 0x1000408F0, symSize: 0x0 }
  - { offset: 0x4528E, size: 0x8, addend: 0x0, symName: __ZN3MTL7Private8Selector21s_kdepthResolveFilterE, symObjAddr: 0x1074A0, symBinAddr: 0x1000408F8, symSize: 0x0 }
  - { offset: 0x452A9, size: 0x8, addend: 0x0, symName: __ZN3MTL7Private8Selector28s_kdepthStencilPassOperationE, symObjAddr: 0x1074A8, symBinAddr: 0x100040900, symSize: 0x0 }
  - { offset: 0x452C4, size: 0x8, addend: 0x0, symName: __ZN3MTL7Private8Selector13s_kdescriptorE, symObjAddr: 0x1074B0, symBinAddr: 0x100040908, symSize: 0x0 }
  - { offset: 0x452DF, size: 0x8, addend: 0x0, symName: __ZN3MTL7Private8Selector14s_kdestinationE, symObjAddr: 0x1074B8, symBinAddr: 0x100040910, symSize: 0x0 }
  - { offset: 0x452FA, size: 0x8, addend: 0x0, symName: __ZN3MTL7Private8Selector30s_kdestinationAlphaBlendFactorE, symObjAddr: 0x1074C0, symBinAddr: 0x100040918, symSize: 0x0 }
  - { offset: 0x45315, size: 0x8, addend: 0x0, symName: __ZN3MTL7Private8Selector28s_kdestinationRGBBlendFactorE, symObjAddr: 0x1074C8, symBinAddr: 0x100040920, symSize: 0x0 }
  - { offset: 0x45330, size: 0x8, addend: 0x0, symName: __ZN3MTL7Private8Selector9s_kdeviceE, symObjAddr: 0x1074D0, symBinAddr: 0x100040928, symSize: 0x0 }
  - { offset: 0x4534B, size: 0x8, addend: 0x0, symName: __ZN3MTL7Private8Selector18s_kdidModifyRange_E, symObjAddr: 0x1074D8, symBinAddr: 0x100040930, symSize: 0x0 }
  - { offset: 0x45366, size: 0x8, addend: 0x0, symName: __ZN3MTL7Private8Selector16s_kdispatchQueueE, symObjAddr: 0x1074E0, symBinAddr: 0x100040938, symSize: 0x0 }
  - { offset: 0x45381, size: 0x8, addend: 0x0, symName: __ZN3MTL7Private8Selector46s_kdispatchThreadgroups_threadsPerThreadgroup_E, symObjAddr: 0x1074E8, symBinAddr: 0x100040940, symSize: 0x0 }
  - { offset: 0x4539C, size: 0x8, addend: 0x0, symName: __ZN3MTL7Private8Selector85s_kdispatchThreadgroupsWithIndirectBuffer_indirectBufferOffset_threadsPerThreadgroup_E, symObjAddr: 0x1074F0, symBinAddr: 0x100040948, symSize: 0x0 }
  - { offset: 0x453B7, size: 0x8, addend: 0x0, symName: __ZN3MTL7Private8Selector41s_kdispatchThreads_threadsPerThreadgroup_E, symObjAddr: 0x1074F8, symBinAddr: 0x100040950, symSize: 0x0 }
  - { offset: 0x453D2, size: 0x8, addend: 0x0, symName: __ZN3MTL7Private8Selector26s_kdispatchThreadsPerTile_E, symObjAddr: 0x107500, symBinAddr: 0x100040958, symSize: 0x0 }
  - { offset: 0x453ED, size: 0x8, addend: 0x0, symName: __ZN3MTL7Private8Selector15s_kdispatchTypeE, symObjAddr: 0x107508, symBinAddr: 0x100040960, symSize: 0x0 }
  - { offset: 0x45408, size: 0x8, addend: 0x0, symName: __ZN3MTL7Private8Selector152s_kdrawIndexedPatches_patchIndexBuffer_patchIndexBufferOffset_controlPointIndexBuffer_controlPointIndexBufferOffset_indirectBuffer_indirectBufferOffset_E, symObjAddr: 0x107510, symBinAddr: 0x100040968, symSize: 0x0 }
  - { offset: 0x45423, size: 0x8, addend: 0x0, symName: __ZN3MTL7Private8Selector165s_kdrawIndexedPatches_patchStart_patchCount_patchIndexBuffer_patchIndexBufferOffset_controlPointIndexBuffer_controlPointIndexBufferOffset_instanceCount_baseInstance_E, symObjAddr: 0x107518, symBinAddr: 0x100040970, symSize: 0x0 }
  - { offset: 0x4543E, size: 0x8, addend: 0x0, symName: __ZN3MTL7Private8Selector260s_kdrawIndexedPatches_patchStart_patchCount_patchIndexBuffer_patchIndexBufferOffset_controlPointIndexBuffer_controlPointIndexBufferOffset_instanceCount_baseInstance_tessellationFactorBuffer_tessellationFactorBufferOffset_tessellationFactorBufferInstanceStride_E, symObjAddr: 0x107520, symBinAddr: 0x100040978, symSize: 0x0 }
  - { offset: 0x45459, size: 0x8, addend: 0x0, symName: __ZN3MTL7Private8Selector76s_kdrawIndexedPrimitives_indexCount_indexType_indexBuffer_indexBufferOffset_E, symObjAddr: 0x107528, symBinAddr: 0x100040980, symSize: 0x0 }
  - { offset: 0x45474, size: 0x8, addend: 0x0, symName: __ZN3MTL7Private8Selector90s_kdrawIndexedPrimitives_indexCount_indexType_indexBuffer_indexBufferOffset_instanceCount_E, symObjAddr: 0x107530, symBinAddr: 0x100040988, symSize: 0x0 }
  - { offset: 0x4548F, size: 0x8, addend: 0x0, symName: __ZN3MTL7Private8Selector114s_kdrawIndexedPrimitives_indexCount_indexType_indexBuffer_indexBufferOffset_instanceCount_baseVertex_baseInstance_E, symObjAddr: 0x107538, symBinAddr: 0x100040990, symSize: 0x0 }
  - { offset: 0x454AA, size: 0x8, addend: 0x0, symName: __ZN3MTL7Private8Selector101s_kdrawIndexedPrimitives_indexType_indexBuffer_indexBufferOffset_indirectBuffer_indirectBufferOffset_E, symObjAddr: 0x107540, symBinAddr: 0x100040998, symSize: 0x0 }
  - { offset: 0x454C5, size: 0x8, addend: 0x0, symName: __ZN3MTL7Private8Selector78s_kdrawMeshThreadgroups_threadsPerObjectThreadgroup_threadsPerMeshThreadgroup_E, symObjAddr: 0x107548, symBinAddr: 0x1000409A0, symSize: 0x0 }
  - { offset: 0x454E0, size: 0x8, addend: 0x0, symName: __ZN3MTL7Private8Selector117s_kdrawMeshThreadgroupsWithIndirectBuffer_indirectBufferOffset_threadsPerObjectThreadgroup_threadsPerMeshThreadgroup_E, symObjAddr: 0x107550, symBinAddr: 0x1000409A8, symSize: 0x0 }
  - { offset: 0x454FB, size: 0x8, addend: 0x0, symName: __ZN3MTL7Private8Selector73s_kdrawMeshThreads_threadsPerObjectThreadgroup_threadsPerMeshThreadgroup_E, symObjAddr: 0x107558, symBinAddr: 0x1000409B0, symSize: 0x0 }
  - { offset: 0x45516, size: 0x8, addend: 0x0, symName: __ZN3MTL7Private8Selector91s_kdrawPatches_patchIndexBuffer_patchIndexBufferOffset_indirectBuffer_indirectBufferOffset_E, symObjAddr: 0x107560, symBinAddr: 0x1000409B8, symSize: 0x0 }
  - { offset: 0x45531, size: 0x8, addend: 0x0, symName: __ZN3MTL7Private8Selector104s_kdrawPatches_patchStart_patchCount_patchIndexBuffer_patchIndexBufferOffset_instanceCount_baseInstance_E, symObjAddr: 0x107568, symBinAddr: 0x1000409C0, symSize: 0x0 }
  - { offset: 0x4554C, size: 0x8, addend: 0x0, symName: __ZN3MTL7Private8Selector199s_kdrawPatches_patchStart_patchCount_patchIndexBuffer_patchIndexBufferOffset_instanceCount_baseInstance_tessellationFactorBuffer_tessellationFactorBufferOffset_tessellationFactorBufferInstanceStride_E, symObjAddr: 0x107570, symBinAddr: 0x1000409C8, symSize: 0x0 }
  - { offset: 0x45567, size: 0x8, addend: 0x0, symName: __ZN3MTL7Private8Selector54s_kdrawPrimitives_indirectBuffer_indirectBufferOffset_E, symObjAddr: 0x107578, symBinAddr: 0x1000409D0, symSize: 0x0 }
  - { offset: 0x45582, size: 0x8, addend: 0x0, symName: __ZN3MTL7Private8Selector42s_kdrawPrimitives_vertexStart_vertexCount_E, symObjAddr: 0x107580, symBinAddr: 0x1000409D8, symSize: 0x0 }
  - { offset: 0x4559D, size: 0x8, addend: 0x0, symName: __ZN3MTL7Private8Selector56s_kdrawPrimitives_vertexStart_vertexCount_instanceCount_E, symObjAddr: 0x107588, symBinAddr: 0x1000409E0, symSize: 0x0 }
  - { offset: 0x455B8, size: 0x8, addend: 0x0, symName: __ZN3MTL7Private8Selector69s_kdrawPrimitives_vertexStart_vertexCount_instanceCount_baseInstance_E, symObjAddr: 0x107590, symBinAddr: 0x1000409E8, symSize: 0x0 }
  - { offset: 0x455D3, size: 0x8, addend: 0x0, symName: __ZN3MTL7Private8Selector13s_kdrawableIDE, symObjAddr: 0x107598, symBinAddr: 0x1000409F0, symSize: 0x0 }
  - { offset: 0x455EE, size: 0x8, addend: 0x0, symName: __ZN3MTL7Private8Selector19s_kelementArrayTypeE, symObjAddr: 0x1075A0, symBinAddr: 0x1000409F8, symSize: 0x0 }
  - { offset: 0x45609, size: 0x8, addend: 0x0, symName: __ZN3MTL7Private8Selector26s_kelementIsArgumentBufferE, symObjAddr: 0x1075A8, symBinAddr: 0x100040A00, symSize: 0x0 }
  - { offset: 0x45624, size: 0x8, addend: 0x0, symName: __ZN3MTL7Private8Selector21s_kelementPointerTypeE, symObjAddr: 0x1075B0, symBinAddr: 0x100040A08, symSize: 0x0 }
  - { offset: 0x4563F, size: 0x8, addend: 0x0, symName: __ZN3MTL7Private8Selector20s_kelementStructTypeE, symObjAddr: 0x1075B8, symBinAddr: 0x100040A10, symSize: 0x0 }
  - { offset: 0x4565A, size: 0x8, addend: 0x0, symName: __ZN3MTL7Private8Selector30s_kelementTextureReferenceTypeE, symObjAddr: 0x1075C0, symBinAddr: 0x100040A18, symSize: 0x0 }
  - { offset: 0x45675, size: 0x8, addend: 0x0, symName: __ZN3MTL7Private8Selector14s_kelementTypeE, symObjAddr: 0x1075C8, symBinAddr: 0x100040A20, symSize: 0x0 }
  - { offset: 0x45690, size: 0x8, addend: 0x0, symName: __ZN3MTL7Private8Selector27s_kencodeSignalEvent_value_E, symObjAddr: 0x1075D0, symBinAddr: 0x100040A28, symSize: 0x0 }
  - { offset: 0x456AB, size: 0x8, addend: 0x0, symName: __ZN3MTL7Private8Selector28s_kencodeWaitForEvent_value_E, symObjAddr: 0x1075D8, symBinAddr: 0x100040A30, symSize: 0x0 }
  - { offset: 0x456C6, size: 0x8, addend: 0x0, symName: __ZN3MTL7Private8Selector16s_kencodedLengthE, symObjAddr: 0x1075E0, symBinAddr: 0x100040A38, symSize: 0x0 }
  - { offset: 0x456E1, size: 0x8, addend: 0x0, symName: __ZN3MTL7Private8Selector15s_kencoderLabelE, symObjAddr: 0x1075E8, symBinAddr: 0x100040A40, symSize: 0x0 }
  - { offset: 0x456FC, size: 0x8, addend: 0x0, symName: __ZN3MTL7Private8Selector14s_kendEncodingE, symObjAddr: 0x1075F0, symBinAddr: 0x100040A48, symSize: 0x0 }
  - { offset: 0x45717, size: 0x8, addend: 0x0, symName: __ZN3MTL7Private8Selector26s_kendOfEncoderSampleIndexE, symObjAddr: 0x1075F8, symBinAddr: 0x100040A50, symSize: 0x0 }
  - { offset: 0x45732, size: 0x8, addend: 0x0, symName: __ZN3MTL7Private8Selector27s_kendOfFragmentSampleIndexE, symObjAddr: 0x107600, symBinAddr: 0x100040A58, symSize: 0x0 }
  - { offset: 0x4574D, size: 0x8, addend: 0x0, symName: __ZN3MTL7Private8Selector25s_kendOfVertexSampleIndexE, symObjAddr: 0x107608, symBinAddr: 0x100040A60, symSize: 0x0 }
  - { offset: 0x45768, size: 0x8, addend: 0x0, symName: __ZN3MTL7Private8Selector10s_kenqueueE, symObjAddr: 0x107610, symBinAddr: 0x100040A68, symSize: 0x0 }
  - { offset: 0x45783, size: 0x8, addend: 0x0, symName: __ZN3MTL7Private8Selector17s_kenqueueBarrierE, symObjAddr: 0x107618, symBinAddr: 0x100040A70, symSize: 0x0 }
  - { offset: 0x4579E, size: 0x8, addend: 0x0, symName: __ZN3MTL7Private8Selector8s_kerrorE, symObjAddr: 0x107620, symBinAddr: 0x100040A78, symSize: 0x0 }
  - { offset: 0x457B9, size: 0x8, addend: 0x0, symName: __ZN3MTL7Private8Selector15s_kerrorOptionsE, symObjAddr: 0x107628, symBinAddr: 0x100040A80, symSize: 0x0 }
  - { offset: 0x457D4, size: 0x8, addend: 0x0, symName: __ZN3MTL7Private8Selector13s_kerrorStateE, symObjAddr: 0x107630, symBinAddr: 0x100040A88, symSize: 0x0 }
  - { offset: 0x457EF, size: 0x8, addend: 0x0, symName: __ZN3MTL7Private8Selector63s_kexecuteCommandsInBuffer_indirectBuffer_indirectBufferOffset_E, symObjAddr: 0x107638, symBinAddr: 0x100040A90, symSize: 0x0 }
  - { offset: 0x4580A, size: 0x8, addend: 0x0, symName: __ZN3MTL7Private8Selector37s_kexecuteCommandsInBuffer_withRange_E, symObjAddr: 0x107640, symBinAddr: 0x100040A98, symSize: 0x0 }
  - { offset: 0x45825, size: 0x8, addend: 0x0, symName: __ZN3MTL7Private8Selector18s_kfastMathEnabledE, symObjAddr: 0x107648, symBinAddr: 0x100040AA0, symSize: 0x0 }
  - { offset: 0x45840, size: 0x8, addend: 0x0, symName: __ZN3MTL7Private8Selector26s_kfillBuffer_range_value_E, symObjAddr: 0x107650, symBinAddr: 0x100040AA8, symSize: 0x0 }
  - { offset: 0x4585B, size: 0x8, addend: 0x0, symName: __ZN3MTL7Private8Selector20s_kfirstMipmapInTailE, symObjAddr: 0x107658, symBinAddr: 0x100040AB0, symSize: 0x0 }
  - { offset: 0x45876, size: 0x8, addend: 0x0, symName: __ZN3MTL7Private8Selector9s_kformatE, symObjAddr: 0x107660, symBinAddr: 0x100040AB8, symSize: 0x0 }
  - { offset: 0x45891, size: 0x8, addend: 0x0, symName: __ZN3MTL7Private8Selector36s_kfragmentAdditionalBinaryFunctionsE, symObjAddr: 0x107668, symBinAddr: 0x100040AC0, symSize: 0x0 }
  - { offset: 0x458AC, size: 0x8, addend: 0x0, symName: __ZN3MTL7Private8Selector20s_kfragmentArgumentsE, symObjAddr: 0x107670, symBinAddr: 0x100040AC8, symSize: 0x0 }
  - { offset: 0x458C7, size: 0x8, addend: 0x0, symName: __ZN3MTL7Private8Selector19s_kfragmentBindingsE, symObjAddr: 0x107678, symBinAddr: 0x100040AD0, symSize: 0x0 }
  - { offset: 0x458E2, size: 0x8, addend: 0x0, symName: __ZN3MTL7Private8Selector18s_kfragmentBuffersE, symObjAddr: 0x107680, symBinAddr: 0x100040AD8, symSize: 0x0 }
  - { offset: 0x458FD, size: 0x8, addend: 0x0, symName: __ZN3MTL7Private8Selector19s_kfragmentFunctionE, symObjAddr: 0x107688, symBinAddr: 0x100040AE0, symSize: 0x0 }
  - { offset: 0x45918, size: 0x8, addend: 0x0, symName: __ZN3MTL7Private8Selector26s_kfragmentLinkedFunctionsE, symObjAddr: 0x107690, symBinAddr: 0x100040AE8, symSize: 0x0 }
  - { offset: 0x45933, size: 0x8, addend: 0x0, symName: __ZN3MTL7Private8Selector29s_kfragmentPreloadedLibrariesE, symObjAddr: 0x107698, symBinAddr: 0x100040AF0, symSize: 0x0 }
  - { offset: 0x4594E, size: 0x8, addend: 0x0, symName: __ZN3MTL7Private8Selector19s_kfrontFaceStencilE, symObjAddr: 0x1076A0, symBinAddr: 0x100040AF8, symSize: 0x0 }
  - { offset: 0x45969, size: 0x8, addend: 0x0, symName: __ZN3MTL7Private8Selector11s_kfunctionE, symObjAddr: 0x1076A8, symBinAddr: 0x100040B00, symSize: 0x0 }
  - { offset: 0x45984, size: 0x8, addend: 0x0, symName: __ZN3MTL7Private8Selector30s_kfunctionConstantsDictionaryE, symObjAddr: 0x1076B0, symBinAddr: 0x100040B08, symSize: 0x0 }
  - { offset: 0x4599F, size: 0x8, addend: 0x0, symName: __ZN3MTL7Private8Selector16s_kfunctionCountE, symObjAddr: 0x1076B8, symBinAddr: 0x100040B10, symSize: 0x0 }
  - { offset: 0x459BA, size: 0x8, addend: 0x0, symName: __ZN3MTL7Private8Selector21s_kfunctionDescriptorE, symObjAddr: 0x1076C0, symBinAddr: 0x100040B18, symSize: 0x0 }
  - { offset: 0x459D5, size: 0x8, addend: 0x0, symName: __ZN3MTL7Private8Selector17s_kfunctionGraphsE, symObjAddr: 0x1076C8, symBinAddr: 0x100040B20, symSize: 0x0 }
  - { offset: 0x459F0, size: 0x8, addend: 0x0, symName: __ZN3MTL7Private8Selector30s_kfunctionHandleWithFunction_E, symObjAddr: 0x1076D0, symBinAddr: 0x100040B28, symSize: 0x0 }
  - { offset: 0x45A0B, size: 0x8, addend: 0x0, symName: __ZN3MTL7Private8Selector36s_kfunctionHandleWithFunction_stage_E, symObjAddr: 0x1076D8, symBinAddr: 0x100040B30, symSize: 0x0 }
  - { offset: 0x45A26, size: 0x8, addend: 0x0, symName: __ZN3MTL7Private8Selector15s_kfunctionNameE, symObjAddr: 0x1076E0, symBinAddr: 0x100040B38, symSize: 0x0 }
  - { offset: 0x45A41, size: 0x8, addend: 0x0, symName: __ZN3MTL7Private8Selector16s_kfunctionNamesE, symObjAddr: 0x1076E8, symBinAddr: 0x100040B40, symSize: 0x0 }
  - { offset: 0x45A5C, size: 0x8, addend: 0x0, symName: __ZN3MTL7Private8Selector15s_kfunctionTypeE, symObjAddr: 0x1076F0, symBinAddr: 0x100040B48, symSize: 0x0 }
  - { offset: 0x45A77, size: 0x8, addend: 0x0, symName: __ZN3MTL7Private8Selector12s_kfunctionsE, symObjAddr: 0x1076F8, symBinAddr: 0x100040B50, symSize: 0x0 }
  - { offset: 0x45A92, size: 0x8, addend: 0x0, symName: __ZN3MTL7Private8Selector29s_kgenerateMipmapsForTexture_E, symObjAddr: 0x107700, symBinAddr: 0x100040B58, symSize: 0x0 }
  - { offset: 0x45AAD, size: 0x8, addend: 0x0, symName: __ZN3MTL7Private8Selector22s_kgeometryDescriptorsE, symObjAddr: 0x107708, symBinAddr: 0x100040B60, symSize: 0x0 }
  - { offset: 0x45AC8, size: 0x8, addend: 0x0, symName: __ZN3MTL7Private8Selector67s_kgetBytes_bytesPerRow_bytesPerImage_fromRegion_mipmapLevel_slice_E, symObjAddr: 0x107710, symBinAddr: 0x100040B68, symSize: 0x0 }
  - { offset: 0x45AE3, size: 0x8, addend: 0x0, symName: __ZN3MTL7Private8Selector47s_kgetBytes_bytesPerRow_fromRegion_mipmapLevel_E, symObjAddr: 0x107718, symBinAddr: 0x100040B70, symSize: 0x0 }
  - { offset: 0x45AFE, size: 0x8, addend: 0x0, symName: __ZN3MTL7Private8Selector35s_kgetDefaultSamplePositions_count_E, symObjAddr: 0x107720, symBinAddr: 0x100040B78, symSize: 0x0 }
  - { offset: 0x45B19, size: 0x8, addend: 0x0, symName: __ZN3MTL7Private8Selector28s_kgetSamplePositions_count_E, symObjAddr: 0x107728, symBinAddr: 0x100040B80, symSize: 0x0 }
  - { offset: 0x45B34, size: 0x8, addend: 0x0, symName: __ZN3MTL7Private8Selector100s_kgetTextureAccessCounters_region_mipLevel_slice_resetCounters_countersBuffer_countersBufferOffset_E, symObjAddr: 0x107730, symBinAddr: 0x100040B88, symSize: 0x0 }
  - { offset: 0x45B4F, size: 0x8, addend: 0x0, symName: __ZN3MTL7Private8Selector13s_kgpuAddressE, symObjAddr: 0x107738, symBinAddr: 0x100040B90, symSize: 0x0 }
  - { offset: 0x45B6A, size: 0x8, addend: 0x0, symName: __ZN3MTL7Private8Selector16s_kgpuResourceIDE, symObjAddr: 0x107740, symBinAddr: 0x100040B98, symSize: 0x0 }
  - { offset: 0x45B85, size: 0x8, addend: 0x0, symName: __ZN3MTL7Private8Selector9s_kgroupsE, symObjAddr: 0x107748, symBinAddr: 0x100040BA0, symSize: 0x0 }
  - { offset: 0x45BA0, size: 0x8, addend: 0x0, symName: __ZN3MTL7Private8Selector19s_khasUnifiedMemoryE, symObjAddr: 0x107750, symBinAddr: 0x100040BA8, symSize: 0x0 }
  - { offset: 0x45BBB, size: 0x8, addend: 0x0, symName: __ZN3MTL7Private8Selector21s_khazardTrackingModeE, symObjAddr: 0x107758, symBinAddr: 0x100040BB0, symSize: 0x0 }
  - { offset: 0x45BD6, size: 0x8, addend: 0x0, symName: __ZN3MTL7Private8Selector7s_kheapE, symObjAddr: 0x107760, symBinAddr: 0x100040BB8, symSize: 0x0 }
  - { offset: 0x45BF1, size: 0x8, addend: 0x0, symName: __ZN3MTL7Private8Selector55s_kheapAccelerationStructureSizeAndAlignWithDescriptor_E, symObjAddr: 0x107768, symBinAddr: 0x100040BC0, symSize: 0x0 }
  - { offset: 0x45C0C, size: 0x8, addend: 0x0, symName: __ZN3MTL7Private8Selector49s_kheapAccelerationStructureSizeAndAlignWithSize_E, symObjAddr: 0x107770, symBinAddr: 0x100040BC8, symSize: 0x0 }
  - { offset: 0x45C27, size: 0x8, addend: 0x0, symName: __ZN3MTL7Private8Selector44s_kheapBufferSizeAndAlignWithLength_options_E, symObjAddr: 0x107778, symBinAddr: 0x100040BD0, symSize: 0x0 }
  - { offset: 0x45C42, size: 0x8, addend: 0x0, symName: __ZN3MTL7Private8Selector13s_kheapOffsetE, symObjAddr: 0x107780, symBinAddr: 0x100040BD8, symSize: 0x0 }
  - { offset: 0x45C5D, size: 0x8, addend: 0x0, symName: __ZN3MTL7Private8Selector41s_kheapTextureSizeAndAlignWithDescriptor_E, symObjAddr: 0x107788, symBinAddr: 0x100040BE0, symSize: 0x0 }
  - { offset: 0x45C78, size: 0x8, addend: 0x0, symName: __ZN3MTL7Private8Selector9s_kheightE, symObjAddr: 0x107790, symBinAddr: 0x100040BE8, symSize: 0x0 }
  - { offset: 0x45C93, size: 0x8, addend: 0x0, symName: __ZN3MTL7Private8Selector13s_khorizontalE, symObjAddr: 0x107798, symBinAddr: 0x100040BF0, symSize: 0x0 }
  - { offset: 0x45CAE, size: 0x8, addend: 0x0, symName: __ZN3MTL7Private8Selector26s_khorizontalSampleStorageE, symObjAddr: 0x1077A0, symBinAddr: 0x100040BF8, symSize: 0x0 }
  - { offset: 0x45CC9, size: 0x8, addend: 0x0, symName: __ZN3MTL7Private8Selector39s_kimageblockMemoryLengthForDimensions_E, symObjAddr: 0x1077A8, symBinAddr: 0x100040C00, symSize: 0x0 }
  - { offset: 0x45CE4, size: 0x8, addend: 0x0, symName: __ZN3MTL7Private8Selector25s_kimageblockSampleLengthE, symObjAddr: 0x1077B0, symBinAddr: 0x100040C08, symSize: 0x0 }
  - { offset: 0x45CFF, size: 0x8, addend: 0x0, symName: __ZN3MTL7Private8Selector8s_kindexE, symObjAddr: 0x1077B8, symBinAddr: 0x100040C10, symSize: 0x0 }
  - { offset: 0x45D1A, size: 0x8, addend: 0x0, symName: __ZN3MTL7Private8Selector14s_kindexBufferE, symObjAddr: 0x1077C0, symBinAddr: 0x100040C18, symSize: 0x0 }
  - { offset: 0x45D35, size: 0x8, addend: 0x0, symName: __ZN3MTL7Private8Selector19s_kindexBufferIndexE, symObjAddr: 0x1077C8, symBinAddr: 0x100040C20, symSize: 0x0 }
  - { offset: 0x45D50, size: 0x8, addend: 0x0, symName: __ZN3MTL7Private8Selector20s_kindexBufferOffsetE, symObjAddr: 0x1077D0, symBinAddr: 0x100040C28, symSize: 0x0 }
  - { offset: 0x45D6B, size: 0x8, addend: 0x0, symName: __ZN3MTL7Private8Selector12s_kindexTypeE, symObjAddr: 0x1077D8, symBinAddr: 0x100040C30, symSize: 0x0 }
  - { offset: 0x45D86, size: 0x8, addend: 0x0, symName: __ZN3MTL7Private8Selector33s_kindirectComputeCommandAtIndex_E, symObjAddr: 0x1077E0, symBinAddr: 0x100040C38, symSize: 0x0 }
  - { offset: 0x45DA1, size: 0x8, addend: 0x0, symName: __ZN3MTL7Private8Selector32s_kindirectRenderCommandAtIndex_E, symObjAddr: 0x1077E8, symBinAddr: 0x100040C40, symSize: 0x0 }
  - { offset: 0x45DBC, size: 0x8, addend: 0x0, symName: __ZN3MTL7Private8Selector17s_kinheritBuffersE, symObjAddr: 0x1077F0, symBinAddr: 0x100040C48, symSize: 0x0 }
  - { offset: 0x45DD7, size: 0x8, addend: 0x0, symName: __ZN3MTL7Private8Selector23s_kinheritPipelineStateE, symObjAddr: 0x1077F8, symBinAddr: 0x100040C50, symSize: 0x0 }
  - { offset: 0x45DF2, size: 0x8, addend: 0x0, symName: __ZN3MTL7Private8Selector7s_kinitE, symObjAddr: 0x107800, symBinAddr: 0x100040C58, symSize: 0x0 }
  - { offset: 0x45E0D, size: 0x8, addend: 0x0, symName: __ZN3MTL7Private8Selector25s_kinitWithArgumentIndex_E, symObjAddr: 0x107808, symBinAddr: 0x100040C60, symSize: 0x0 }
  - { offset: 0x45E28, size: 0x8, addend: 0x0, symName: __ZN3MTL7Private8Selector25s_kinitWithDispatchQueue_E, symObjAddr: 0x107810, symBinAddr: 0x100040C68, symSize: 0x0 }
  - { offset: 0x45E43, size: 0x8, addend: 0x0, symName: __ZN3MTL7Private8Selector52s_kinitWithFunctionName_nodes_outputNode_attributes_E, symObjAddr: 0x107818, symBinAddr: 0x100040C70, symSize: 0x0 }
  - { offset: 0x45E5E, size: 0x8, addend: 0x0, symName: __ZN3MTL7Private8Selector46s_kinitWithName_arguments_controlDependencies_E, symObjAddr: 0x107820, symBinAddr: 0x100040C78, symSize: 0x0 }
  - { offset: 0x45E79, size: 0x8, addend: 0x0, symName: __ZN3MTL7Private8Selector23s_kinitWithSampleCount_E, symObjAddr: 0x107828, symBinAddr: 0x100040C80, symSize: 0x0 }
  - { offset: 0x45E94, size: 0x8, addend: 0x0, symName: __ZN3MTL7Private8Selector43s_kinitWithSampleCount_horizontal_vertical_E, symObjAddr: 0x107830, symBinAddr: 0x100040C88, symSize: 0x0 }
  - { offset: 0x45EAF, size: 0x8, addend: 0x0, symName: __ZN3MTL7Private8Selector25s_kinputPrimitiveTopologyE, symObjAddr: 0x107838, symBinAddr: 0x100040C90, symSize: 0x0 }
  - { offset: 0x45ECA, size: 0x8, addend: 0x0, symName: __ZN3MTL7Private8Selector29s_kinsertDebugCaptureBoundaryE, symObjAddr: 0x107840, symBinAddr: 0x100040C98, symSize: 0x0 }
  - { offset: 0x45EE5, size: 0x8, addend: 0x0, symName: __ZN3MTL7Private8Selector23s_kinsertDebugSignpost_E, symObjAddr: 0x107848, symBinAddr: 0x100040CA0, symSize: 0x0 }
  - { offset: 0x45F00, size: 0x8, addend: 0x0, symName: __ZN3MTL7Private8Selector18s_kinsertLibrariesE, symObjAddr: 0x107850, symBinAddr: 0x100040CA8, symSize: 0x0 }
  - { offset: 0x45F1B, size: 0x8, addend: 0x0, symName: __ZN3MTL7Private8Selector14s_kinstallNameE, symObjAddr: 0x107858, symBinAddr: 0x100040CB0, symSize: 0x0 }
  - { offset: 0x45F36, size: 0x8, addend: 0x0, symName: __ZN3MTL7Private8Selector16s_kinstanceCountE, symObjAddr: 0x107860, symBinAddr: 0x100040CB8, symSize: 0x0 }
  - { offset: 0x45F51, size: 0x8, addend: 0x0, symName: __ZN3MTL7Private8Selector22s_kinstanceCountBufferE, symObjAddr: 0x107868, symBinAddr: 0x100040CC0, symSize: 0x0 }
  - { offset: 0x45F6C, size: 0x8, addend: 0x0, symName: __ZN3MTL7Private8Selector28s_kinstanceCountBufferOffsetE, symObjAddr: 0x107870, symBinAddr: 0x100040CC8, symSize: 0x0 }
  - { offset: 0x45F87, size: 0x8, addend: 0x0, symName: __ZN3MTL7Private8Selector27s_kinstanceDescriptorBufferE, symObjAddr: 0x107878, symBinAddr: 0x100040CD0, symSize: 0x0 }
  - { offset: 0x45FA2, size: 0x8, addend: 0x0, symName: __ZN3MTL7Private8Selector33s_kinstanceDescriptorBufferOffsetE, symObjAddr: 0x107880, symBinAddr: 0x100040CD8, symSize: 0x0 }
  - { offset: 0x45FBD, size: 0x8, addend: 0x0, symName: __ZN3MTL7Private8Selector27s_kinstanceDescriptorStrideE, symObjAddr: 0x107888, symBinAddr: 0x100040CE0, symSize: 0x0 }
  - { offset: 0x45FD8, size: 0x8, addend: 0x0, symName: __ZN3MTL7Private8Selector25s_kinstanceDescriptorTypeE, symObjAddr: 0x107890, symBinAddr: 0x100040CE8, symSize: 0x0 }
  - { offset: 0x45FF3, size: 0x8, addend: 0x0, symName: __ZN3MTL7Private8Selector34s_kinstancedAccelerationStructuresE, symObjAddr: 0x107898, symBinAddr: 0x100040CF0, symSize: 0x0 }
  - { offset: 0x4600E, size: 0x8, addend: 0x0, symName: __ZN3MTL7Private8Selector38s_kintersectionFunctionTableDescriptorE, symObjAddr: 0x1078A0, symBinAddr: 0x100040CF8, symSize: 0x0 }
  - { offset: 0x46029, size: 0x8, addend: 0x0, symName: __ZN3MTL7Private8Selector34s_kintersectionFunctionTableOffsetE, symObjAddr: 0x1078A8, symBinAddr: 0x100040D00, symSize: 0x0 }
  - { offset: 0x46044, size: 0x8, addend: 0x0, symName: __ZN3MTL7Private8Selector12s_kiosurfaceE, symObjAddr: 0x1078B0, symBinAddr: 0x100040D08, symSize: 0x0 }
  - { offset: 0x4605F, size: 0x8, addend: 0x0, symName: __ZN3MTL7Private8Selector17s_kiosurfacePlaneE, symObjAddr: 0x1078B8, symBinAddr: 0x100040D10, symSize: 0x0 }
  - { offset: 0x4607A, size: 0x8, addend: 0x0, symName: __ZN3MTL7Private8Selector11s_kisActiveE, symObjAddr: 0x1078C0, symBinAddr: 0x100040D18, symSize: 0x0 }
  - { offset: 0x46095, size: 0x8, addend: 0x0, symName: __ZN3MTL7Private8Selector14s_kisAliasableE, symObjAddr: 0x1078C8, symBinAddr: 0x100040D20, symSize: 0x0 }
  - { offset: 0x460B0, size: 0x8, addend: 0x0, symName: __ZN3MTL7Private8Selector27s_kisAlphaToCoverageEnabledE, symObjAddr: 0x1078D0, symBinAddr: 0x100040D28, symSize: 0x0 }
  - { offset: 0x460CB, size: 0x8, addend: 0x0, symName: __ZN3MTL7Private8Selector22s_kisAlphaToOneEnabledE, symObjAddr: 0x1078D8, symBinAddr: 0x100040D30, symSize: 0x0 }
  - { offset: 0x460E6, size: 0x8, addend: 0x0, symName: __ZN3MTL7Private8Selector13s_kisArgumentE, symObjAddr: 0x1078E0, symBinAddr: 0x100040D38, symSize: 0x0 }
  - { offset: 0x46101, size: 0x8, addend: 0x0, symName: __ZN3MTL7Private8Selector20s_kisBlendingEnabledE, symObjAddr: 0x1078E8, symBinAddr: 0x100040D40, symSize: 0x0 }
  - { offset: 0x4611C, size: 0x8, addend: 0x0, symName: __ZN3MTL7Private8Selector14s_kisCapturingE, symObjAddr: 0x1078F0, symBinAddr: 0x100040D48, symSize: 0x0 }
  - { offset: 0x46137, size: 0x8, addend: 0x0, symName: __ZN3MTL7Private8Selector40s_kisDepth24Stencil8PixelFormatSupportedE, symObjAddr: 0x1078F8, symBinAddr: 0x100040D50, symSize: 0x0 }
  - { offset: 0x46152, size: 0x8, addend: 0x0, symName: __ZN3MTL7Private8Selector17s_kisDepthTextureE, symObjAddr: 0x107900, symBinAddr: 0x100040D58, symSize: 0x0 }
  - { offset: 0x4616D, size: 0x8, addend: 0x0, symName: __ZN3MTL7Private8Selector22s_kisDepthWriteEnabledE, symObjAddr: 0x107908, symBinAddr: 0x100040D60, symSize: 0x0 }
  - { offset: 0x46188, size: 0x8, addend: 0x0, symName: __ZN3MTL7Private8Selector20s_kisFramebufferOnlyE, symObjAddr: 0x107910, symBinAddr: 0x100040D68, symSize: 0x0 }
  - { offset: 0x461A3, size: 0x8, addend: 0x0, symName: __ZN3MTL7Private8Selector13s_kisHeadlessE, symObjAddr: 0x107918, symBinAddr: 0x100040D70, symSize: 0x0 }
  - { offset: 0x461BE, size: 0x8, addend: 0x0, symName: __ZN3MTL7Private8Selector13s_kisLowPowerE, symObjAddr: 0x107920, symBinAddr: 0x100040D78, symSize: 0x0 }
  - { offset: 0x461D9, size: 0x8, addend: 0x0, symName: __ZN3MTL7Private8Selector26s_kisPatchControlPointDataE, symObjAddr: 0x107928, symBinAddr: 0x100040D80, symSize: 0x0 }
  - { offset: 0x461F4, size: 0x8, addend: 0x0, symName: __ZN3MTL7Private8Selector14s_kisPatchDataE, symObjAddr: 0x107930, symBinAddr: 0x100040D88, symSize: 0x0 }
  - { offset: 0x4620F, size: 0x8, addend: 0x0, symName: __ZN3MTL7Private8Selector25s_kisRasterizationEnabledE, symObjAddr: 0x107938, symBinAddr: 0x100040D90, symSize: 0x0 }
  - { offset: 0x4622A, size: 0x8, addend: 0x0, symName: __ZN3MTL7Private8Selector14s_kisRemovableE, symObjAddr: 0x107940, symBinAddr: 0x100040D98, symSize: 0x0 }
  - { offset: 0x46245, size: 0x8, addend: 0x0, symName: __ZN3MTL7Private8Selector14s_kisShareableE, symObjAddr: 0x107948, symBinAddr: 0x100040DA0, symSize: 0x0 }
  - { offset: 0x46260, size: 0x8, addend: 0x0, symName: __ZN3MTL7Private8Selector11s_kisSparseE, symObjAddr: 0x107950, symBinAddr: 0x100040DA8, symSize: 0x0 }
  - { offset: 0x4627B, size: 0x8, addend: 0x0, symName: __ZN3MTL7Private8Selector35s_kisTessellationFactorScaleEnabledE, symObjAddr: 0x107958, symBinAddr: 0x100040DB0, symSize: 0x0 }
  - { offset: 0x46296, size: 0x8, addend: 0x0, symName: __ZN3MTL7Private8Selector9s_kisUsedE, symObjAddr: 0x107960, symBinAddr: 0x100040DB8, symSize: 0x0 }
  - { offset: 0x462B1, size: 0x8, addend: 0x0, symName: __ZN3MTL7Private8Selector16s_kkernelEndTimeE, symObjAddr: 0x107968, symBinAddr: 0x100040DC0, symSize: 0x0 }
  - { offset: 0x462CC, size: 0x8, addend: 0x0, symName: __ZN3MTL7Private8Selector18s_kkernelStartTimeE, symObjAddr: 0x107970, symBinAddr: 0x100040DC8, symSize: 0x0 }
  - { offset: 0x462E7, size: 0x8, addend: 0x0, symName: __ZN3MTL7Private8Selector8s_klabelE, symObjAddr: 0x107978, symBinAddr: 0x100040DD0, symSize: 0x0 }
  - { offset: 0x46302, size: 0x8, addend: 0x0, symName: __ZN3MTL7Private8Selector18s_klanguageVersionE, symObjAddr: 0x107980, symBinAddr: 0x100040DD8, symSize: 0x0 }
  - { offset: 0x4631D, size: 0x8, addend: 0x0, symName: __ZN3MTL7Private8Selector16s_klayerAtIndex_E, symObjAddr: 0x107988, symBinAddr: 0x100040DE0, symSize: 0x0 }
  - { offset: 0x46338, size: 0x8, addend: 0x0, symName: __ZN3MTL7Private8Selector13s_klayerCountE, symObjAddr: 0x107990, symBinAddr: 0x100040DE8, symSize: 0x0 }
  - { offset: 0x46353, size: 0x8, addend: 0x0, symName: __ZN3MTL7Private8Selector9s_klayersE, symObjAddr: 0x107998, symBinAddr: 0x100040DF0, symSize: 0x0 }
  - { offset: 0x4636E, size: 0x8, addend: 0x0, symName: __ZN3MTL7Private8Selector10s_klayoutsE, symObjAddr: 0x1079A0, symBinAddr: 0x100040DF8, symSize: 0x0 }
  - { offset: 0x46389, size: 0x8, addend: 0x0, symName: __ZN3MTL7Private8Selector9s_klengthE, symObjAddr: 0x1079A8, symBinAddr: 0x100040E00, symSize: 0x0 }
  - { offset: 0x463A4, size: 0x8, addend: 0x0, symName: __ZN3MTL7Private8Selector8s_klevelE, symObjAddr: 0x1079B0, symBinAddr: 0x100040E08, symSize: 0x0 }
  - { offset: 0x463BF, size: 0x8, addend: 0x0, symName: __ZN3MTL7Private8Selector12s_klibrariesE, symObjAddr: 0x1079B8, symBinAddr: 0x100040E10, symSize: 0x0 }
  - { offset: 0x463DA, size: 0x8, addend: 0x0, symName: __ZN3MTL7Private8Selector14s_klibraryTypeE, symObjAddr: 0x1079C0, symBinAddr: 0x100040E18, symSize: 0x0 }
  - { offset: 0x463F5, size: 0x8, addend: 0x0, symName: __ZN3MTL7Private8Selector7s_klineE, symObjAddr: 0x1079C8, symBinAddr: 0x100040E20, symSize: 0x0 }
  - { offset: 0x46410, size: 0x8, addend: 0x0, symName: __ZN3MTL7Private8Selector18s_klinkedFunctionsE, symObjAddr: 0x1079D0, symBinAddr: 0x100040E28, symSize: 0x0 }
  - { offset: 0x4642B, size: 0x8, addend: 0x0, symName: __ZN3MTL7Private8Selector13s_kloadActionE, symObjAddr: 0x1079D8, symBinAddr: 0x100040E30, symSize: 0x0 }
  - { offset: 0x46446, size: 0x8, addend: 0x0, symName: __ZN3MTL7Private8Selector58s_kloadBuffer_offset_size_sourceHandle_sourceHandleOffset_E, symObjAddr: 0x1079E0, symBinAddr: 0x100040E38, symSize: 0x0 }
  - { offset: 0x46461, size: 0x8, addend: 0x0, symName: __ZN3MTL7Private8Selector50s_kloadBytes_size_sourceHandle_sourceHandleOffset_E, symObjAddr: 0x1079E8, symBinAddr: 0x100040E40, symSize: 0x0 }
  - { offset: 0x4647C, size: 0x8, addend: 0x0, symName: __ZN3MTL7Private8Selector120s_kloadTexture_slice_level_size_sourceBytesPerRow_sourceBytesPerImage_destinationOrigin_sourceHandle_sourceHandleOffset_E, symObjAddr: 0x1079F0, symBinAddr: 0x100040E48, symSize: 0x0 }
  - { offset: 0x46497, size: 0x8, addend: 0x0, symName: __ZN3MTL7Private8Selector11s_klocationE, symObjAddr: 0x1079F8, symBinAddr: 0x100040E50, symSize: 0x0 }
  - { offset: 0x464B2, size: 0x8, addend: 0x0, symName: __ZN3MTL7Private8Selector17s_klocationNumberE, symObjAddr: 0x107A00, symBinAddr: 0x100040E58, symSize: 0x0 }
  - { offset: 0x464CD, size: 0x8, addend: 0x0, symName: __ZN3MTL7Private8Selector13s_klodAverageE, symObjAddr: 0x107A08, symBinAddr: 0x100040E60, symSize: 0x0 }
  - { offset: 0x464E8, size: 0x8, addend: 0x0, symName: __ZN3MTL7Private8Selector14s_klodMaxClampE, symObjAddr: 0x107A10, symBinAddr: 0x100040E68, symSize: 0x0 }
  - { offset: 0x46503, size: 0x8, addend: 0x0, symName: __ZN3MTL7Private8Selector14s_klodMinClampE, symObjAddr: 0x107A18, symBinAddr: 0x100040E70, symSize: 0x0 }
  - { offset: 0x4651E, size: 0x8, addend: 0x0, symName: __ZN3MTL7Private8Selector7s_klogsE, symObjAddr: 0x107A20, symBinAddr: 0x100040E78, symSize: 0x0 }
  - { offset: 0x46539, size: 0x8, addend: 0x0, symName: __ZN3MTL7Private8Selector12s_kmagFilterE, symObjAddr: 0x107A28, symBinAddr: 0x100040E80, symSize: 0x0 }
  - { offset: 0x46554, size: 0x8, addend: 0x0, symName: __ZN3MTL7Private8Selector16s_kmakeAliasableE, symObjAddr: 0x107A30, symBinAddr: 0x100040E88, symSize: 0x0 }
  - { offset: 0x4656F, size: 0x8, addend: 0x0, symName: __ZN3MTL7Private8Selector43s_kmapPhysicalToScreenCoordinates_forLayer_E, symObjAddr: 0x107A38, symBinAddr: 0x100040E90, symSize: 0x0 }
  - { offset: 0x4658A, size: 0x8, addend: 0x0, symName: __ZN3MTL7Private8Selector43s_kmapScreenToPhysicalCoordinates_forLayer_E, symObjAddr: 0x107A40, symBinAddr: 0x100040E98, symSize: 0x0 }
  - { offset: 0x465A5, size: 0x8, addend: 0x0, symName: __ZN3MTL7Private8Selector16s_kmaxAnisotropyE, symObjAddr: 0x107A48, symBinAddr: 0x100040EA0, symSize: 0x0 }
  - { offset: 0x465C0, size: 0x8, addend: 0x0, symName: __ZN3MTL7Private8Selector32s_kmaxArgumentBufferSamplerCountE, symObjAddr: 0x107A50, symBinAddr: 0x100040EA8, symSize: 0x0 }
  - { offset: 0x465DB, size: 0x8, addend: 0x0, symName: __ZN3MTL7Private8Selector33s_kmaxAvailableSizeWithAlignment_E, symObjAddr: 0x107A58, symBinAddr: 0x100040EB0, symSize: 0x0 }
  - { offset: 0x465F6, size: 0x8, addend: 0x0, symName: __ZN3MTL7Private8Selector18s_kmaxBufferLengthE, symObjAddr: 0x107A60, symBinAddr: 0x100040EB8, symSize: 0x0 }
  - { offset: 0x46611, size: 0x8, addend: 0x0, symName: __ZN3MTL7Private8Selector20s_kmaxCallStackDepthE, symObjAddr: 0x107A68, symBinAddr: 0x100040EC0, symSize: 0x0 }
  - { offset: 0x4662C, size: 0x8, addend: 0x0, symName: __ZN3MTL7Private8Selector24s_kmaxCommandBufferCountE, symObjAddr: 0x107A70, symBinAddr: 0x100040EC8, symSize: 0x0 }
  - { offset: 0x46647, size: 0x8, addend: 0x0, symName: __ZN3MTL7Private8Selector22s_kmaxCommandsInFlightE, symObjAddr: 0x107A78, symBinAddr: 0x100040ED0, symSize: 0x0 }
  - { offset: 0x46662, size: 0x8, addend: 0x0, symName: __ZN3MTL7Private8Selector29s_kmaxFragmentBufferBindCountE, symObjAddr: 0x107A80, symBinAddr: 0x100040ED8, symSize: 0x0 }
  - { offset: 0x4667D, size: 0x8, addend: 0x0, symName: __ZN3MTL7Private8Selector28s_kmaxFragmentCallStackDepthE, symObjAddr: 0x107A88, symBinAddr: 0x100040EE0, symSize: 0x0 }
  - { offset: 0x46698, size: 0x8, addend: 0x0, symName: __ZN3MTL7Private8Selector19s_kmaxInstanceCountE, symObjAddr: 0x107A90, symBinAddr: 0x100040EE8, symSize: 0x0 }
  - { offset: 0x466B3, size: 0x8, addend: 0x0, symName: __ZN3MTL7Private8Selector27s_kmaxKernelBufferBindCountE, symObjAddr: 0x107A98, symBinAddr: 0x100040EF0, symSize: 0x0 }
  - { offset: 0x466CE, size: 0x8, addend: 0x0, symName: __ZN3MTL7Private8Selector38s_kmaxKernelThreadgroupMemoryBindCountE, symObjAddr: 0x107AA0, symBinAddr: 0x100040EF8, symSize: 0x0 }
  - { offset: 0x466E9, size: 0x8, addend: 0x0, symName: __ZN3MTL7Private8Selector25s_kmaxMeshBufferBindCountE, symObjAddr: 0x107AA8, symBinAddr: 0x100040F00, symSize: 0x0 }
  - { offset: 0x46704, size: 0x8, addend: 0x0, symName: __ZN3MTL7Private8Selector26s_kmaxMotionTransformCountE, symObjAddr: 0x107AB0, symBinAddr: 0x100040F08, symSize: 0x0 }
  - { offset: 0x4671F, size: 0x8, addend: 0x0, symName: __ZN3MTL7Private8Selector27s_kmaxObjectBufferBindCountE, symObjAddr: 0x107AB8, symBinAddr: 0x100040F10, symSize: 0x0 }
  - { offset: 0x4673A, size: 0x8, addend: 0x0, symName: __ZN3MTL7Private8Selector38s_kmaxObjectThreadgroupMemoryBindCountE, symObjAddr: 0x107AC0, symBinAddr: 0x100040F18, symSize: 0x0 }
  - { offset: 0x46755, size: 0x8, addend: 0x0, symName: __ZN3MTL7Private8Selector17s_kmaxSampleCountE, symObjAddr: 0x107AC8, symBinAddr: 0x100040F20, symSize: 0x0 }
  - { offset: 0x46770, size: 0x8, addend: 0x0, symName: __ZN3MTL7Private8Selector24s_kmaxTessellationFactorE, symObjAddr: 0x107AD0, symBinAddr: 0x100040F28, symSize: 0x0 }
  - { offset: 0x4678B, size: 0x8, addend: 0x0, symName: __ZN3MTL7Private8Selector29s_kmaxThreadgroupMemoryLengthE, symObjAddr: 0x107AD8, symBinAddr: 0x100040F30, symSize: 0x0 }
  - { offset: 0x467A6, size: 0x8, addend: 0x0, symName: __ZN3MTL7Private8Selector27s_kmaxThreadsPerThreadgroupE, symObjAddr: 0x107AE0, symBinAddr: 0x100040F38, symSize: 0x0 }
  - { offset: 0x467C1, size: 0x8, addend: 0x0, symName: __ZN3MTL7Private8Selector34s_kmaxTotalThreadgroupsPerMeshGridE, symObjAddr: 0x107AE8, symBinAddr: 0x100040F40, symSize: 0x0 }
  - { offset: 0x467DC, size: 0x8, addend: 0x0, symName: __ZN3MTL7Private8Selector36s_kmaxTotalThreadsPerMeshThreadgroupE, symObjAddr: 0x107AF0, symBinAddr: 0x100040F48, symSize: 0x0 }
  - { offset: 0x467F7, size: 0x8, addend: 0x0, symName: __ZN3MTL7Private8Selector38s_kmaxTotalThreadsPerObjectThreadgroupE, symObjAddr: 0x107AF8, symBinAddr: 0x100040F50, symSize: 0x0 }
  - { offset: 0x46812, size: 0x8, addend: 0x0, symName: __ZN3MTL7Private8Selector32s_kmaxTotalThreadsPerThreadgroupE, symObjAddr: 0x107B00, symBinAddr: 0x100040F58, symSize: 0x0 }
  - { offset: 0x4682D, size: 0x8, addend: 0x0, symName: __ZN3MTL7Private8Selector18s_kmaxTransferRateE, symObjAddr: 0x107B08, symBinAddr: 0x100040F60, symSize: 0x0 }
  - { offset: 0x46848, size: 0x8, addend: 0x0, symName: __ZN3MTL7Private8Selector30s_kmaxVertexAmplificationCountE, symObjAddr: 0x107B10, symBinAddr: 0x100040F68, symSize: 0x0 }
  - { offset: 0x46863, size: 0x8, addend: 0x0, symName: __ZN3MTL7Private8Selector27s_kmaxVertexBufferBindCountE, symObjAddr: 0x107B18, symBinAddr: 0x100040F70, symSize: 0x0 }
  - { offset: 0x4687E, size: 0x8, addend: 0x0, symName: __ZN3MTL7Private8Selector26s_kmaxVertexCallStackDepthE, symObjAddr: 0x107B20, symBinAddr: 0x100040F78, symSize: 0x0 }
  - { offset: 0x46899, size: 0x8, addend: 0x0, symName: __ZN3MTL7Private8Selector40s_kmaximumConcurrentCompilationTaskCountE, symObjAddr: 0x107B28, symBinAddr: 0x100040F80, symSize: 0x0 }
  - { offset: 0x468B4, size: 0x8, addend: 0x0, symName: __ZN3MTL7Private8Selector16s_kmemberByName_E, symObjAddr: 0x107B30, symBinAddr: 0x100040F88, symSize: 0x0 }
  - { offset: 0x468CF, size: 0x8, addend: 0x0, symName: __ZN3MTL7Private8Selector10s_kmembersE, symObjAddr: 0x107B38, symBinAddr: 0x100040F90, symSize: 0x0 }
  - { offset: 0x468EA, size: 0x8, addend: 0x0, symName: __ZN3MTL7Private8Selector36s_kmemoryBarrierWithResources_count_E, symObjAddr: 0x107B40, symBinAddr: 0x100040F98, symSize: 0x0 }
  - { offset: 0x46905, size: 0x8, addend: 0x0, symName: __ZN3MTL7Private8Selector61s_kmemoryBarrierWithResources_count_afterStages_beforeStages_E, symObjAddr: 0x107B48, symBinAddr: 0x100040FA0, symSize: 0x0 }
  - { offset: 0x46920, size: 0x8, addend: 0x0, symName: __ZN3MTL7Private8Selector26s_kmemoryBarrierWithScope_E, symObjAddr: 0x107B50, symBinAddr: 0x100040FA8, symSize: 0x0 }
  - { offset: 0x4693B, size: 0x8, addend: 0x0, symName: __ZN3MTL7Private8Selector51s_kmemoryBarrierWithScope_afterStages_beforeStages_E, symObjAddr: 0x107B58, symBinAddr: 0x100040FB0, symSize: 0x0 }
  - { offset: 0x46956, size: 0x8, addend: 0x0, symName: __ZN3MTL7Private8Selector15s_kmeshBindingsE, symObjAddr: 0x107B60, symBinAddr: 0x100040FB8, symSize: 0x0 }
  - { offset: 0x46971, size: 0x8, addend: 0x0, symName: __ZN3MTL7Private8Selector14s_kmeshBuffersE, symObjAddr: 0x107B68, symBinAddr: 0x100040FC0, symSize: 0x0 }
  - { offset: 0x4698C, size: 0x8, addend: 0x0, symName: __ZN3MTL7Private8Selector15s_kmeshFunctionE, symObjAddr: 0x107B70, symBinAddr: 0x100040FC8, symSize: 0x0 }
  - { offset: 0x469A7, size: 0x8, addend: 0x0, symName: __ZN3MTL7Private8Selector22s_kmeshLinkedFunctionsE, symObjAddr: 0x107B78, symBinAddr: 0x100040FD0, symSize: 0x0 }
  - { offset: 0x469C2, size: 0x8, addend: 0x0, symName: __ZN3MTL7Private8Selector27s_kmeshThreadExecutionWidthE, symObjAddr: 0x107B80, symBinAddr: 0x100040FD8, symSize: 0x0 }
  - { offset: 0x469DD, size: 0x8, addend: 0x0, symName: __ZN3MTL7Private8Selector54s_kmeshThreadgroupSizeIsMultipleOfThreadExecutionWidthE, symObjAddr: 0x107B88, symBinAddr: 0x100040FE0, symSize: 0x0 }
  - { offset: 0x469F8, size: 0x8, addend: 0x0, symName: __ZN3MTL7Private8Selector12s_kminFilterE, symObjAddr: 0x107B90, symBinAddr: 0x100040FE8, symSize: 0x0 }
  - { offset: 0x46A13, size: 0x8, addend: 0x0, symName: __ZN3MTL7Private8Selector47s_kminimumLinearTextureAlignmentForPixelFormat_E, symObjAddr: 0x107B98, symBinAddr: 0x100040FF0, symSize: 0x0 }
  - { offset: 0x46A2E, size: 0x8, addend: 0x0, symName: __ZN3MTL7Private8Selector47s_kminimumTextureBufferAlignmentForPixelFormat_E, symObjAddr: 0x107BA0, symBinAddr: 0x100040FF8, symSize: 0x0 }
  - { offset: 0x46A49, size: 0x8, addend: 0x0, symName: __ZN3MTL7Private8Selector12s_kmipFilterE, symObjAddr: 0x107BA8, symBinAddr: 0x100041000, symSize: 0x0 }
  - { offset: 0x46A64, size: 0x8, addend: 0x0, symName: __ZN3MTL7Private8Selector19s_kmipmapLevelCountE, symObjAddr: 0x107BB0, symBinAddr: 0x100041008, symSize: 0x0 }
  - { offset: 0x46A7F, size: 0x8, addend: 0x0, symName: __ZN3MTL7Private8Selector22s_kmotionEndBorderModeE, symObjAddr: 0x107BB8, symBinAddr: 0x100041010, symSize: 0x0 }
  - { offset: 0x46A9A, size: 0x8, addend: 0x0, symName: __ZN3MTL7Private8Selector16s_kmotionEndTimeE, symObjAddr: 0x107BC0, symBinAddr: 0x100041018, symSize: 0x0 }
  - { offset: 0x46AB5, size: 0x8, addend: 0x0, symName: __ZN3MTL7Private8Selector22s_kmotionKeyframeCountE, symObjAddr: 0x107BC8, symBinAddr: 0x100041020, symSize: 0x0 }
  - { offset: 0x46AD0, size: 0x8, addend: 0x0, symName: __ZN3MTL7Private8Selector24s_kmotionStartBorderModeE, symObjAddr: 0x107BD0, symBinAddr: 0x100041028, symSize: 0x0 }
  - { offset: 0x46AEB, size: 0x8, addend: 0x0, symName: __ZN3MTL7Private8Selector18s_kmotionStartTimeE, symObjAddr: 0x107BD8, symBinAddr: 0x100041030, symSize: 0x0 }
  - { offset: 0x46B06, size: 0x8, addend: 0x0, symName: __ZN3MTL7Private8Selector24s_kmotionTransformBufferE, symObjAddr: 0x107BE0, symBinAddr: 0x100041038, symSize: 0x0 }
  - { offset: 0x46B21, size: 0x8, addend: 0x0, symName: __ZN3MTL7Private8Selector30s_kmotionTransformBufferOffsetE, symObjAddr: 0x107BE8, symBinAddr: 0x100041040, symSize: 0x0 }
  - { offset: 0x46B3C, size: 0x8, addend: 0x0, symName: __ZN3MTL7Private8Selector23s_kmotionTransformCountE, symObjAddr: 0x107BF0, symBinAddr: 0x100041048, symSize: 0x0 }
  - { offset: 0x46B57, size: 0x8, addend: 0x0, symName: __ZN3MTL7Private8Selector29s_kmotionTransformCountBufferE, symObjAddr: 0x107BF8, symBinAddr: 0x100041050, symSize: 0x0 }
  - { offset: 0x46B72, size: 0x8, addend: 0x0, symName: __ZN3MTL7Private8Selector35s_kmotionTransformCountBufferOffsetE, symObjAddr: 0x107C00, symBinAddr: 0x100041058, symSize: 0x0 }
  - { offset: 0x46B8D, size: 0x8, addend: 0x0, symName: __ZN3MTL7Private8Selector144s_kmoveTextureMappingsFromTexture_sourceSlice_sourceLevel_sourceOrigin_sourceSize_toTexture_destinationSlice_destinationLevel_destinationOrigin_E, symObjAddr: 0x107C08, symBinAddr: 0x100041060, symSize: 0x0 }
  - { offset: 0x46BA8, size: 0x8, addend: 0x0, symName: __ZN3MTL7Private8Selector13s_kmutabilityE, symObjAddr: 0x107C10, symBinAddr: 0x100041068, symSize: 0x0 }
  - { offset: 0x46BC3, size: 0x8, addend: 0x0, symName: __ZN3MTL7Private8Selector7s_knameE, symObjAddr: 0x107C18, symBinAddr: 0x100041070, symSize: 0x0 }
  - { offset: 0x46BDE, size: 0x8, addend: 0x0, symName: __ZN3MTL7Private8Selector42s_knewAccelerationStructureWithDescriptor_E, symObjAddr: 0x107C20, symBinAddr: 0x100041078, symSize: 0x0 }
  - { offset: 0x46BF9, size: 0x8, addend: 0x0, symName: __ZN3MTL7Private8Selector49s_knewAccelerationStructureWithDescriptor_offset_E, symObjAddr: 0x107C28, symBinAddr: 0x100041080, symSize: 0x0 }
  - { offset: 0x46C14, size: 0x8, addend: 0x0, symName: __ZN3MTL7Private8Selector36s_knewAccelerationStructureWithSize_E, symObjAddr: 0x107C30, symBinAddr: 0x100041088, symSize: 0x0 }
  - { offset: 0x46C2F, size: 0x8, addend: 0x0, symName: __ZN3MTL7Private8Selector43s_knewAccelerationStructureWithSize_offset_E, symObjAddr: 0x107C38, symBinAddr: 0x100041090, symSize: 0x0 }
  - { offset: 0x46C4A, size: 0x8, addend: 0x0, symName: __ZN3MTL7Private8Selector38s_knewArgumentEncoderForBufferAtIndex_E, symObjAddr: 0x107C40, symBinAddr: 0x100041098, symSize: 0x0 }
  - { offset: 0x46C65, size: 0x8, addend: 0x0, symName: __ZN3MTL7Private8Selector35s_knewArgumentEncoderWithArguments_E, symObjAddr: 0x107C48, symBinAddr: 0x1000410A0, symSize: 0x0 }
  - { offset: 0x46C80, size: 0x8, addend: 0x0, symName: __ZN3MTL7Private8Selector39s_knewArgumentEncoderWithBufferBinding_E, symObjAddr: 0x107C50, symBinAddr: 0x1000410A8, symSize: 0x0 }
  - { offset: 0x46C9B, size: 0x8, addend: 0x0, symName: __ZN3MTL7Private8Selector37s_knewArgumentEncoderWithBufferIndex_E, symObjAddr: 0x107C58, symBinAddr: 0x1000410B0, symSize: 0x0 }
  - { offset: 0x46CB6, size: 0x8, addend: 0x0, symName: __ZN3MTL7Private8Selector48s_knewArgumentEncoderWithBufferIndex_reflection_E, symObjAddr: 0x107C60, symBinAddr: 0x1000410B8, symSize: 0x0 }
  - { offset: 0x46CD1, size: 0x8, addend: 0x0, symName: __ZN3MTL7Private8Selector40s_knewBinaryArchiveWithDescriptor_error_E, symObjAddr: 0x107C68, symBinAddr: 0x1000410C0, symSize: 0x0 }
  - { offset: 0x46CEC, size: 0x8, addend: 0x0, symName: __ZN3MTL7Private8Selector37s_knewBufferWithBytes_length_options_E, symObjAddr: 0x107C70, symBinAddr: 0x1000410C8, symSize: 0x0 }
  - { offset: 0x46D07, size: 0x8, addend: 0x0, symName: __ZN3MTL7Private8Selector55s_knewBufferWithBytesNoCopy_length_options_deallocator_E, symObjAddr: 0x107C78, symBinAddr: 0x1000410D0, symSize: 0x0 }
  - { offset: 0x46D22, size: 0x8, addend: 0x0, symName: __ZN3MTL7Private8Selector31s_knewBufferWithLength_options_E, symObjAddr: 0x107C80, symBinAddr: 0x1000410D8, symSize: 0x0 }
  - { offset: 0x46D3D, size: 0x8, addend: 0x0, symName: __ZN3MTL7Private8Selector38s_knewBufferWithLength_options_offset_E, symObjAddr: 0x107C88, symBinAddr: 0x1000410E0, symSize: 0x0 }
  - { offset: 0x46D58, size: 0x8, addend: 0x0, symName: __ZN3MTL7Private8Selector35s_knewCaptureScopeWithCommandQueue_E, symObjAddr: 0x107C90, symBinAddr: 0x1000410E8, symSize: 0x0 }
  - { offset: 0x46D73, size: 0x8, addend: 0x0, symName: __ZN3MTL7Private8Selector29s_knewCaptureScopeWithDevice_E, symObjAddr: 0x107C98, symBinAddr: 0x1000410F0, symSize: 0x0 }
  - { offset: 0x46D8E, size: 0x8, addend: 0x0, symName: __ZN3MTL7Private8Selector18s_knewCommandQueueE, symObjAddr: 0x107CA0, symBinAddr: 0x1000410F8, symSize: 0x0 }
  - { offset: 0x46DA9, size: 0x8, addend: 0x0, symName: __ZN3MTL7Private8Selector44s_knewCommandQueueWithMaxCommandBufferCount_E, symObjAddr: 0x107CA8, symBinAddr: 0x100041100, symSize: 0x0 }
  - { offset: 0x46DC4, size: 0x8, addend: 0x0, symName: __ZN3MTL7Private8Selector62s_knewComputePipelineStateWithAdditionalBinaryFunctions_error_E, symObjAddr: 0x107CB0, symBinAddr: 0x100041108, symSize: 0x0 }
  - { offset: 0x46DDF, size: 0x8, addend: 0x0, symName: __ZN3MTL7Private8Selector67s_knewComputePipelineStateWithDescriptor_options_completionHandler_E, symObjAddr: 0x107CB8, symBinAddr: 0x100041110, symSize: 0x0 }
  - { offset: 0x46DFA, size: 0x8, addend: 0x0, symName: __ZN3MTL7Private8Selector66s_knewComputePipelineStateWithDescriptor_options_reflection_error_E, symObjAddr: 0x107CC0, symBinAddr: 0x100041118, symSize: 0x0 }
  - { offset: 0x46E15, size: 0x8, addend: 0x0, symName: __ZN3MTL7Private8Selector57s_knewComputePipelineStateWithFunction_completionHandler_E, symObjAddr: 0x107CC8, symBinAddr: 0x100041120, symSize: 0x0 }
  - { offset: 0x46E30, size: 0x8, addend: 0x0, symName: __ZN3MTL7Private8Selector45s_knewComputePipelineStateWithFunction_error_E, symObjAddr: 0x107CD0, symBinAddr: 0x100041128, symSize: 0x0 }
  - { offset: 0x46E4B, size: 0x8, addend: 0x0, symName: __ZN3MTL7Private8Selector65s_knewComputePipelineStateWithFunction_options_completionHandler_E, symObjAddr: 0x107CD8, symBinAddr: 0x100041130, symSize: 0x0 }
  - { offset: 0x46E66, size: 0x8, addend: 0x0, symName: __ZN3MTL7Private8Selector64s_knewComputePipelineStateWithFunction_options_reflection_error_E, symObjAddr: 0x107CE0, symBinAddr: 0x100041138, symSize: 0x0 }
  - { offset: 0x46E81, size: 0x8, addend: 0x0, symName: __ZN3MTL7Private8Selector46s_knewCounterSampleBufferWithDescriptor_error_E, symObjAddr: 0x107CE8, symBinAddr: 0x100041140, symSize: 0x0 }
  - { offset: 0x46E9C, size: 0x8, addend: 0x0, symName: __ZN3MTL7Private8Selector20s_knewDefaultLibraryE, symObjAddr: 0x107CF0, symBinAddr: 0x100041148, symSize: 0x0 }
  - { offset: 0x46EB7, size: 0x8, addend: 0x0, symName: __ZN3MTL7Private8Selector37s_knewDefaultLibraryWithBundle_error_E, symObjAddr: 0x107CF8, symBinAddr: 0x100041150, symSize: 0x0 }
  - { offset: 0x46ED2, size: 0x8, addend: 0x0, symName: __ZN3MTL7Private8Selector38s_knewDepthStencilStateWithDescriptor_E, symObjAddr: 0x107D00, symBinAddr: 0x100041158, symSize: 0x0 }
  - { offset: 0x46EED, size: 0x8, addend: 0x0, symName: __ZN3MTL7Private8Selector27s_knewDynamicLibrary_error_E, symObjAddr: 0x107D08, symBinAddr: 0x100041160, symSize: 0x0 }
  - { offset: 0x46F08, size: 0x8, addend: 0x0, symName: __ZN3MTL7Private8Selector34s_knewDynamicLibraryWithURL_error_E, symObjAddr: 0x107D10, symBinAddr: 0x100041168, symSize: 0x0 }
  - { offset: 0x46F23, size: 0x8, addend: 0x0, symName: __ZN3MTL7Private8Selector11s_knewEventE, symObjAddr: 0x107D18, symBinAddr: 0x100041170, symSize: 0x0 }
  - { offset: 0x46F3E, size: 0x8, addend: 0x0, symName: __ZN3MTL7Private8Selector11s_knewFenceE, symObjAddr: 0x107D20, symBinAddr: 0x100041178, symSize: 0x0 }
  - { offset: 0x46F59, size: 0x8, addend: 0x0, symName: __ZN3MTL7Private8Selector47s_knewFunctionWithDescriptor_completionHandler_E, symObjAddr: 0x107D28, symBinAddr: 0x100041180, symSize: 0x0 }
  - { offset: 0x46F74, size: 0x8, addend: 0x0, symName: __ZN3MTL7Private8Selector35s_knewFunctionWithDescriptor_error_E, symObjAddr: 0x107D30, symBinAddr: 0x100041188, symSize: 0x0 }
  - { offset: 0x46F8F, size: 0x8, addend: 0x0, symName: __ZN3MTL7Private8Selector23s_knewFunctionWithName_E, symObjAddr: 0x107D38, symBinAddr: 0x100041190, symSize: 0x0 }
  - { offset: 0x46FAA, size: 0x8, addend: 0x0, symName: __ZN3MTL7Private8Selector56s_knewFunctionWithName_constantValues_completionHandler_E, symObjAddr: 0x107D40, symBinAddr: 0x100041198, symSize: 0x0 }
  - { offset: 0x46FC5, size: 0x8, addend: 0x0, symName: __ZN3MTL7Private8Selector44s_knewFunctionWithName_constantValues_error_E, symObjAddr: 0x107D48, symBinAddr: 0x1000411A0, symSize: 0x0 }
  - { offset: 0x46FE0, size: 0x8, addend: 0x0, symName: __ZN3MTL7Private8Selector25s_knewHeapWithDescriptor_E, symObjAddr: 0x107D50, symBinAddr: 0x1000411A8, symSize: 0x0 }
  - { offset: 0x46FFB, size: 0x8, addend: 0x0, symName: __ZN3MTL7Private8Selector41s_knewIOCommandQueueWithDescriptor_error_E, symObjAddr: 0x107D58, symBinAddr: 0x1000411B0, symSize: 0x0 }
  - { offset: 0x47016, size: 0x8, addend: 0x0, symName: __ZN3MTL7Private8Selector50s_knewIOFileHandleWithURL_compressionMethod_error_E, symObjAddr: 0x107D60, symBinAddr: 0x1000411B8, symSize: 0x0 }
  - { offset: 0x47031, size: 0x8, addend: 0x0, symName: __ZN3MTL7Private8Selector32s_knewIOFileHandleWithURL_error_E, symObjAddr: 0x107D68, symBinAddr: 0x1000411C0, symSize: 0x0 }
  - { offset: 0x4704C, size: 0x8, addend: 0x0, symName: __ZN3MTL7Private8Selector46s_knewIOHandleWithURL_compressionMethod_error_E, symObjAddr: 0x107D70, symBinAddr: 0x1000411C8, symSize: 0x0 }
  - { offset: 0x47067, size: 0x8, addend: 0x0, symName: __ZN3MTL7Private8Selector28s_knewIOHandleWithURL_error_E, symObjAddr: 0x107D78, symBinAddr: 0x1000411D0, symSize: 0x0 }
  - { offset: 0x47082, size: 0x8, addend: 0x0, symName: __ZN3MTL7Private8Selector66s_knewIndirectCommandBufferWithDescriptor_maxCommandCount_options_E, symObjAddr: 0x107D80, symBinAddr: 0x1000411D8, symSize: 0x0 }
  - { offset: 0x4709D, size: 0x8, addend: 0x0, symName: __ZN3MTL7Private8Selector46s_knewIntersectionFunctionTableWithDescriptor_E, symObjAddr: 0x107D88, symBinAddr: 0x1000411E0, symSize: 0x0 }
  - { offset: 0x470B8, size: 0x8, addend: 0x0, symName: __ZN3MTL7Private8Selector52s_knewIntersectionFunctionTableWithDescriptor_stage_E, symObjAddr: 0x107D90, symBinAddr: 0x1000411E8, symSize: 0x0 }
  - { offset: 0x470D3, size: 0x8, addend: 0x0, symName: __ZN3MTL7Private8Selector59s_knewIntersectionFunctionWithDescriptor_completionHandler_E, symObjAddr: 0x107D98, symBinAddr: 0x1000411F0, symSize: 0x0 }
  - { offset: 0x470EE, size: 0x8, addend: 0x0, symName: __ZN3MTL7Private8Selector47s_knewIntersectionFunctionWithDescriptor_error_E, symObjAddr: 0x107DA0, symBinAddr: 0x1000411F8, symSize: 0x0 }
  - { offset: 0x47109, size: 0x8, addend: 0x0, symName: __ZN3MTL7Private8Selector28s_knewLibraryWithData_error_E, symObjAddr: 0x107DA8, symBinAddr: 0x100041200, symSize: 0x0 }
  - { offset: 0x47124, size: 0x8, addend: 0x0, symName: __ZN3MTL7Private8Selector28s_knewLibraryWithFile_error_E, symObjAddr: 0x107DB0, symBinAddr: 0x100041208, symSize: 0x0 }
  - { offset: 0x4713F, size: 0x8, addend: 0x0, symName: __ZN3MTL7Private8Selector50s_knewLibraryWithSource_options_completionHandler_E, symObjAddr: 0x107DB8, symBinAddr: 0x100041210, symSize: 0x0 }
  - { offset: 0x4715A, size: 0x8, addend: 0x0, symName: __ZN3MTL7Private8Selector38s_knewLibraryWithSource_options_error_E, symObjAddr: 0x107DC0, symBinAddr: 0x100041218, symSize: 0x0 }
  - { offset: 0x47175, size: 0x8, addend: 0x0, symName: __ZN3MTL7Private8Selector54s_knewLibraryWithStitchedDescriptor_completionHandler_E, symObjAddr: 0x107DC8, symBinAddr: 0x100041220, symSize: 0x0 }
  - { offset: 0x47190, size: 0x8, addend: 0x0, symName: __ZN3MTL7Private8Selector42s_knewLibraryWithStitchedDescriptor_error_E, symObjAddr: 0x107DD0, symBinAddr: 0x100041228, symSize: 0x0 }
  - { offset: 0x471AB, size: 0x8, addend: 0x0, symName: __ZN3MTL7Private8Selector27s_knewLibraryWithURL_error_E, symObjAddr: 0x107DD8, symBinAddr: 0x100041230, symSize: 0x0 }
  - { offset: 0x471C6, size: 0x8, addend: 0x0, symName: __ZN3MTL7Private8Selector41s_knewRasterizationRateMapWithDescriptor_E, symObjAddr: 0x107DE0, symBinAddr: 0x100041238, symSize: 0x0 }
  - { offset: 0x471E1, size: 0x8, addend: 0x0, symName: __ZN3MTL7Private8Selector32s_knewRemoteBufferViewForDevice_E, symObjAddr: 0x107DE8, symBinAddr: 0x100041240, symSize: 0x0 }
  - { offset: 0x471FC, size: 0x8, addend: 0x0, symName: __ZN3MTL7Private8Selector33s_knewRemoteTextureViewForDevice_E, symObjAddr: 0x107DF0, symBinAddr: 0x100041248, symSize: 0x0 }
  - { offset: 0x47217, size: 0x8, addend: 0x0, symName: __ZN3MTL7Private8Selector61s_knewRenderPipelineStateWithAdditionalBinaryFunctions_error_E, symObjAddr: 0x107DF8, symBinAddr: 0x100041250, symSize: 0x0 }
  - { offset: 0x47232, size: 0x8, addend: 0x0, symName: __ZN3MTL7Private8Selector58s_knewRenderPipelineStateWithDescriptor_completionHandler_E, symObjAddr: 0x107E00, symBinAddr: 0x100041258, symSize: 0x0 }
  - { offset: 0x4724D, size: 0x8, addend: 0x0, symName: __ZN3MTL7Private8Selector46s_knewRenderPipelineStateWithDescriptor_error_E, symObjAddr: 0x107E08, symBinAddr: 0x100041260, symSize: 0x0 }
  - { offset: 0x47268, size: 0x8, addend: 0x0, symName: __ZN3MTL7Private8Selector66s_knewRenderPipelineStateWithDescriptor_options_completionHandler_E, symObjAddr: 0x107E10, symBinAddr: 0x100041268, symSize: 0x0 }
  - { offset: 0x47283, size: 0x8, addend: 0x0, symName: __ZN3MTL7Private8Selector65s_knewRenderPipelineStateWithDescriptor_options_reflection_error_E, symObjAddr: 0x107E18, symBinAddr: 0x100041270, symSize: 0x0 }
  - { offset: 0x4729E, size: 0x8, addend: 0x0, symName: __ZN3MTL7Private8Selector70s_knewRenderPipelineStateWithMeshDescriptor_options_completionHandler_E, symObjAddr: 0x107E20, symBinAddr: 0x100041278, symSize: 0x0 }
  - { offset: 0x472B9, size: 0x8, addend: 0x0, symName: __ZN3MTL7Private8Selector69s_knewRenderPipelineStateWithMeshDescriptor_options_reflection_error_E, symObjAddr: 0x107E28, symBinAddr: 0x100041280, symSize: 0x0 }
  - { offset: 0x472D4, size: 0x8, addend: 0x0, symName: __ZN3MTL7Private8Selector70s_knewRenderPipelineStateWithTileDescriptor_options_completionHandler_E, symObjAddr: 0x107E30, symBinAddr: 0x100041288, symSize: 0x0 }
  - { offset: 0x472EF, size: 0x8, addend: 0x0, symName: __ZN3MTL7Private8Selector69s_knewRenderPipelineStateWithTileDescriptor_options_reflection_error_E, symObjAddr: 0x107E38, symBinAddr: 0x100041290, symSize: 0x0 }
  - { offset: 0x4730A, size: 0x8, addend: 0x0, symName: __ZN3MTL7Private8Selector33s_knewSamplerStateWithDescriptor_E, symObjAddr: 0x107E40, symBinAddr: 0x100041298, symSize: 0x0 }
  - { offset: 0x47325, size: 0x8, addend: 0x0, symName: __ZN3MTL7Private8Selector35s_knewScratchBufferWithMinimumSize_E, symObjAddr: 0x107E48, symBinAddr: 0x1000412A0, symSize: 0x0 }
  - { offset: 0x47340, size: 0x8, addend: 0x0, symName: __ZN3MTL7Private8Selector17s_knewSharedEventE, symObjAddr: 0x107E50, symBinAddr: 0x1000412A8, symSize: 0x0 }
  - { offset: 0x4735B, size: 0x8, addend: 0x0, symName: __ZN3MTL7Private8Selector23s_knewSharedEventHandleE, symObjAddr: 0x107E58, symBinAddr: 0x1000412B0, symSize: 0x0 }
  - { offset: 0x47376, size: 0x8, addend: 0x0, symName: __ZN3MTL7Private8Selector28s_knewSharedEventWithHandle_E, symObjAddr: 0x107E60, symBinAddr: 0x1000412B8, symSize: 0x0 }
  - { offset: 0x47391, size: 0x8, addend: 0x0, symName: __ZN3MTL7Private8Selector25s_knewSharedTextureHandleE, symObjAddr: 0x107E68, symBinAddr: 0x1000412C0, symSize: 0x0 }
  - { offset: 0x473AC, size: 0x8, addend: 0x0, symName: __ZN3MTL7Private8Selector34s_knewSharedTextureWithDescriptor_E, symObjAddr: 0x107E70, symBinAddr: 0x1000412C8, symSize: 0x0 }
  - { offset: 0x473C7, size: 0x8, addend: 0x0, symName: __ZN3MTL7Private8Selector30s_knewSharedTextureWithHandle_E, symObjAddr: 0x107E78, symBinAddr: 0x1000412D0, symSize: 0x0 }
  - { offset: 0x473E2, size: 0x8, addend: 0x0, symName: __ZN3MTL7Private8Selector33s_knewTextureViewWithPixelFormat_E, symObjAddr: 0x107E80, symBinAddr: 0x1000412D8, symSize: 0x0 }
  - { offset: 0x473FD, size: 0x8, addend: 0x0, symName: __ZN3MTL7Private8Selector59s_knewTextureViewWithPixelFormat_textureType_levels_slices_E, symObjAddr: 0x107E88, symBinAddr: 0x1000412E0, symSize: 0x0 }
  - { offset: 0x47418, size: 0x8, addend: 0x0, symName: __ZN3MTL7Private8Selector67s_knewTextureViewWithPixelFormat_textureType_levels_slices_swizzle_E, symObjAddr: 0x107E90, symBinAddr: 0x1000412E8, symSize: 0x0 }
  - { offset: 0x47433, size: 0x8, addend: 0x0, symName: __ZN3MTL7Private8Selector28s_knewTextureWithDescriptor_E, symObjAddr: 0x107E98, symBinAddr: 0x1000412F0, symSize: 0x0 }
  - { offset: 0x4744E, size: 0x8, addend: 0x0, symName: __ZN3MTL7Private8Selector44s_knewTextureWithDescriptor_iosurface_plane_E, symObjAddr: 0x107EA0, symBinAddr: 0x1000412F8, symSize: 0x0 }
  - { offset: 0x47469, size: 0x8, addend: 0x0, symName: __ZN3MTL7Private8Selector35s_knewTextureWithDescriptor_offset_E, symObjAddr: 0x107EA8, symBinAddr: 0x100041300, symSize: 0x0 }
  - { offset: 0x47484, size: 0x8, addend: 0x0, symName: __ZN3MTL7Private8Selector47s_knewTextureWithDescriptor_offset_bytesPerRow_E, symObjAddr: 0x107EB0, symBinAddr: 0x100041308, symSize: 0x0 }
  - { offset: 0x4749F, size: 0x8, addend: 0x0, symName: __ZN3MTL7Private8Selector41s_knewVisibleFunctionTableWithDescriptor_E, symObjAddr: 0x107EB8, symBinAddr: 0x100041310, symSize: 0x0 }
  - { offset: 0x474BA, size: 0x8, addend: 0x0, symName: __ZN3MTL7Private8Selector47s_knewVisibleFunctionTableWithDescriptor_stage_E, symObjAddr: 0x107EC0, symBinAddr: 0x100041318, symSize: 0x0 }
  - { offset: 0x474D5, size: 0x8, addend: 0x0, symName: __ZN3MTL7Private8Selector8s_knodesE, symObjAddr: 0x107EC8, symBinAddr: 0x100041320, symSize: 0x0 }
  - { offset: 0x474F0, size: 0x8, addend: 0x0, symName: __ZN3MTL7Private8Selector24s_knormalizedCoordinatesE, symObjAddr: 0x107ED0, symBinAddr: 0x100041328, symSize: 0x0 }
  - { offset: 0x4750B, size: 0x8, addend: 0x0, symName: __ZN3MTL7Private8Selector32s_knotifyListener_atValue_block_E, symObjAddr: 0x107ED8, symBinAddr: 0x100041330, symSize: 0x0 }
  - { offset: 0x47526, size: 0x8, addend: 0x0, symName: __ZN3MTL7Private8Selector28s_kobjectAtIndexedSubscript_E, symObjAddr: 0x107EE0, symBinAddr: 0x100041338, symSize: 0x0 }
  - { offset: 0x47541, size: 0x8, addend: 0x0, symName: __ZN3MTL7Private8Selector17s_kobjectBindingsE, symObjAddr: 0x107EE8, symBinAddr: 0x100041340, symSize: 0x0 }
  - { offset: 0x4755C, size: 0x8, addend: 0x0, symName: __ZN3MTL7Private8Selector16s_kobjectBuffersE, symObjAddr: 0x107EF0, symBinAddr: 0x100041348, symSize: 0x0 }
  - { offset: 0x47577, size: 0x8, addend: 0x0, symName: __ZN3MTL7Private8Selector17s_kobjectFunctionE, symObjAddr: 0x107EF8, symBinAddr: 0x100041350, symSize: 0x0 }
  - { offset: 0x47592, size: 0x8, addend: 0x0, symName: __ZN3MTL7Private8Selector24s_kobjectLinkedFunctionsE, symObjAddr: 0x107F00, symBinAddr: 0x100041358, symSize: 0x0 }
  - { offset: 0x475AD, size: 0x8, addend: 0x0, symName: __ZN3MTL7Private8Selector25s_kobjectPayloadAlignmentE, symObjAddr: 0x107F08, symBinAddr: 0x100041360, symSize: 0x0 }
  - { offset: 0x475C8, size: 0x8, addend: 0x0, symName: __ZN3MTL7Private8Selector24s_kobjectPayloadDataSizeE, symObjAddr: 0x107F10, symBinAddr: 0x100041368, symSize: 0x0 }
  - { offset: 0x475E3, size: 0x8, addend: 0x0, symName: __ZN3MTL7Private8Selector29s_kobjectThreadExecutionWidthE, symObjAddr: 0x107F18, symBinAddr: 0x100041370, symSize: 0x0 }
  - { offset: 0x475FE, size: 0x8, addend: 0x0, symName: __ZN3MTL7Private8Selector56s_kobjectThreadgroupSizeIsMultipleOfThreadExecutionWidthE, symObjAddr: 0x107F20, symBinAddr: 0x100041378, symSize: 0x0 }
  - { offset: 0x47619, size: 0x8, addend: 0x0, symName: __ZN3MTL7Private8Selector9s_koffsetE, symObjAddr: 0x107F28, symBinAddr: 0x100041380, symSize: 0x0 }
  - { offset: 0x47634, size: 0x8, addend: 0x0, symName: __ZN3MTL7Private8Selector9s_kopaqueE, symObjAddr: 0x107F30, symBinAddr: 0x100041388, symSize: 0x0 }
  - { offset: 0x4764F, size: 0x8, addend: 0x0, symName: __ZN3MTL7Private8Selector20s_koptimizationLevelE, symObjAddr: 0x107F38, symBinAddr: 0x100041390, symSize: 0x0 }
  - { offset: 0x4766A, size: 0x8, addend: 0x0, symName: __ZN3MTL7Private8Selector32s_koptimizeContentsForCPUAccess_E, symObjAddr: 0x107F40, symBinAddr: 0x100041398, symSize: 0x0 }
  - { offset: 0x47685, size: 0x8, addend: 0x0, symName: __ZN3MTL7Private8Selector44s_koptimizeContentsForCPUAccess_slice_level_E, symObjAddr: 0x107F48, symBinAddr: 0x1000413A0, symSize: 0x0 }
  - { offset: 0x476A0, size: 0x8, addend: 0x0, symName: __ZN3MTL7Private8Selector32s_koptimizeContentsForGPUAccess_E, symObjAddr: 0x107F50, symBinAddr: 0x1000413A8, symSize: 0x0 }
  - { offset: 0x476BB, size: 0x8, addend: 0x0, symName: __ZN3MTL7Private8Selector44s_koptimizeContentsForGPUAccess_slice_level_E, symObjAddr: 0x107F58, symBinAddr: 0x1000413B0, symSize: 0x0 }
  - { offset: 0x476D6, size: 0x8, addend: 0x0, symName: __ZN3MTL7Private8Selector43s_koptimizeIndirectCommandBuffer_withRange_E, symObjAddr: 0x107F60, symBinAddr: 0x1000413B8, symSize: 0x0 }
  - { offset: 0x476F1, size: 0x8, addend: 0x0, symName: __ZN3MTL7Private8Selector10s_koptionsE, symObjAddr: 0x107F68, symBinAddr: 0x1000413C0, symSize: 0x0 }
  - { offset: 0x4770C, size: 0x8, addend: 0x0, symName: __ZN3MTL7Private8Selector13s_koutputNodeE, symObjAddr: 0x107F70, symBinAddr: 0x1000413C8, symSize: 0x0 }
  - { offset: 0x47727, size: 0x8, addend: 0x0, symName: __ZN3MTL7Private8Selector12s_koutputURLE, symObjAddr: 0x107F78, symBinAddr: 0x1000413D0, symSize: 0x0 }
  - { offset: 0x47742, size: 0x8, addend: 0x0, symName: __ZN3MTL7Private8Selector46s_kparallelRenderCommandEncoderWithDescriptor_E, symObjAddr: 0x107F80, symBinAddr: 0x1000413D8, symSize: 0x0 }
  - { offset: 0x4775D, size: 0x8, addend: 0x0, symName: __ZN3MTL7Private8Selector30s_kparameterBufferSizeAndAlignE, symObjAddr: 0x107F88, symBinAddr: 0x1000413E0, symSize: 0x0 }
  - { offset: 0x47778, size: 0x8, addend: 0x0, symName: __ZN3MTL7Private8Selector22s_kparentRelativeLevelE, symObjAddr: 0x107F90, symBinAddr: 0x1000413E8, symSize: 0x0 }
  - { offset: 0x47793, size: 0x8, addend: 0x0, symName: __ZN3MTL7Private8Selector22s_kparentRelativeSliceE, symObjAddr: 0x107F98, symBinAddr: 0x1000413F0, symSize: 0x0 }
  - { offset: 0x477AE, size: 0x8, addend: 0x0, symName: __ZN3MTL7Private8Selector16s_kparentTextureE, symObjAddr: 0x107FA0, symBinAddr: 0x1000413F8, symSize: 0x0 }
  - { offset: 0x477C9, size: 0x8, addend: 0x0, symName: __ZN3MTL7Private8Selector25s_kpatchControlPointCountE, symObjAddr: 0x107FA8, symBinAddr: 0x100041400, symSize: 0x0 }
  - { offset: 0x477E4, size: 0x8, addend: 0x0, symName: __ZN3MTL7Private8Selector12s_kpatchTypeE, symObjAddr: 0x107FB0, symBinAddr: 0x100041408, symSize: 0x0 }
  - { offset: 0x477FF, size: 0x8, addend: 0x0, symName: __ZN3MTL7Private8Selector22s_kpayloadMemoryLengthE, symObjAddr: 0x107FB8, symBinAddr: 0x100041410, symSize: 0x0 }
  - { offset: 0x4781A, size: 0x8, addend: 0x0, symName: __ZN3MTL7Private8Selector12s_kpeerCountE, symObjAddr: 0x107FC0, symBinAddr: 0x100041418, symSize: 0x0 }
  - { offset: 0x47835, size: 0x8, addend: 0x0, symName: __ZN3MTL7Private8Selector14s_kpeerGroupIDE, symObjAddr: 0x107FC8, symBinAddr: 0x100041420, symSize: 0x0 }
  - { offset: 0x47850, size: 0x8, addend: 0x0, symName: __ZN3MTL7Private8Selector12s_kpeerIndexE, symObjAddr: 0x107FD0, symBinAddr: 0x100041428, symSize: 0x0 }
  - { offset: 0x4786B, size: 0x8, addend: 0x0, symName: __ZN3MTL7Private8Selector22s_kphysicalGranularityE, symObjAddr: 0x107FD8, symBinAddr: 0x100041430, symSize: 0x0 }
  - { offset: 0x47886, size: 0x8, addend: 0x0, symName: __ZN3MTL7Private8Selector24s_kphysicalSizeForLayer_E, symObjAddr: 0x107FE0, symBinAddr: 0x100041438, symSize: 0x0 }
  - { offset: 0x478A1, size: 0x8, addend: 0x0, symName: __ZN3MTL7Private8Selector14s_kpixelFormatE, symObjAddr: 0x107FE8, symBinAddr: 0x100041440, symSize: 0x0 }
  - { offset: 0x478BC, size: 0x8, addend: 0x0, symName: __ZN3MTL7Private8Selector14s_kpointerTypeE, symObjAddr: 0x107FF0, symBinAddr: 0x100041448, symSize: 0x0 }
  - { offset: 0x478D7, size: 0x8, addend: 0x0, symName: __ZN3MTL7Private8Selector16s_kpopDebugGroupE, symObjAddr: 0x107FF8, symBinAddr: 0x100041450, symSize: 0x0 }
  - { offset: 0x478F2, size: 0x8, addend: 0x0, symName: __ZN3MTL7Private8Selector21s_kpreloadedLibrariesE, symObjAddr: 0x108000, symBinAddr: 0x100041458, symSize: 0x0 }
  - { offset: 0x4790D, size: 0x8, addend: 0x0, symName: __ZN3MTL7Private8Selector21s_kpreprocessorMacrosE, symObjAddr: 0x108008, symBinAddr: 0x100041460, symSize: 0x0 }
  - { offset: 0x47928, size: 0x8, addend: 0x0, symName: __ZN3MTL7Private8Selector10s_kpresentE, symObjAddr: 0x108010, symBinAddr: 0x100041468, symSize: 0x0 }
  - { offset: 0x47943, size: 0x8, addend: 0x0, symName: __ZN3MTL7Private8Selector31s_kpresentAfterMinimumDuration_E, symObjAddr: 0x108018, symBinAddr: 0x100041470, symSize: 0x0 }
  - { offset: 0x4795E, size: 0x8, addend: 0x0, symName: __ZN3MTL7Private8Selector17s_kpresentAtTime_E, symObjAddr: 0x108020, symBinAddr: 0x100041478, symSize: 0x0 }
  - { offset: 0x47979, size: 0x8, addend: 0x0, symName: __ZN3MTL7Private8Selector19s_kpresentDrawable_E, symObjAddr: 0x108028, symBinAddr: 0x100041480, symSize: 0x0 }
  - { offset: 0x47994, size: 0x8, addend: 0x0, symName: __ZN3MTL7Private8Selector40s_kpresentDrawable_afterMinimumDuration_E, symObjAddr: 0x108030, symBinAddr: 0x100041488, symSize: 0x0 }
  - { offset: 0x479AF, size: 0x8, addend: 0x0, symName: __ZN3MTL7Private8Selector26s_kpresentDrawable_atTime_E, symObjAddr: 0x108038, symBinAddr: 0x100041490, symSize: 0x0 }
  - { offset: 0x479CA, size: 0x8, addend: 0x0, symName: __ZN3MTL7Private8Selector16s_kpresentedTimeE, symObjAddr: 0x108040, symBinAddr: 0x100041498, symSize: 0x0 }
  - { offset: 0x479E5, size: 0x8, addend: 0x0, symName: __ZN3MTL7Private8Selector21s_kpreserveInvarianceE, symObjAddr: 0x108048, symBinAddr: 0x1000414A0, symSize: 0x0 }
  - { offset: 0x47A00, size: 0x8, addend: 0x0, symName: __ZN3MTL7Private8Selector22s_kprimitiveDataBufferE, symObjAddr: 0x108050, symBinAddr: 0x1000414A8, symSize: 0x0 }
  - { offset: 0x47A1B, size: 0x8, addend: 0x0, symName: __ZN3MTL7Private8Selector28s_kprimitiveDataBufferOffsetE, symObjAddr: 0x108058, symBinAddr: 0x1000414B0, symSize: 0x0 }
  - { offset: 0x47A36, size: 0x8, addend: 0x0, symName: __ZN3MTL7Private8Selector27s_kprimitiveDataElementSizeE, symObjAddr: 0x108060, symBinAddr: 0x1000414B8, symSize: 0x0 }
  - { offset: 0x47A51, size: 0x8, addend: 0x0, symName: __ZN3MTL7Private8Selector22s_kprimitiveDataStrideE, symObjAddr: 0x108068, symBinAddr: 0x1000414C0, symSize: 0x0 }
  - { offset: 0x47A6C, size: 0x8, addend: 0x0, symName: __ZN3MTL7Private8Selector11s_kpriorityE, symObjAddr: 0x108070, symBinAddr: 0x1000414C8, symSize: 0x0 }
  - { offset: 0x47A87, size: 0x8, addend: 0x0, symName: __ZN3MTL7Private8Selector19s_kprivateFunctionsE, symObjAddr: 0x108078, symBinAddr: 0x1000414D0, symSize: 0x0 }
  - { offset: 0x47AA2, size: 0x8, addend: 0x0, symName: __ZN3MTL7Private8Selector18s_kpushDebugGroup_E, symObjAddr: 0x108080, symBinAddr: 0x1000414D8, symSize: 0x0 }
  - { offset: 0x47ABD, size: 0x8, addend: 0x0, symName: __ZN3MTL7Private8Selector15s_krAddressModeE, symObjAddr: 0x108088, symBinAddr: 0x1000414E0, symSize: 0x0 }
  - { offset: 0x47AD8, size: 0x8, addend: 0x0, symName: __ZN3MTL7Private8Selector15s_kradiusBufferE, symObjAddr: 0x108090, symBinAddr: 0x1000414E8, symSize: 0x0 }
  - { offset: 0x47AF3, size: 0x8, addend: 0x0, symName: __ZN3MTL7Private8Selector21s_kradiusBufferOffsetE, symObjAddr: 0x108098, symBinAddr: 0x1000414F0, symSize: 0x0 }
  - { offset: 0x47B0E, size: 0x8, addend: 0x0, symName: __ZN3MTL7Private8Selector16s_kradiusBuffersE, symObjAddr: 0x1080A0, symBinAddr: 0x1000414F8, symSize: 0x0 }
  - { offset: 0x47B29, size: 0x8, addend: 0x0, symName: __ZN3MTL7Private8Selector15s_kradiusFormatE, symObjAddr: 0x1080A8, symBinAddr: 0x100041500, symSize: 0x0 }
  - { offset: 0x47B44, size: 0x8, addend: 0x0, symName: __ZN3MTL7Private8Selector15s_kradiusStrideE, symObjAddr: 0x1080B0, symBinAddr: 0x100041508, symSize: 0x0 }
  - { offset: 0x47B5F, size: 0x8, addend: 0x0, symName: __ZN3MTL7Private8Selector20s_krasterSampleCountE, symObjAddr: 0x1080B8, symBinAddr: 0x100041510, symSize: 0x0 }
  - { offset: 0x47B7A, size: 0x8, addend: 0x0, symName: __ZN3MTL7Private8Selector23s_krasterizationRateMapE, symObjAddr: 0x1080C0, symBinAddr: 0x100041518, symSize: 0x0 }
  - { offset: 0x47B95, size: 0x8, addend: 0x0, symName: __ZN3MTL7Private8Selector48s_krasterizationRateMapDescriptorWithScreenSize_E, symObjAddr: 0x1080C8, symBinAddr: 0x100041520, symSize: 0x0 }
  - { offset: 0x47BB0, size: 0x8, addend: 0x0, symName: __ZN3MTL7Private8Selector54s_krasterizationRateMapDescriptorWithScreenSize_layer_E, symObjAddr: 0x1080D0, symBinAddr: 0x100041528, symSize: 0x0 }
  - { offset: 0x47BCB, size: 0x8, addend: 0x0, symName: __ZN3MTL7Private8Selector66s_krasterizationRateMapDescriptorWithScreenSize_layerCount_layers_E, symObjAddr: 0x1080D8, symBinAddr: 0x100041530, symSize: 0x0 }
  - { offset: 0x47BE6, size: 0x8, addend: 0x0, symName: __ZN3MTL7Private8Selector11s_kreadMaskE, symObjAddr: 0x1080E0, symBinAddr: 0x100041538, symSize: 0x0 }
  - { offset: 0x47C01, size: 0x8, addend: 0x0, symName: __ZN3MTL7Private8Selector26s_kreadWriteTextureSupportE, symObjAddr: 0x1080E8, symBinAddr: 0x100041540, symSize: 0x0 }
  - { offset: 0x47C1C, size: 0x8, addend: 0x0, symName: __ZN3MTL7Private8Selector31s_krecommendedMaxWorkingSetSizeE, symObjAddr: 0x1080F0, symBinAddr: 0x100041548, symSize: 0x0 }
  - { offset: 0x47C37, size: 0x8, addend: 0x0, symName: __ZN3MTL7Private8Selector87s_krefitAccelerationStructure_descriptor_destination_scratchBuffer_scratchBufferOffset_E, symObjAddr: 0x1080F8, symBinAddr: 0x100041550, symSize: 0x0 }
  - { offset: 0x47C52, size: 0x8, addend: 0x0, symName: __ZN3MTL7Private8Selector95s_krefitAccelerationStructure_descriptor_destination_scratchBuffer_scratchBufferOffset_options_E, symObjAddr: 0x108100, symBinAddr: 0x100041558, symSize: 0x0 }
  - { offset: 0x47C6D, size: 0x8, addend: 0x0, symName: __ZN3MTL7Private8Selector13s_kregistryIDE, symObjAddr: 0x108108, symBinAddr: 0x100041560, symSize: 0x0 }
  - { offset: 0x47C88, size: 0x8, addend: 0x0, symName: __ZN3MTL7Private8Selector22s_kremoteStorageBufferE, symObjAddr: 0x108110, symBinAddr: 0x100041568, symSize: 0x0 }
  - { offset: 0x47CA3, size: 0x8, addend: 0x0, symName: __ZN3MTL7Private8Selector23s_kremoteStorageTextureE, symObjAddr: 0x108118, symBinAddr: 0x100041570, symSize: 0x0 }
  - { offset: 0x47CBE, size: 0x8, addend: 0x0, symName: __ZN3MTL7Private8Selector24s_kremoveAllDebugMarkersE, symObjAddr: 0x108120, symBinAddr: 0x100041578, symSize: 0x0 }
  - { offset: 0x47CD9, size: 0x8, addend: 0x0, symName: __ZN3MTL7Private8Selector23s_krenderCommandEncoderE, symObjAddr: 0x108128, symBinAddr: 0x100041580, symSize: 0x0 }
  - { offset: 0x47CF4, size: 0x8, addend: 0x0, symName: __ZN3MTL7Private8Selector38s_krenderCommandEncoderWithDescriptor_E, symObjAddr: 0x108130, symBinAddr: 0x100041588, symSize: 0x0 }
  - { offset: 0x47D0F, size: 0x8, addend: 0x0, symName: __ZN3MTL7Private8Selector23s_krenderPassDescriptorE, symObjAddr: 0x108138, symBinAddr: 0x100041590, symSize: 0x0 }
  - { offset: 0x47D2A, size: 0x8, addend: 0x0, symName: __ZN3MTL7Private8Selector26s_krenderTargetArrayLengthE, symObjAddr: 0x108140, symBinAddr: 0x100041598, symSize: 0x0 }
  - { offset: 0x47D45, size: 0x8, addend: 0x0, symName: __ZN3MTL7Private8Selector21s_krenderTargetHeightE, symObjAddr: 0x108148, symBinAddr: 0x1000415A0, symSize: 0x0 }
  - { offset: 0x47D60, size: 0x8, addend: 0x0, symName: __ZN3MTL7Private8Selector20s_krenderTargetWidthE, symObjAddr: 0x108150, symBinAddr: 0x1000415A8, symSize: 0x0 }
  - { offset: 0x47D7B, size: 0x8, addend: 0x0, symName: __ZN3MTL7Private8Selector71s_kreplaceRegion_mipmapLevel_slice_withBytes_bytesPerRow_bytesPerImage_E, symObjAddr: 0x108158, symBinAddr: 0x1000415B0, symSize: 0x0 }
  - { offset: 0x47D96, size: 0x8, addend: 0x0, symName: __ZN3MTL7Private8Selector51s_kreplaceRegion_mipmapLevel_withBytes_bytesPerRow_E, symObjAddr: 0x108160, symBinAddr: 0x1000415B8, symSize: 0x0 }
  - { offset: 0x47DB1, size: 0x8, addend: 0x0, symName: __ZN3MTL7Private8Selector11s_krequiredE, symObjAddr: 0x108168, symBinAddr: 0x1000415C0, symSize: 0x0 }
  - { offset: 0x47DCC, size: 0x8, addend: 0x0, symName: __ZN3MTL7Private8Selector8s_kresetE, symObjAddr: 0x108170, symBinAddr: 0x1000415C8, symSize: 0x0 }
  - { offset: 0x47DE7, size: 0x8, addend: 0x0, symName: __ZN3MTL7Private8Selector35s_kresetCommandsInBuffer_withRange_E, symObjAddr: 0x108178, symBinAddr: 0x1000415D0, symSize: 0x0 }
  - { offset: 0x47E02, size: 0x8, addend: 0x0, symName: __ZN3MTL7Private8Selector52s_kresetTextureAccessCounters_region_mipLevel_slice_E, symObjAddr: 0x108180, symBinAddr: 0x1000415D8, symSize: 0x0 }
  - { offset: 0x47E1D, size: 0x8, addend: 0x0, symName: __ZN3MTL7Private8Selector18s_kresetWithRange_E, symObjAddr: 0x108188, symBinAddr: 0x1000415E0, symSize: 0x0 }
  - { offset: 0x47E38, size: 0x8, addend: 0x0, symName: __ZN3MTL7Private8Selector23s_kresolveCounterRange_E, symObjAddr: 0x108190, symBinAddr: 0x1000415E8, symSize: 0x0 }
  - { offset: 0x47E53, size: 0x8, addend: 0x0, symName: __ZN3MTL7Private8Selector63s_kresolveCounters_inRange_destinationBuffer_destinationOffset_E, symObjAddr: 0x108198, symBinAddr: 0x1000415F0, symSize: 0x0 }
  - { offset: 0x47E6E, size: 0x8, addend: 0x0, symName: __ZN3MTL7Private8Selector20s_kresolveDepthPlaneE, symObjAddr: 0x1081A0, symBinAddr: 0x1000415F8, symSize: 0x0 }
  - { offset: 0x47E89, size: 0x8, addend: 0x0, symName: __ZN3MTL7Private8Selector15s_kresolveLevelE, symObjAddr: 0x1081A8, symBinAddr: 0x100041600, symSize: 0x0 }
  - { offset: 0x47EA4, size: 0x8, addend: 0x0, symName: __ZN3MTL7Private8Selector15s_kresolveSliceE, symObjAddr: 0x1081B0, symBinAddr: 0x100041608, symSize: 0x0 }
  - { offset: 0x47EBF, size: 0x8, addend: 0x0, symName: __ZN3MTL7Private8Selector17s_kresolveTextureE, symObjAddr: 0x1081B8, symBinAddr: 0x100041610, symSize: 0x0 }
  - { offset: 0x47EDA, size: 0x8, addend: 0x0, symName: __ZN3MTL7Private8Selector18s_kresourceOptionsE, symObjAddr: 0x1081C0, symBinAddr: 0x100041618, symSize: 0x0 }
  - { offset: 0x47EF5, size: 0x8, addend: 0x0, symName: __ZN3MTL7Private8Selector30s_kresourceStateCommandEncoderE, symObjAddr: 0x1081C8, symBinAddr: 0x100041620, symSize: 0x0 }
  - { offset: 0x47F10, size: 0x8, addend: 0x0, symName: __ZN3MTL7Private8Selector45s_kresourceStateCommandEncoderWithDescriptor_E, symObjAddr: 0x1081D0, symBinAddr: 0x100041628, symSize: 0x0 }
  - { offset: 0x47F2B, size: 0x8, addend: 0x0, symName: __ZN3MTL7Private8Selector30s_kresourceStatePassDescriptorE, symObjAddr: 0x1081D8, symBinAddr: 0x100041630, symSize: 0x0 }
  - { offset: 0x47F46, size: 0x8, addend: 0x0, symName: __ZN3MTL7Private8Selector21s_kretainedReferencesE, symObjAddr: 0x1081E0, symBinAddr: 0x100041638, symSize: 0x0 }
  - { offset: 0x47F61, size: 0x8, addend: 0x0, symName: __ZN3MTL7Private8Selector20s_krgbBlendOperationE, symObjAddr: 0x1081E8, symBinAddr: 0x100041640, symSize: 0x0 }
  - { offset: 0x47F7C, size: 0x8, addend: 0x0, symName: __ZN3MTL7Private8Selector15s_krootResourceE, symObjAddr: 0x1081F0, symBinAddr: 0x100041648, symSize: 0x0 }
  - { offset: 0x47F97, size: 0x8, addend: 0x0, symName: __ZN3MTL7Private8Selector15s_ksAddressModeE, symObjAddr: 0x1081F8, symBinAddr: 0x100041650, symSize: 0x0 }
  - { offset: 0x47FB2, size: 0x8, addend: 0x0, symName: __ZN3MTL7Private8Selector15s_ksampleBufferE, symObjAddr: 0x108200, symBinAddr: 0x100041658, symSize: 0x0 }
  - { offset: 0x47FCD, size: 0x8, addend: 0x0, symName: __ZN3MTL7Private8Selector26s_ksampleBufferAttachmentsE, symObjAddr: 0x108208, symBinAddr: 0x100041660, symSize: 0x0 }
  - { offset: 0x47FE8, size: 0x8, addend: 0x0, symName: __ZN3MTL7Private8Selector14s_ksampleCountE, symObjAddr: 0x108210, symBinAddr: 0x100041668, symSize: 0x0 }
  - { offset: 0x48003, size: 0x8, addend: 0x0, symName: __ZN3MTL7Private8Selector52s_ksampleCountersInBuffer_atSampleIndex_withBarrier_E, symObjAddr: 0x108218, symBinAddr: 0x100041670, symSize: 0x0 }
  - { offset: 0x4801E, size: 0x8, addend: 0x0, symName: __ZN3MTL7Private8Selector33s_ksampleTimestamps_gpuTimestamp_E, symObjAddr: 0x108220, symBinAddr: 0x100041678, symSize: 0x0 }
  - { offset: 0x48039, size: 0x8, addend: 0x0, symName: __ZN3MTL7Private8Selector25s_kscratchBufferAllocatorE, symObjAddr: 0x108228, symBinAddr: 0x100041680, symSize: 0x0 }
  - { offset: 0x48054, size: 0x8, addend: 0x0, symName: __ZN3MTL7Private8Selector13s_kscreenSizeE, symObjAddr: 0x108230, symBinAddr: 0x100041688, symSize: 0x0 }
  - { offset: 0x4806F, size: 0x8, addend: 0x0, symName: __ZN3MTL7Private8Selector27s_ksegmentControlPointCountE, symObjAddr: 0x108238, symBinAddr: 0x100041690, symSize: 0x0 }
  - { offset: 0x4808A, size: 0x8, addend: 0x0, symName: __ZN3MTL7Private8Selector15s_ksegmentCountE, symObjAddr: 0x108240, symBinAddr: 0x100041698, symSize: 0x0 }
  - { offset: 0x480A5, size: 0x8, addend: 0x0, symName: __ZN3MTL7Private8Selector24s_kserializeToURL_error_E, symObjAddr: 0x108248, symBinAddr: 0x1000416A0, symSize: 0x0 }
  - { offset: 0x480C0, size: 0x8, addend: 0x0, symName: __ZN3MTL7Private8Selector42s_ksetAccelerationStructure_atBufferIndex_E, symObjAddr: 0x108250, symBinAddr: 0x1000416A8, symSize: 0x0 }
  - { offset: 0x480DB, size: 0x8, addend: 0x0, symName: __ZN3MTL7Private8Selector36s_ksetAccelerationStructure_atIndex_E, symObjAddr: 0x108258, symBinAddr: 0x1000416B0, symSize: 0x0 }
  - { offset: 0x480F6, size: 0x8, addend: 0x0, symName: __ZN3MTL7Private8Selector13s_ksetAccess_E, symObjAddr: 0x108260, symBinAddr: 0x1000416B8, symSize: 0x0 }
  - { offset: 0x48111, size: 0x8, addend: 0x0, symName: __ZN3MTL7Private8Selector51s_ksetAllowDuplicateIntersectionFunctionInvocation_E, symObjAddr: 0x108268, symBinAddr: 0x1000416C0, symSize: 0x0 }
  - { offset: 0x4812C, size: 0x8, addend: 0x0, symName: __ZN3MTL7Private8Selector32s_ksetAllowGPUOptimizedContents_E, symObjAddr: 0x108270, symBinAddr: 0x1000416C8, symSize: 0x0 }
  - { offset: 0x48147, size: 0x8, addend: 0x0, symName: __ZN3MTL7Private8Selector39s_ksetAllowReferencingUndefinedSymbols_E, symObjAddr: 0x108278, symBinAddr: 0x1000416D0, symSize: 0x0 }
  - { offset: 0x48162, size: 0x8, addend: 0x0, symName: __ZN3MTL7Private8Selector26s_ksetAlphaBlendOperation_E, symObjAddr: 0x108280, symBinAddr: 0x1000416D8, symSize: 0x0 }
  - { offset: 0x4817D, size: 0x8, addend: 0x0, symName: __ZN3MTL7Private8Selector29s_ksetAlphaToCoverageEnabled_E, symObjAddr: 0x108288, symBinAddr: 0x1000416E0, symSize: 0x0 }
  - { offset: 0x48198, size: 0x8, addend: 0x0, symName: __ZN3MTL7Private8Selector24s_ksetAlphaToOneEnabled_E, symObjAddr: 0x108290, symBinAddr: 0x1000416E8, symSize: 0x0 }
  - { offset: 0x481B3, size: 0x8, addend: 0x0, symName: __ZN3MTL7Private8Selector28s_ksetArgumentBuffer_offset_E, symObjAddr: 0x108298, symBinAddr: 0x1000416F0, symSize: 0x0 }
  - { offset: 0x481CE, size: 0x8, addend: 0x0, symName: __ZN3MTL7Private8Selector46s_ksetArgumentBuffer_startOffset_arrayElement_E, symObjAddr: 0x1082A0, symBinAddr: 0x1000416F8, symSize: 0x0 }
  - { offset: 0x481E9, size: 0x8, addend: 0x0, symName: __ZN3MTL7Private8Selector20s_ksetArgumentIndex_E, symObjAddr: 0x1082A8, symBinAddr: 0x100041700, symSize: 0x0 }
  - { offset: 0x48204, size: 0x8, addend: 0x0, symName: __ZN3MTL7Private8Selector16s_ksetArguments_E, symObjAddr: 0x1082B0, symBinAddr: 0x100041708, symSize: 0x0 }
  - { offset: 0x4821F, size: 0x8, addend: 0x0, symName: __ZN3MTL7Private8Selector18s_ksetArrayLength_E, symObjAddr: 0x1082B8, symBinAddr: 0x100041710, symSize: 0x0 }
  - { offset: 0x4823A, size: 0x8, addend: 0x0, symName: __ZN3MTL7Private8Selector17s_ksetAttributes_E, symObjAddr: 0x1082C0, symBinAddr: 0x100041718, symSize: 0x0 }
  - { offset: 0x48255, size: 0x8, addend: 0x0, symName: __ZN3MTL7Private8Selector22s_ksetBackFaceStencil_E, symObjAddr: 0x1082C8, symBinAddr: 0x100041720, symSize: 0x0 }
  - { offset: 0x48270, size: 0x8, addend: 0x0, symName: __ZN3MTL7Private8Selector13s_ksetBarrierE, symObjAddr: 0x1082D0, symBinAddr: 0x100041728, symSize: 0x0 }
  - { offset: 0x4828B, size: 0x8, addend: 0x0, symName: __ZN3MTL7Private8Selector21s_ksetBinaryArchives_E, symObjAddr: 0x1082D8, symBinAddr: 0x100041730, symSize: 0x0 }
  - { offset: 0x482A6, size: 0x8, addend: 0x0, symName: __ZN3MTL7Private8Selector22s_ksetBinaryFunctions_E, symObjAddr: 0x1082E0, symBinAddr: 0x100041738, symSize: 0x0 }
  - { offset: 0x482C1, size: 0x8, addend: 0x0, symName: __ZN3MTL7Private8Selector37s_ksetBlendColorRed_green_blue_alpha_E, symObjAddr: 0x1082E8, symBinAddr: 0x100041740, symSize: 0x0 }
  - { offset: 0x482DC, size: 0x8, addend: 0x0, symName: __ZN3MTL7Private8Selector22s_ksetBlendingEnabled_E, symObjAddr: 0x1082F0, symBinAddr: 0x100041748, symSize: 0x0 }
  - { offset: 0x482F7, size: 0x8, addend: 0x0, symName: __ZN3MTL7Private8Selector18s_ksetBorderColor_E, symObjAddr: 0x1082F8, symBinAddr: 0x100041750, symSize: 0x0 }
  - { offset: 0x48312, size: 0x8, addend: 0x0, symName: __ZN3MTL7Private8Selector24s_ksetBoundingBoxBuffer_E, symObjAddr: 0x108300, symBinAddr: 0x100041758, symSize: 0x0 }
  - { offset: 0x4832D, size: 0x8, addend: 0x0, symName: __ZN3MTL7Private8Selector30s_ksetBoundingBoxBufferOffset_E, symObjAddr: 0x108308, symBinAddr: 0x100041760, symSize: 0x0 }
  - { offset: 0x48348, size: 0x8, addend: 0x0, symName: __ZN3MTL7Private8Selector25s_ksetBoundingBoxBuffers_E, symObjAddr: 0x108310, symBinAddr: 0x100041768, symSize: 0x0 }
  - { offset: 0x48363, size: 0x8, addend: 0x0, symName: __ZN3MTL7Private8Selector23s_ksetBoundingBoxCount_E, symObjAddr: 0x108318, symBinAddr: 0x100041770, symSize: 0x0 }
  - { offset: 0x4837E, size: 0x8, addend: 0x0, symName: __ZN3MTL7Private8Selector24s_ksetBoundingBoxStride_E, symObjAddr: 0x108320, symBinAddr: 0x100041778, symSize: 0x0 }
  - { offset: 0x48399, size: 0x8, addend: 0x0, symName: __ZN3MTL7Private8Selector13s_ksetBuffer_E, symObjAddr: 0x108328, symBinAddr: 0x100041780, symSize: 0x0 }
  - { offset: 0x483B4, size: 0x8, addend: 0x0, symName: __ZN3MTL7Private8Selector28s_ksetBuffer_offset_atIndex_E, symObjAddr: 0x108330, symBinAddr: 0x100041788, symSize: 0x0 }
  - { offset: 0x483CF, size: 0x8, addend: 0x0, symName: __ZN3MTL7Private8Selector44s_ksetBuffer_offset_attributeStride_atIndex_E, symObjAddr: 0x108338, symBinAddr: 0x100041790, symSize: 0x0 }
  - { offset: 0x483EA, size: 0x8, addend: 0x0, symName: __ZN3MTL7Private8Selector18s_ksetBufferIndex_E, symObjAddr: 0x108340, symBinAddr: 0x100041798, symSize: 0x0 }
  - { offset: 0x48405, size: 0x8, addend: 0x0, symName: __ZN3MTL7Private8Selector27s_ksetBufferOffset_atIndex_E, symObjAddr: 0x108348, symBinAddr: 0x1000417A0, symSize: 0x0 }
  - { offset: 0x48420, size: 0x8, addend: 0x0, symName: __ZN3MTL7Private8Selector43s_ksetBufferOffset_attributeStride_atIndex_E, symObjAddr: 0x108350, symBinAddr: 0x1000417A8, symSize: 0x0 }
  - { offset: 0x4843B, size: 0x8, addend: 0x0, symName: __ZN3MTL7Private8Selector49s_ksetBuffers_offsets_attributeStrides_withRange_E, symObjAddr: 0x108358, symBinAddr: 0x1000417B0, symSize: 0x0 }
  - { offset: 0x48456, size: 0x8, addend: 0x0, symName: __ZN3MTL7Private8Selector32s_ksetBuffers_offsets_withRange_E, symObjAddr: 0x108360, symBinAddr: 0x1000417B8, symSize: 0x0 }
  - { offset: 0x48471, size: 0x8, addend: 0x0, symName: __ZN3MTL7Private8Selector27s_ksetBytes_length_atIndex_E, symObjAddr: 0x108368, symBinAddr: 0x1000417C0, symSize: 0x0 }
  - { offset: 0x4848C, size: 0x8, addend: 0x0, symName: __ZN3MTL7Private8Selector43s_ksetBytes_length_attributeStride_atIndex_E, symObjAddr: 0x108370, symBinAddr: 0x1000417C8, symSize: 0x0 }
  - { offset: 0x484A7, size: 0x8, addend: 0x0, symName: __ZN3MTL7Private8Selector20s_ksetCaptureObject_E, symObjAddr: 0x108378, symBinAddr: 0x1000417D0, symSize: 0x0 }
  - { offset: 0x484C2, size: 0x8, addend: 0x0, symName: __ZN3MTL7Private8Selector17s_ksetClearColor_E, symObjAddr: 0x108380, symBinAddr: 0x1000417D8, symSize: 0x0 }
  - { offset: 0x484DD, size: 0x8, addend: 0x0, symName: __ZN3MTL7Private8Selector17s_ksetClearDepth_E, symObjAddr: 0x108388, symBinAddr: 0x1000417E0, symSize: 0x0 }
  - { offset: 0x484F8, size: 0x8, addend: 0x0, symName: __ZN3MTL7Private8Selector19s_ksetClearStencil_E, symObjAddr: 0x108390, symBinAddr: 0x1000417E8, symSize: 0x0 }
  - { offset: 0x48513, size: 0x8, addend: 0x0, symName: __ZN3MTL7Private8Selector31s_ksetColorStoreAction_atIndex_E, symObjAddr: 0x108398, symBinAddr: 0x1000417F0, symSize: 0x0 }
  - { offset: 0x4852E, size: 0x8, addend: 0x0, symName: __ZN3MTL7Private8Selector38s_ksetColorStoreActionOptions_atIndex_E, symObjAddr: 0x1083A0, symBinAddr: 0x1000417F8, symSize: 0x0 }
  - { offset: 0x48549, size: 0x8, addend: 0x0, symName: __ZN3MTL7Private8Selector19s_ksetCommandTypes_E, symObjAddr: 0x1083A8, symBinAddr: 0x100041800, symSize: 0x0 }
  - { offset: 0x48564, size: 0x8, addend: 0x0, symName: __ZN3MTL7Private8Selector22s_ksetCompareFunction_E, symObjAddr: 0x1083B0, symBinAddr: 0x100041808, symSize: 0x0 }
  - { offset: 0x4857F, size: 0x8, addend: 0x0, symName: __ZN3MTL7Private8Selector30s_ksetCompileSymbolVisibility_E, symObjAddr: 0x1083B8, symBinAddr: 0x100041810, symSize: 0x0 }
  - { offset: 0x4859A, size: 0x8, addend: 0x0, symName: __ZN3MTL7Private8Selector22s_ksetCompressionType_E, symObjAddr: 0x1083C0, symBinAddr: 0x100041818, symSize: 0x0 }
  - { offset: 0x485B5, size: 0x8, addend: 0x0, symName: __ZN3MTL7Private8Selector22s_ksetComputeFunction_E, symObjAddr: 0x1083C8, symBinAddr: 0x100041820, symSize: 0x0 }
  - { offset: 0x485D0, size: 0x8, addend: 0x0, symName: __ZN3MTL7Private8Selector27s_ksetComputePipelineState_E, symObjAddr: 0x1083D0, symBinAddr: 0x100041828, symSize: 0x0 }
  - { offset: 0x485EB, size: 0x8, addend: 0x0, symName: __ZN3MTL7Private8Selector35s_ksetComputePipelineState_atIndex_E, symObjAddr: 0x1083D8, symBinAddr: 0x100041830, symSize: 0x0 }
  - { offset: 0x48606, size: 0x8, addend: 0x0, symName: __ZN3MTL7Private8Selector38s_ksetComputePipelineStates_withRange_E, symObjAddr: 0x1083E0, symBinAddr: 0x100041838, symSize: 0x0 }
  - { offset: 0x48621, size: 0x8, addend: 0x0, symName: __ZN3MTL7Private8Selector29s_ksetConstantBlockAlignment_E, symObjAddr: 0x1083E8, symBinAddr: 0x100041840, symSize: 0x0 }
  - { offset: 0x4863C, size: 0x8, addend: 0x0, symName: __ZN3MTL7Private8Selector33s_ksetConstantValue_type_atIndex_E, symObjAddr: 0x1083F0, symBinAddr: 0x100041848, symSize: 0x0 }
  - { offset: 0x48657, size: 0x8, addend: 0x0, symName: __ZN3MTL7Private8Selector34s_ksetConstantValue_type_withName_E, symObjAddr: 0x1083F8, symBinAddr: 0x100041850, symSize: 0x0 }
  - { offset: 0x48672, size: 0x8, addend: 0x0, symName: __ZN3MTL7Private8Selector21s_ksetConstantValues_E, symObjAddr: 0x108400, symBinAddr: 0x100041858, symSize: 0x0 }
  - { offset: 0x4868D, size: 0x8, addend: 0x0, symName: __ZN3MTL7Private8Selector36s_ksetConstantValues_type_withRange_E, symObjAddr: 0x108408, symBinAddr: 0x100041860, symSize: 0x0 }
  - { offset: 0x486A8, size: 0x8, addend: 0x0, symName: __ZN3MTL7Private8Selector26s_ksetControlDependencies_E, symObjAddr: 0x108410, symBinAddr: 0x100041868, symSize: 0x0 }
  - { offset: 0x486C3, size: 0x8, addend: 0x0, symName: __ZN3MTL7Private8Selector25s_ksetControlPointBuffer_E, symObjAddr: 0x108418, symBinAddr: 0x100041870, symSize: 0x0 }
  - { offset: 0x486DE, size: 0x8, addend: 0x0, symName: __ZN3MTL7Private8Selector31s_ksetControlPointBufferOffset_E, symObjAddr: 0x108420, symBinAddr: 0x100041878, symSize: 0x0 }
  - { offset: 0x486F9, size: 0x8, addend: 0x0, symName: __ZN3MTL7Private8Selector26s_ksetControlPointBuffers_E, symObjAddr: 0x108428, symBinAddr: 0x100041880, symSize: 0x0 }
  - { offset: 0x48714, size: 0x8, addend: 0x0, symName: __ZN3MTL7Private8Selector24s_ksetControlPointCount_E, symObjAddr: 0x108430, symBinAddr: 0x100041888, symSize: 0x0 }
  - { offset: 0x4872F, size: 0x8, addend: 0x0, symName: __ZN3MTL7Private8Selector25s_ksetControlPointFormat_E, symObjAddr: 0x108438, symBinAddr: 0x100041890, symSize: 0x0 }
  - { offset: 0x4874A, size: 0x8, addend: 0x0, symName: __ZN3MTL7Private8Selector25s_ksetControlPointStride_E, symObjAddr: 0x108440, symBinAddr: 0x100041898, symSize: 0x0 }
  - { offset: 0x48765, size: 0x8, addend: 0x0, symName: __ZN3MTL7Private8Selector17s_ksetCounterSet_E, symObjAddr: 0x108448, symBinAddr: 0x1000418A0, symSize: 0x0 }
  - { offset: 0x48780, size: 0x8, addend: 0x0, symName: __ZN3MTL7Private8Selector19s_ksetCpuCacheMode_E, symObjAddr: 0x108450, symBinAddr: 0x1000418A8, symSize: 0x0 }
  - { offset: 0x4879B, size: 0x8, addend: 0x0, symName: __ZN3MTL7Private8Selector15s_ksetCullMode_E, symObjAddr: 0x108458, symBinAddr: 0x1000418B0, symSize: 0x0 }
  - { offset: 0x487B6, size: 0x8, addend: 0x0, symName: __ZN3MTL7Private8Selector17s_ksetCurveBasis_E, symObjAddr: 0x108460, symBinAddr: 0x1000418B8, symSize: 0x0 }
  - { offset: 0x487D1, size: 0x8, addend: 0x0, symName: __ZN3MTL7Private8Selector19s_ksetCurveEndCaps_E, symObjAddr: 0x108468, symBinAddr: 0x1000418C0, symSize: 0x0 }
  - { offset: 0x487EC, size: 0x8, addend: 0x0, symName: __ZN3MTL7Private8Selector16s_ksetCurveType_E, symObjAddr: 0x108470, symBinAddr: 0x1000418C8, symSize: 0x0 }
  - { offset: 0x48807, size: 0x8, addend: 0x0, symName: __ZN3MTL7Private8Selector15s_ksetDataType_E, symObjAddr: 0x108478, symBinAddr: 0x1000418D0, symSize: 0x0 }
  - { offset: 0x48822, size: 0x8, addend: 0x0, symName: __ZN3MTL7Private8Selector26s_ksetDefaultCaptureScope_E, symObjAddr: 0x108480, symBinAddr: 0x1000418D8, symSize: 0x0 }
  - { offset: 0x4883D, size: 0x8, addend: 0x0, symName: __ZN3MTL7Private8Selector31s_ksetDefaultRasterSampleCount_E, symObjAddr: 0x108488, symBinAddr: 0x1000418E0, symSize: 0x0 }
  - { offset: 0x48858, size: 0x8, addend: 0x0, symName: __ZN3MTL7Private8Selector12s_ksetDepth_E, symObjAddr: 0x108490, symBinAddr: 0x1000418E8, symSize: 0x0 }
  - { offset: 0x48873, size: 0x8, addend: 0x0, symName: __ZN3MTL7Private8Selector22s_ksetDepthAttachment_E, symObjAddr: 0x108498, symBinAddr: 0x1000418F0, symSize: 0x0 }
  - { offset: 0x4888E, size: 0x8, addend: 0x0, symName: __ZN3MTL7Private8Selector33s_ksetDepthAttachmentPixelFormat_E, symObjAddr: 0x1084A0, symBinAddr: 0x1000418F8, symSize: 0x0 }
  - { offset: 0x488A9, size: 0x8, addend: 0x0, symName: __ZN3MTL7Private8Selector33s_ksetDepthBias_slopeScale_clamp_E, symObjAddr: 0x1084A8, symBinAddr: 0x100041900, symSize: 0x0 }
  - { offset: 0x488C4, size: 0x8, addend: 0x0, symName: __ZN3MTL7Private8Selector20s_ksetDepthClipMode_E, symObjAddr: 0x1084B0, symBinAddr: 0x100041908, symSize: 0x0 }
  - { offset: 0x488DF, size: 0x8, addend: 0x0, symName: __ZN3MTL7Private8Selector27s_ksetDepthCompareFunction_E, symObjAddr: 0x1084B8, symBinAddr: 0x100041910, symSize: 0x0 }
  - { offset: 0x488FA, size: 0x8, addend: 0x0, symName: __ZN3MTL7Private8Selector28s_ksetDepthFailureOperation_E, symObjAddr: 0x1084C0, symBinAddr: 0x100041918, symSize: 0x0 }
  - { offset: 0x48915, size: 0x8, addend: 0x0, symName: __ZN3MTL7Private8Selector17s_ksetDepthPlane_E, symObjAddr: 0x1084C8, symBinAddr: 0x100041920, symSize: 0x0 }
  - { offset: 0x48930, size: 0x8, addend: 0x0, symName: __ZN3MTL7Private8Selector25s_ksetDepthResolveFilter_E, symObjAddr: 0x1084D0, symBinAddr: 0x100041928, symSize: 0x0 }
  - { offset: 0x4894B, size: 0x8, addend: 0x0, symName: __ZN3MTL7Private8Selector32s_ksetDepthStencilPassOperation_E, symObjAddr: 0x1084D8, symBinAddr: 0x100041930, symSize: 0x0 }
  - { offset: 0x48966, size: 0x8, addend: 0x0, symName: __ZN3MTL7Private8Selector24s_ksetDepthStencilState_E, symObjAddr: 0x1084E0, symBinAddr: 0x100041938, symSize: 0x0 }
  - { offset: 0x48981, size: 0x8, addend: 0x0, symName: __ZN3MTL7Private8Selector23s_ksetDepthStoreAction_E, symObjAddr: 0x1084E8, symBinAddr: 0x100041940, symSize: 0x0 }
  - { offset: 0x4899C, size: 0x8, addend: 0x0, symName: __ZN3MTL7Private8Selector30s_ksetDepthStoreActionOptions_E, symObjAddr: 0x1084F0, symBinAddr: 0x100041948, symSize: 0x0 }
  - { offset: 0x489B7, size: 0x8, addend: 0x0, symName: __ZN3MTL7Private8Selector24s_ksetDepthWriteEnabled_E, symObjAddr: 0x1084F8, symBinAddr: 0x100041950, symSize: 0x0 }
  - { offset: 0x489D2, size: 0x8, addend: 0x0, symName: __ZN3MTL7Private8Selector18s_ksetDestination_E, symObjAddr: 0x108500, symBinAddr: 0x100041958, symSize: 0x0 }
  - { offset: 0x489ED, size: 0x8, addend: 0x0, symName: __ZN3MTL7Private8Selector34s_ksetDestinationAlphaBlendFactor_E, symObjAddr: 0x108508, symBinAddr: 0x100041960, symSize: 0x0 }
  - { offset: 0x48A08, size: 0x8, addend: 0x0, symName: __ZN3MTL7Private8Selector32s_ksetDestinationRGBBlendFactor_E, symObjAddr: 0x108510, symBinAddr: 0x100041968, symSize: 0x0 }
  - { offset: 0x48A23, size: 0x8, addend: 0x0, symName: __ZN3MTL7Private8Selector19s_ksetDispatchType_E, symObjAddr: 0x108518, symBinAddr: 0x100041970, symSize: 0x0 }
  - { offset: 0x48A3E, size: 0x8, addend: 0x0, symName: __ZN3MTL7Private8Selector30s_ksetEndOfEncoderSampleIndex_E, symObjAddr: 0x108520, symBinAddr: 0x100041978, symSize: 0x0 }
  - { offset: 0x48A59, size: 0x8, addend: 0x0, symName: __ZN3MTL7Private8Selector31s_ksetEndOfFragmentSampleIndex_E, symObjAddr: 0x108528, symBinAddr: 0x100041980, symSize: 0x0 }
  - { offset: 0x48A74, size: 0x8, addend: 0x0, symName: __ZN3MTL7Private8Selector29s_ksetEndOfVertexSampleIndex_E, symObjAddr: 0x108530, symBinAddr: 0x100041988, symSize: 0x0 }
  - { offset: 0x48A8F, size: 0x8, addend: 0x0, symName: __ZN3MTL7Private8Selector19s_ksetErrorOptions_E, symObjAddr: 0x108538, symBinAddr: 0x100041990, symSize: 0x0 }
  - { offset: 0x48AAA, size: 0x8, addend: 0x0, symName: __ZN3MTL7Private8Selector22s_ksetFastMathEnabled_E, symObjAddr: 0x108540, symBinAddr: 0x100041998, symSize: 0x0 }
  - { offset: 0x48AC5, size: 0x8, addend: 0x0, symName: __ZN3MTL7Private8Selector13s_ksetFormat_E, symObjAddr: 0x108548, symBinAddr: 0x1000419A0, symSize: 0x0 }
  - { offset: 0x48AE0, size: 0x8, addend: 0x0, symName: __ZN3MTL7Private8Selector50s_ksetFragmentAccelerationStructure_atBufferIndex_E, symObjAddr: 0x108550, symBinAddr: 0x1000419A8, symSize: 0x0 }
  - { offset: 0x48AFB, size: 0x8, addend: 0x0, symName: __ZN3MTL7Private8Selector40s_ksetFragmentAdditionalBinaryFunctions_E, symObjAddr: 0x108558, symBinAddr: 0x1000419B0, symSize: 0x0 }
  - { offset: 0x48B16, size: 0x8, addend: 0x0, symName: __ZN3MTL7Private8Selector36s_ksetFragmentBuffer_offset_atIndex_E, symObjAddr: 0x108560, symBinAddr: 0x1000419B8, symSize: 0x0 }
  - { offset: 0x48B31, size: 0x8, addend: 0x0, symName: __ZN3MTL7Private8Selector35s_ksetFragmentBufferOffset_atIndex_E, symObjAddr: 0x108568, symBinAddr: 0x1000419C0, symSize: 0x0 }
  - { offset: 0x48B4C, size: 0x8, addend: 0x0, symName: __ZN3MTL7Private8Selector40s_ksetFragmentBuffers_offsets_withRange_E, symObjAddr: 0x108570, symBinAddr: 0x1000419C8, symSize: 0x0 }
  - { offset: 0x48B67, size: 0x8, addend: 0x0, symName: __ZN3MTL7Private8Selector35s_ksetFragmentBytes_length_atIndex_E, symObjAddr: 0x108578, symBinAddr: 0x1000419D0, symSize: 0x0 }
  - { offset: 0x48B82, size: 0x8, addend: 0x0, symName: __ZN3MTL7Private8Selector23s_ksetFragmentFunction_E, symObjAddr: 0x108580, symBinAddr: 0x1000419D8, symSize: 0x0 }
  - { offset: 0x48B9D, size: 0x8, addend: 0x0, symName: __ZN3MTL7Private8Selector54s_ksetFragmentIntersectionFunctionTable_atBufferIndex_E, symObjAddr: 0x108588, symBinAddr: 0x1000419E0, symSize: 0x0 }
  - { offset: 0x48BB8, size: 0x8, addend: 0x0, symName: __ZN3MTL7Private8Selector57s_ksetFragmentIntersectionFunctionTables_withBufferRange_E, symObjAddr: 0x108590, symBinAddr: 0x1000419E8, symSize: 0x0 }
  - { offset: 0x48BD3, size: 0x8, addend: 0x0, symName: __ZN3MTL7Private8Selector30s_ksetFragmentLinkedFunctions_E, symObjAddr: 0x108598, symBinAddr: 0x1000419F0, symSize: 0x0 }
  - { offset: 0x48BEE, size: 0x8, addend: 0x0, symName: __ZN3MTL7Private8Selector33s_ksetFragmentPreloadedLibraries_E, symObjAddr: 0x1085A0, symBinAddr: 0x1000419F8, symSize: 0x0 }
  - { offset: 0x48C09, size: 0x8, addend: 0x0, symName: __ZN3MTL7Private8Selector35s_ksetFragmentSamplerState_atIndex_E, symObjAddr: 0x1085A8, symBinAddr: 0x100041A00, symSize: 0x0 }
  - { offset: 0x48C24, size: 0x8, addend: 0x0, symName: __ZN3MTL7Private8Selector59s_ksetFragmentSamplerState_lodMinClamp_lodMaxClamp_atIndex_E, symObjAddr: 0x1085B0, symBinAddr: 0x100041A08, symSize: 0x0 }
  - { offset: 0x48C3F, size: 0x8, addend: 0x0, symName: __ZN3MTL7Private8Selector64s_ksetFragmentSamplerStates_lodMinClamps_lodMaxClamps_withRange_E, symObjAddr: 0x1085B8, symBinAddr: 0x100041A10, symSize: 0x0 }
  - { offset: 0x48C5A, size: 0x8, addend: 0x0, symName: __ZN3MTL7Private8Selector38s_ksetFragmentSamplerStates_withRange_E, symObjAddr: 0x1085C0, symBinAddr: 0x100041A18, symSize: 0x0 }
  - { offset: 0x48C75, size: 0x8, addend: 0x0, symName: __ZN3MTL7Private8Selector30s_ksetFragmentTexture_atIndex_E, symObjAddr: 0x1085C8, symBinAddr: 0x100041A20, symSize: 0x0 }
  - { offset: 0x48C90, size: 0x8, addend: 0x0, symName: __ZN3MTL7Private8Selector33s_ksetFragmentTextures_withRange_E, symObjAddr: 0x1085D0, symBinAddr: 0x100041A28, symSize: 0x0 }
  - { offset: 0x48CAB, size: 0x8, addend: 0x0, symName: __ZN3MTL7Private8Selector49s_ksetFragmentVisibleFunctionTable_atBufferIndex_E, symObjAddr: 0x1085D8, symBinAddr: 0x100041A30, symSize: 0x0 }
  - { offset: 0x48CC6, size: 0x8, addend: 0x0, symName: __ZN3MTL7Private8Selector52s_ksetFragmentVisibleFunctionTables_withBufferRange_E, symObjAddr: 0x1085E0, symBinAddr: 0x100041A38, symSize: 0x0 }
  - { offset: 0x48CE1, size: 0x8, addend: 0x0, symName: __ZN3MTL7Private8Selector23s_ksetFrontFaceStencil_E, symObjAddr: 0x1085E8, symBinAddr: 0x100041A40, symSize: 0x0 }
  - { offset: 0x48CFC, size: 0x8, addend: 0x0, symName: __ZN3MTL7Private8Selector25s_ksetFrontFacingWinding_E, symObjAddr: 0x1085F0, symBinAddr: 0x100041A48, symSize: 0x0 }
  - { offset: 0x48D17, size: 0x8, addend: 0x0, symName: __ZN3MTL7Private8Selector23s_ksetFunction_atIndex_E, symObjAddr: 0x1085F8, symBinAddr: 0x100041A50, symSize: 0x0 }
  - { offset: 0x48D32, size: 0x8, addend: 0x0, symName: __ZN3MTL7Private8Selector20s_ksetFunctionCount_E, symObjAddr: 0x108600, symBinAddr: 0x100041A58, symSize: 0x0 }
  - { offset: 0x48D4D, size: 0x8, addend: 0x0, symName: __ZN3MTL7Private8Selector21s_ksetFunctionGraphs_E, symObjAddr: 0x108608, symBinAddr: 0x100041A60, symSize: 0x0 }
  - { offset: 0x48D68, size: 0x8, addend: 0x0, symName: __ZN3MTL7Private8Selector19s_ksetFunctionName_E, symObjAddr: 0x108610, symBinAddr: 0x100041A68, symSize: 0x0 }
  - { offset: 0x48D83, size: 0x8, addend: 0x0, symName: __ZN3MTL7Private8Selector16s_ksetFunctions_E, symObjAddr: 0x108618, symBinAddr: 0x100041A70, symSize: 0x0 }
  - { offset: 0x48D9E, size: 0x8, addend: 0x0, symName: __ZN3MTL7Private8Selector26s_ksetFunctions_withRange_E, symObjAddr: 0x108620, symBinAddr: 0x100041A78, symSize: 0x0 }
  - { offset: 0x48DB9, size: 0x8, addend: 0x0, symName: __ZN3MTL7Private8Selector26s_ksetGeometryDescriptors_E, symObjAddr: 0x108628, symBinAddr: 0x100041A80, symSize: 0x0 }
  - { offset: 0x48DD4, size: 0x8, addend: 0x0, symName: __ZN3MTL7Private8Selector13s_ksetGroups_E, symObjAddr: 0x108630, symBinAddr: 0x100041A88, symSize: 0x0 }
  - { offset: 0x48DEF, size: 0x8, addend: 0x0, symName: __ZN3MTL7Private8Selector25s_ksetHazardTrackingMode_E, symObjAddr: 0x108638, symBinAddr: 0x100041A90, symSize: 0x0 }
  - { offset: 0x48E0A, size: 0x8, addend: 0x0, symName: __ZN3MTL7Private8Selector13s_ksetHeight_E, symObjAddr: 0x108640, symBinAddr: 0x100041A98, symSize: 0x0 }
  - { offset: 0x48E25, size: 0x8, addend: 0x0, symName: __ZN3MTL7Private8Selector29s_ksetImageblockSampleLength_E, symObjAddr: 0x108648, symBinAddr: 0x100041AA0, symSize: 0x0 }
  - { offset: 0x48E40, size: 0x8, addend: 0x0, symName: __ZN3MTL7Private8Selector29s_ksetImageblockWidth_height_E, symObjAddr: 0x108650, symBinAddr: 0x100041AA8, symSize: 0x0 }
  - { offset: 0x48E5B, size: 0x8, addend: 0x0, symName: __ZN3MTL7Private8Selector12s_ksetIndex_E, symObjAddr: 0x108658, symBinAddr: 0x100041AB0, symSize: 0x0 }
  - { offset: 0x48E76, size: 0x8, addend: 0x0, symName: __ZN3MTL7Private8Selector18s_ksetIndexBuffer_E, symObjAddr: 0x108660, symBinAddr: 0x100041AB8, symSize: 0x0 }
  - { offset: 0x48E91, size: 0x8, addend: 0x0, symName: __ZN3MTL7Private8Selector23s_ksetIndexBufferIndex_E, symObjAddr: 0x108668, symBinAddr: 0x100041AC0, symSize: 0x0 }
  - { offset: 0x48EAC, size: 0x8, addend: 0x0, symName: __ZN3MTL7Private8Selector24s_ksetIndexBufferOffset_E, symObjAddr: 0x108670, symBinAddr: 0x100041AC8, symSize: 0x0 }
  - { offset: 0x48EC7, size: 0x8, addend: 0x0, symName: __ZN3MTL7Private8Selector16s_ksetIndexType_E, symObjAddr: 0x108678, symBinAddr: 0x100041AD0, symSize: 0x0 }
  - { offset: 0x48EE2, size: 0x8, addend: 0x0, symName: __ZN3MTL7Private8Selector36s_ksetIndirectCommandBuffer_atIndex_E, symObjAddr: 0x108680, symBinAddr: 0x100041AD8, symSize: 0x0 }
  - { offset: 0x48EFD, size: 0x8, addend: 0x0, symName: __ZN3MTL7Private8Selector39s_ksetIndirectCommandBuffers_withRange_E, symObjAddr: 0x108688, symBinAddr: 0x100041AE0, symSize: 0x0 }
  - { offset: 0x48F18, size: 0x8, addend: 0x0, symName: __ZN3MTL7Private8Selector21s_ksetInheritBuffers_E, symObjAddr: 0x108690, symBinAddr: 0x100041AE8, symSize: 0x0 }
  - { offset: 0x48F33, size: 0x8, addend: 0x0, symName: __ZN3MTL7Private8Selector27s_ksetInheritPipelineState_E, symObjAddr: 0x108698, symBinAddr: 0x100041AF0, symSize: 0x0 }
  - { offset: 0x48F4E, size: 0x8, addend: 0x0, symName: __ZN3MTL7Private8Selector29s_ksetInputPrimitiveTopology_E, symObjAddr: 0x1086A0, symBinAddr: 0x100041AF8, symSize: 0x0 }
  - { offset: 0x48F69, size: 0x8, addend: 0x0, symName: __ZN3MTL7Private8Selector22s_ksetInsertLibraries_E, symObjAddr: 0x1086A8, symBinAddr: 0x100041B00, symSize: 0x0 }
  - { offset: 0x48F84, size: 0x8, addend: 0x0, symName: __ZN3MTL7Private8Selector18s_ksetInstallName_E, symObjAddr: 0x1086B0, symBinAddr: 0x100041B08, symSize: 0x0 }
  - { offset: 0x48F9F, size: 0x8, addend: 0x0, symName: __ZN3MTL7Private8Selector20s_ksetInstanceCount_E, symObjAddr: 0x1086B8, symBinAddr: 0x100041B10, symSize: 0x0 }
  - { offset: 0x48FBA, size: 0x8, addend: 0x0, symName: __ZN3MTL7Private8Selector26s_ksetInstanceCountBuffer_E, symObjAddr: 0x1086C0, symBinAddr: 0x100041B18, symSize: 0x0 }
  - { offset: 0x48FD5, size: 0x8, addend: 0x0, symName: __ZN3MTL7Private8Selector32s_ksetInstanceCountBufferOffset_E, symObjAddr: 0x1086C8, symBinAddr: 0x100041B20, symSize: 0x0 }
  - { offset: 0x48FF0, size: 0x8, addend: 0x0, symName: __ZN3MTL7Private8Selector31s_ksetInstanceDescriptorBuffer_E, symObjAddr: 0x1086D0, symBinAddr: 0x100041B28, symSize: 0x0 }
  - { offset: 0x4900B, size: 0x8, addend: 0x0, symName: __ZN3MTL7Private8Selector37s_ksetInstanceDescriptorBufferOffset_E, symObjAddr: 0x1086D8, symBinAddr: 0x100041B30, symSize: 0x0 }
  - { offset: 0x49026, size: 0x8, addend: 0x0, symName: __ZN3MTL7Private8Selector31s_ksetInstanceDescriptorStride_E, symObjAddr: 0x1086E0, symBinAddr: 0x100041B38, symSize: 0x0 }
  - { offset: 0x49041, size: 0x8, addend: 0x0, symName: __ZN3MTL7Private8Selector29s_ksetInstanceDescriptorType_E, symObjAddr: 0x1086E8, symBinAddr: 0x100041B40, symSize: 0x0 }
  - { offset: 0x4905C, size: 0x8, addend: 0x0, symName: __ZN3MTL7Private8Selector38s_ksetInstancedAccelerationStructures_E, symObjAddr: 0x1086F0, symBinAddr: 0x100041B48, symSize: 0x0 }
  - { offset: 0x49077, size: 0x8, addend: 0x0, symName: __ZN3MTL7Private8Selector46s_ksetIntersectionFunctionTable_atBufferIndex_E, symObjAddr: 0x1086F8, symBinAddr: 0x100041B50, symSize: 0x0 }
  - { offset: 0x49092, size: 0x8, addend: 0x0, symName: __ZN3MTL7Private8Selector40s_ksetIntersectionFunctionTable_atIndex_E, symObjAddr: 0x108700, symBinAddr: 0x100041B58, symSize: 0x0 }
  - { offset: 0x490AD, size: 0x8, addend: 0x0, symName: __ZN3MTL7Private8Selector38s_ksetIntersectionFunctionTableOffset_E, symObjAddr: 0x108708, symBinAddr: 0x100041B60, symSize: 0x0 }
  - { offset: 0x490C8, size: 0x8, addend: 0x0, symName: __ZN3MTL7Private8Selector49s_ksetIntersectionFunctionTables_withBufferRange_E, symObjAddr: 0x108710, symBinAddr: 0x100041B68, symSize: 0x0 }
  - { offset: 0x490E3, size: 0x8, addend: 0x0, symName: __ZN3MTL7Private8Selector43s_ksetIntersectionFunctionTables_withRange_E, symObjAddr: 0x108718, symBinAddr: 0x100041B70, symSize: 0x0 }
  - { offset: 0x490FE, size: 0x8, addend: 0x0, symName: __ZN3MTL7Private8Selector34s_ksetKernelBuffer_offset_atIndex_E, symObjAddr: 0x108720, symBinAddr: 0x100041B78, symSize: 0x0 }
  - { offset: 0x49119, size: 0x8, addend: 0x0, symName: __ZN3MTL7Private8Selector50s_ksetKernelBuffer_offset_attributeStride_atIndex_E, symObjAddr: 0x108728, symBinAddr: 0x100041B80, symSize: 0x0 }
  - { offset: 0x49134, size: 0x8, addend: 0x0, symName: __ZN3MTL7Private8Selector12s_ksetLabel_E, symObjAddr: 0x108730, symBinAddr: 0x100041B88, symSize: 0x0 }
  - { offset: 0x4914F, size: 0x8, addend: 0x0, symName: __ZN3MTL7Private8Selector22s_ksetLanguageVersion_E, symObjAddr: 0x108738, symBinAddr: 0x100041B90, symSize: 0x0 }
  - { offset: 0x4916A, size: 0x8, addend: 0x0, symName: __ZN3MTL7Private8Selector20s_ksetLayer_atIndex_E, symObjAddr: 0x108740, symBinAddr: 0x100041B98, symSize: 0x0 }
  - { offset: 0x49185, size: 0x8, addend: 0x0, symName: __ZN3MTL7Private8Selector12s_ksetLevel_E, symObjAddr: 0x108748, symBinAddr: 0x100041BA0, symSize: 0x0 }
  - { offset: 0x491A0, size: 0x8, addend: 0x0, symName: __ZN3MTL7Private8Selector16s_ksetLibraries_E, symObjAddr: 0x108750, symBinAddr: 0x100041BA8, symSize: 0x0 }
  - { offset: 0x491BB, size: 0x8, addend: 0x0, symName: __ZN3MTL7Private8Selector18s_ksetLibraryType_E, symObjAddr: 0x108758, symBinAddr: 0x100041BB0, symSize: 0x0 }
  - { offset: 0x491D6, size: 0x8, addend: 0x0, symName: __ZN3MTL7Private8Selector22s_ksetLinkedFunctions_E, symObjAddr: 0x108760, symBinAddr: 0x100041BB8, symSize: 0x0 }
  - { offset: 0x491F1, size: 0x8, addend: 0x0, symName: __ZN3MTL7Private8Selector17s_ksetLoadAction_E, symObjAddr: 0x108768, symBinAddr: 0x100041BC0, symSize: 0x0 }
  - { offset: 0x4920C, size: 0x8, addend: 0x0, symName: __ZN3MTL7Private8Selector17s_ksetLodAverage_E, symObjAddr: 0x108770, symBinAddr: 0x100041BC8, symSize: 0x0 }
  - { offset: 0x49227, size: 0x8, addend: 0x0, symName: __ZN3MTL7Private8Selector18s_ksetLodMaxClamp_E, symObjAddr: 0x108778, symBinAddr: 0x100041BD0, symSize: 0x0 }
  - { offset: 0x49242, size: 0x8, addend: 0x0, symName: __ZN3MTL7Private8Selector18s_ksetLodMinClamp_E, symObjAddr: 0x108780, symBinAddr: 0x100041BD8, symSize: 0x0 }
  - { offset: 0x4925D, size: 0x8, addend: 0x0, symName: __ZN3MTL7Private8Selector16s_ksetMagFilter_E, symObjAddr: 0x108788, symBinAddr: 0x100041BE0, symSize: 0x0 }
  - { offset: 0x49278, size: 0x8, addend: 0x0, symName: __ZN3MTL7Private8Selector20s_ksetMaxAnisotropy_E, symObjAddr: 0x108790, symBinAddr: 0x100041BE8, symSize: 0x0 }
  - { offset: 0x49293, size: 0x8, addend: 0x0, symName: __ZN3MTL7Private8Selector24s_ksetMaxCallStackDepth_E, symObjAddr: 0x108798, symBinAddr: 0x100041BF0, symSize: 0x0 }
  - { offset: 0x492AE, size: 0x8, addend: 0x0, symName: __ZN3MTL7Private8Selector28s_ksetMaxCommandBufferCount_E, symObjAddr: 0x1087A0, symBinAddr: 0x100041BF8, symSize: 0x0 }
  - { offset: 0x492C9, size: 0x8, addend: 0x0, symName: __ZN3MTL7Private8Selector26s_ksetMaxCommandsInFlight_E, symObjAddr: 0x1087A8, symBinAddr: 0x100041C00, symSize: 0x0 }
  - { offset: 0x492E4, size: 0x8, addend: 0x0, symName: __ZN3MTL7Private8Selector33s_ksetMaxFragmentBufferBindCount_E, symObjAddr: 0x1087B0, symBinAddr: 0x100041C08, symSize: 0x0 }
  - { offset: 0x492FF, size: 0x8, addend: 0x0, symName: __ZN3MTL7Private8Selector32s_ksetMaxFragmentCallStackDepth_E, symObjAddr: 0x1087B8, symBinAddr: 0x100041C10, symSize: 0x0 }
  - { offset: 0x4931A, size: 0x8, addend: 0x0, symName: __ZN3MTL7Private8Selector23s_ksetMaxInstanceCount_E, symObjAddr: 0x1087C0, symBinAddr: 0x100041C18, symSize: 0x0 }
  - { offset: 0x49335, size: 0x8, addend: 0x0, symName: __ZN3MTL7Private8Selector31s_ksetMaxKernelBufferBindCount_E, symObjAddr: 0x1087C8, symBinAddr: 0x100041C20, symSize: 0x0 }
  - { offset: 0x49350, size: 0x8, addend: 0x0, symName: __ZN3MTL7Private8Selector42s_ksetMaxKernelThreadgroupMemoryBindCount_E, symObjAddr: 0x1087D0, symBinAddr: 0x100041C28, symSize: 0x0 }
  - { offset: 0x4936B, size: 0x8, addend: 0x0, symName: __ZN3MTL7Private8Selector29s_ksetMaxMeshBufferBindCount_E, symObjAddr: 0x1087D8, symBinAddr: 0x100041C30, symSize: 0x0 }
  - { offset: 0x49386, size: 0x8, addend: 0x0, symName: __ZN3MTL7Private8Selector30s_ksetMaxMotionTransformCount_E, symObjAddr: 0x1087E0, symBinAddr: 0x100041C38, symSize: 0x0 }
  - { offset: 0x493A1, size: 0x8, addend: 0x0, symName: __ZN3MTL7Private8Selector31s_ksetMaxObjectBufferBindCount_E, symObjAddr: 0x1087E8, symBinAddr: 0x100041C40, symSize: 0x0 }
  - { offset: 0x493BC, size: 0x8, addend: 0x0, symName: __ZN3MTL7Private8Selector42s_ksetMaxObjectThreadgroupMemoryBindCount_E, symObjAddr: 0x1087F0, symBinAddr: 0x100041C48, symSize: 0x0 }
  - { offset: 0x493D7, size: 0x8, addend: 0x0, symName: __ZN3MTL7Private8Selector28s_ksetMaxTessellationFactor_E, symObjAddr: 0x1087F8, symBinAddr: 0x100041C50, symSize: 0x0 }
  - { offset: 0x493F2, size: 0x8, addend: 0x0, symName: __ZN3MTL7Private8Selector38s_ksetMaxTotalThreadgroupsPerMeshGrid_E, symObjAddr: 0x108800, symBinAddr: 0x100041C58, symSize: 0x0 }
  - { offset: 0x4940D, size: 0x8, addend: 0x0, symName: __ZN3MTL7Private8Selector40s_ksetMaxTotalThreadsPerMeshThreadgroup_E, symObjAddr: 0x108808, symBinAddr: 0x100041C60, symSize: 0x0 }
  - { offset: 0x49428, size: 0x8, addend: 0x0, symName: __ZN3MTL7Private8Selector42s_ksetMaxTotalThreadsPerObjectThreadgroup_E, symObjAddr: 0x108810, symBinAddr: 0x100041C68, symSize: 0x0 }
  - { offset: 0x49443, size: 0x8, addend: 0x0, symName: __ZN3MTL7Private8Selector36s_ksetMaxTotalThreadsPerThreadgroup_E, symObjAddr: 0x108818, symBinAddr: 0x100041C70, symSize: 0x0 }
  - { offset: 0x4945E, size: 0x8, addend: 0x0, symName: __ZN3MTL7Private8Selector34s_ksetMaxVertexAmplificationCount_E, symObjAddr: 0x108820, symBinAddr: 0x100041C78, symSize: 0x0 }
  - { offset: 0x49479, size: 0x8, addend: 0x0, symName: __ZN3MTL7Private8Selector31s_ksetMaxVertexBufferBindCount_E, symObjAddr: 0x108828, symBinAddr: 0x100041C80, symSize: 0x0 }
  - { offset: 0x49494, size: 0x8, addend: 0x0, symName: __ZN3MTL7Private8Selector30s_ksetMaxVertexCallStackDepth_E, symObjAddr: 0x108830, symBinAddr: 0x100041C88, symSize: 0x0 }
  - { offset: 0x494AF, size: 0x8, addend: 0x0, symName: __ZN3MTL7Private8Selector32s_ksetMeshBuffer_offset_atIndex_E, symObjAddr: 0x108838, symBinAddr: 0x100041C90, symSize: 0x0 }
  - { offset: 0x494CA, size: 0x8, addend: 0x0, symName: __ZN3MTL7Private8Selector31s_ksetMeshBufferOffset_atIndex_E, symObjAddr: 0x108840, symBinAddr: 0x100041C98, symSize: 0x0 }
  - { offset: 0x494E5, size: 0x8, addend: 0x0, symName: __ZN3MTL7Private8Selector36s_ksetMeshBuffers_offsets_withRange_E, symObjAddr: 0x108848, symBinAddr: 0x100041CA0, symSize: 0x0 }
  - { offset: 0x49500, size: 0x8, addend: 0x0, symName: __ZN3MTL7Private8Selector31s_ksetMeshBytes_length_atIndex_E, symObjAddr: 0x108850, symBinAddr: 0x100041CA8, symSize: 0x0 }
  - { offset: 0x4951B, size: 0x8, addend: 0x0, symName: __ZN3MTL7Private8Selector19s_ksetMeshFunction_E, symObjAddr: 0x108858, symBinAddr: 0x100041CB0, symSize: 0x0 }
  - { offset: 0x49536, size: 0x8, addend: 0x0, symName: __ZN3MTL7Private8Selector26s_ksetMeshLinkedFunctions_E, symObjAddr: 0x108860, symBinAddr: 0x100041CB8, symSize: 0x0 }
  - { offset: 0x49551, size: 0x8, addend: 0x0, symName: __ZN3MTL7Private8Selector31s_ksetMeshSamplerState_atIndex_E, symObjAddr: 0x108868, symBinAddr: 0x100041CC0, symSize: 0x0 }
  - { offset: 0x4956C, size: 0x8, addend: 0x0, symName: __ZN3MTL7Private8Selector55s_ksetMeshSamplerState_lodMinClamp_lodMaxClamp_atIndex_E, symObjAddr: 0x108870, symBinAddr: 0x100041CC8, symSize: 0x0 }
  - { offset: 0x49587, size: 0x8, addend: 0x0, symName: __ZN3MTL7Private8Selector60s_ksetMeshSamplerStates_lodMinClamps_lodMaxClamps_withRange_E, symObjAddr: 0x108878, symBinAddr: 0x100041CD0, symSize: 0x0 }
  - { offset: 0x495A2, size: 0x8, addend: 0x0, symName: __ZN3MTL7Private8Selector34s_ksetMeshSamplerStates_withRange_E, symObjAddr: 0x108880, symBinAddr: 0x100041CD8, symSize: 0x0 }
  - { offset: 0x495BD, size: 0x8, addend: 0x0, symName: __ZN3MTL7Private8Selector26s_ksetMeshTexture_atIndex_E, symObjAddr: 0x108888, symBinAddr: 0x100041CE0, symSize: 0x0 }
  - { offset: 0x495D8, size: 0x8, addend: 0x0, symName: __ZN3MTL7Private8Selector29s_ksetMeshTextures_withRange_E, symObjAddr: 0x108890, symBinAddr: 0x100041CE8, symSize: 0x0 }
  - { offset: 0x495F3, size: 0x8, addend: 0x0, symName: __ZN3MTL7Private8Selector58s_ksetMeshThreadgroupSizeIsMultipleOfThreadExecutionWidth_E, symObjAddr: 0x108898, symBinAddr: 0x100041CF0, symSize: 0x0 }
  - { offset: 0x4960E, size: 0x8, addend: 0x0, symName: __ZN3MTL7Private8Selector16s_ksetMinFilter_E, symObjAddr: 0x1088A0, symBinAddr: 0x100041CF8, symSize: 0x0 }
  - { offset: 0x49629, size: 0x8, addend: 0x0, symName: __ZN3MTL7Private8Selector16s_ksetMipFilter_E, symObjAddr: 0x1088A8, symBinAddr: 0x100041D00, symSize: 0x0 }
  - { offset: 0x49644, size: 0x8, addend: 0x0, symName: __ZN3MTL7Private8Selector23s_ksetMipmapLevelCount_E, symObjAddr: 0x1088B0, symBinAddr: 0x100041D08, symSize: 0x0 }
  - { offset: 0x4965F, size: 0x8, addend: 0x0, symName: __ZN3MTL7Private8Selector26s_ksetMotionEndBorderMode_E, symObjAddr: 0x1088B8, symBinAddr: 0x100041D10, symSize: 0x0 }
  - { offset: 0x4967A, size: 0x8, addend: 0x0, symName: __ZN3MTL7Private8Selector20s_ksetMotionEndTime_E, symObjAddr: 0x1088C0, symBinAddr: 0x100041D18, symSize: 0x0 }
  - { offset: 0x49695, size: 0x8, addend: 0x0, symName: __ZN3MTL7Private8Selector26s_ksetMotionKeyframeCount_E, symObjAddr: 0x1088C8, symBinAddr: 0x100041D20, symSize: 0x0 }
  - { offset: 0x496B0, size: 0x8, addend: 0x0, symName: __ZN3MTL7Private8Selector28s_ksetMotionStartBorderMode_E, symObjAddr: 0x1088D0, symBinAddr: 0x100041D28, symSize: 0x0 }
  - { offset: 0x496CB, size: 0x8, addend: 0x0, symName: __ZN3MTL7Private8Selector22s_ksetMotionStartTime_E, symObjAddr: 0x1088D8, symBinAddr: 0x100041D30, symSize: 0x0 }
  - { offset: 0x496E6, size: 0x8, addend: 0x0, symName: __ZN3MTL7Private8Selector28s_ksetMotionTransformBuffer_E, symObjAddr: 0x1088E0, symBinAddr: 0x100041D38, symSize: 0x0 }
  - { offset: 0x49701, size: 0x8, addend: 0x0, symName: __ZN3MTL7Private8Selector34s_ksetMotionTransformBufferOffset_E, symObjAddr: 0x1088E8, symBinAddr: 0x100041D40, symSize: 0x0 }
  - { offset: 0x4971C, size: 0x8, addend: 0x0, symName: __ZN3MTL7Private8Selector27s_ksetMotionTransformCount_E, symObjAddr: 0x1088F0, symBinAddr: 0x100041D48, symSize: 0x0 }
  - { offset: 0x49737, size: 0x8, addend: 0x0, symName: __ZN3MTL7Private8Selector33s_ksetMotionTransformCountBuffer_E, symObjAddr: 0x1088F8, symBinAddr: 0x100041D50, symSize: 0x0 }
  - { offset: 0x49752, size: 0x8, addend: 0x0, symName: __ZN3MTL7Private8Selector39s_ksetMotionTransformCountBufferOffset_E, symObjAddr: 0x108900, symBinAddr: 0x100041D58, symSize: 0x0 }
  - { offset: 0x4976D, size: 0x8, addend: 0x0, symName: __ZN3MTL7Private8Selector17s_ksetMutability_E, symObjAddr: 0x108908, symBinAddr: 0x100041D60, symSize: 0x0 }
  - { offset: 0x49788, size: 0x8, addend: 0x0, symName: __ZN3MTL7Private8Selector11s_ksetName_E, symObjAddr: 0x108910, symBinAddr: 0x100041D68, symSize: 0x0 }
  - { offset: 0x497A3, size: 0x8, addend: 0x0, symName: __ZN3MTL7Private8Selector12s_ksetNodes_E, symObjAddr: 0x108918, symBinAddr: 0x100041D70, symSize: 0x0 }
  - { offset: 0x497BE, size: 0x8, addend: 0x0, symName: __ZN3MTL7Private8Selector28s_ksetNormalizedCoordinates_E, symObjAddr: 0x108920, symBinAddr: 0x100041D78, symSize: 0x0 }
  - { offset: 0x497D9, size: 0x8, addend: 0x0, symName: __ZN3MTL7Private8Selector32s_ksetObject_atIndexedSubscript_E, symObjAddr: 0x108928, symBinAddr: 0x100041D80, symSize: 0x0 }
  - { offset: 0x497F4, size: 0x8, addend: 0x0, symName: __ZN3MTL7Private8Selector34s_ksetObjectBuffer_offset_atIndex_E, symObjAddr: 0x108930, symBinAddr: 0x100041D88, symSize: 0x0 }
  - { offset: 0x4980F, size: 0x8, addend: 0x0, symName: __ZN3MTL7Private8Selector33s_ksetObjectBufferOffset_atIndex_E, symObjAddr: 0x108938, symBinAddr: 0x100041D90, symSize: 0x0 }
  - { offset: 0x4982A, size: 0x8, addend: 0x0, symName: __ZN3MTL7Private8Selector38s_ksetObjectBuffers_offsets_withRange_E, symObjAddr: 0x108940, symBinAddr: 0x100041D98, symSize: 0x0 }
  - { offset: 0x49845, size: 0x8, addend: 0x0, symName: __ZN3MTL7Private8Selector33s_ksetObjectBytes_length_atIndex_E, symObjAddr: 0x108948, symBinAddr: 0x100041DA0, symSize: 0x0 }
  - { offset: 0x49860, size: 0x8, addend: 0x0, symName: __ZN3MTL7Private8Selector21s_ksetObjectFunction_E, symObjAddr: 0x108950, symBinAddr: 0x100041DA8, symSize: 0x0 }
  - { offset: 0x4987B, size: 0x8, addend: 0x0, symName: __ZN3MTL7Private8Selector28s_ksetObjectLinkedFunctions_E, symObjAddr: 0x108958, symBinAddr: 0x100041DB0, symSize: 0x0 }
  - { offset: 0x49896, size: 0x8, addend: 0x0, symName: __ZN3MTL7Private8Selector33s_ksetObjectSamplerState_atIndex_E, symObjAddr: 0x108960, symBinAddr: 0x100041DB8, symSize: 0x0 }
  - { offset: 0x498B1, size: 0x8, addend: 0x0, symName: __ZN3MTL7Private8Selector57s_ksetObjectSamplerState_lodMinClamp_lodMaxClamp_atIndex_E, symObjAddr: 0x108968, symBinAddr: 0x100041DC0, symSize: 0x0 }
  - { offset: 0x498CC, size: 0x8, addend: 0x0, symName: __ZN3MTL7Private8Selector62s_ksetObjectSamplerStates_lodMinClamps_lodMaxClamps_withRange_E, symObjAddr: 0x108970, symBinAddr: 0x100041DC8, symSize: 0x0 }
  - { offset: 0x498E7, size: 0x8, addend: 0x0, symName: __ZN3MTL7Private8Selector36s_ksetObjectSamplerStates_withRange_E, symObjAddr: 0x108978, symBinAddr: 0x100041DD0, symSize: 0x0 }
  - { offset: 0x49902, size: 0x8, addend: 0x0, symName: __ZN3MTL7Private8Selector28s_ksetObjectTexture_atIndex_E, symObjAddr: 0x108980, symBinAddr: 0x100041DD8, symSize: 0x0 }
  - { offset: 0x4991D, size: 0x8, addend: 0x0, symName: __ZN3MTL7Private8Selector31s_ksetObjectTextures_withRange_E, symObjAddr: 0x108988, symBinAddr: 0x100041DE0, symSize: 0x0 }
  - { offset: 0x49938, size: 0x8, addend: 0x0, symName: __ZN3MTL7Private8Selector44s_ksetObjectThreadgroupMemoryLength_atIndex_E, symObjAddr: 0x108990, symBinAddr: 0x100041DE8, symSize: 0x0 }
  - { offset: 0x49953, size: 0x8, addend: 0x0, symName: __ZN3MTL7Private8Selector60s_ksetObjectThreadgroupSizeIsMultipleOfThreadExecutionWidth_E, symObjAddr: 0x108998, symBinAddr: 0x100041DF0, symSize: 0x0 }
  - { offset: 0x4996E, size: 0x8, addend: 0x0, symName: __ZN3MTL7Private8Selector13s_ksetOffset_E, symObjAddr: 0x1089A0, symBinAddr: 0x100041DF8, symSize: 0x0 }
  - { offset: 0x49989, size: 0x8, addend: 0x0, symName: __ZN3MTL7Private8Selector13s_ksetOpaque_E, symObjAddr: 0x1089A8, symBinAddr: 0x100041E00, symSize: 0x0 }
  - { offset: 0x499A4, size: 0x8, addend: 0x0, symName: __ZN3MTL7Private8Selector59s_ksetOpaqueCurveIntersectionFunctionWithSignature_atIndex_E, symObjAddr: 0x1089B0, symBinAddr: 0x100041E08, symSize: 0x0 }
  - { offset: 0x499BF, size: 0x8, addend: 0x0, symName: __ZN3MTL7Private8Selector61s_ksetOpaqueCurveIntersectionFunctionWithSignature_withRange_E, symObjAddr: 0x1089B8, symBinAddr: 0x100041E10, symSize: 0x0 }
  - { offset: 0x499DA, size: 0x8, addend: 0x0, symName: __ZN3MTL7Private8Selector62s_ksetOpaqueTriangleIntersectionFunctionWithSignature_atIndex_E, symObjAddr: 0x1089C0, symBinAddr: 0x100041E18, symSize: 0x0 }
  - { offset: 0x499F5, size: 0x8, addend: 0x0, symName: __ZN3MTL7Private8Selector64s_ksetOpaqueTriangleIntersectionFunctionWithSignature_withRange_E, symObjAddr: 0x1089C8, symBinAddr: 0x100041E20, symSize: 0x0 }
  - { offset: 0x49A10, size: 0x8, addend: 0x0, symName: __ZN3MTL7Private8Selector24s_ksetOptimizationLevel_E, symObjAddr: 0x1089D0, symBinAddr: 0x100041E28, symSize: 0x0 }
  - { offset: 0x49A2B, size: 0x8, addend: 0x0, symName: __ZN3MTL7Private8Selector14s_ksetOptions_E, symObjAddr: 0x1089D8, symBinAddr: 0x100041E30, symSize: 0x0 }
  - { offset: 0x49A46, size: 0x8, addend: 0x0, symName: __ZN3MTL7Private8Selector17s_ksetOutputNode_E, symObjAddr: 0x1089E0, symBinAddr: 0x100041E38, symSize: 0x0 }
  - { offset: 0x49A61, size: 0x8, addend: 0x0, symName: __ZN3MTL7Private8Selector16s_ksetOutputURL_E, symObjAddr: 0x1089E8, symBinAddr: 0x100041E40, symSize: 0x0 }
  - { offset: 0x49A7C, size: 0x8, addend: 0x0, symName: __ZN3MTL7Private8Selector26s_ksetPayloadMemoryLength_E, symObjAddr: 0x1089F0, symBinAddr: 0x100041E48, symSize: 0x0 }
  - { offset: 0x49A97, size: 0x8, addend: 0x0, symName: __ZN3MTL7Private8Selector18s_ksetPixelFormat_E, symObjAddr: 0x1089F8, symBinAddr: 0x100041E50, symSize: 0x0 }
  - { offset: 0x49AB2, size: 0x8, addend: 0x0, symName: __ZN3MTL7Private8Selector25s_ksetPreloadedLibraries_E, symObjAddr: 0x108A00, symBinAddr: 0x100041E58, symSize: 0x0 }
  - { offset: 0x49ACD, size: 0x8, addend: 0x0, symName: __ZN3MTL7Private8Selector25s_ksetPreprocessorMacros_E, symObjAddr: 0x108A08, symBinAddr: 0x100041E60, symSize: 0x0 }
  - { offset: 0x49AE8, size: 0x8, addend: 0x0, symName: __ZN3MTL7Private8Selector25s_ksetPreserveInvariance_E, symObjAddr: 0x108A10, symBinAddr: 0x100041E68, symSize: 0x0 }
  - { offset: 0x49B03, size: 0x8, addend: 0x0, symName: __ZN3MTL7Private8Selector26s_ksetPrimitiveDataBuffer_E, symObjAddr: 0x108A18, symBinAddr: 0x100041E70, symSize: 0x0 }
  - { offset: 0x49B1E, size: 0x8, addend: 0x0, symName: __ZN3MTL7Private8Selector32s_ksetPrimitiveDataBufferOffset_E, symObjAddr: 0x108A20, symBinAddr: 0x100041E78, symSize: 0x0 }
  - { offset: 0x49B39, size: 0x8, addend: 0x0, symName: __ZN3MTL7Private8Selector31s_ksetPrimitiveDataElementSize_E, symObjAddr: 0x108A28, symBinAddr: 0x100041E80, symSize: 0x0 }
  - { offset: 0x49B54, size: 0x8, addend: 0x0, symName: __ZN3MTL7Private8Selector26s_ksetPrimitiveDataStride_E, symObjAddr: 0x108A30, symBinAddr: 0x100041E88, symSize: 0x0 }
  - { offset: 0x49B6F, size: 0x8, addend: 0x0, symName: __ZN3MTL7Private8Selector15s_ksetPriority_E, symObjAddr: 0x108A38, symBinAddr: 0x100041E90, symSize: 0x0 }
  - { offset: 0x49B8A, size: 0x8, addend: 0x0, symName: __ZN3MTL7Private8Selector23s_ksetPrivateFunctions_E, symObjAddr: 0x108A40, symBinAddr: 0x100041E98, symSize: 0x0 }
  - { offset: 0x49BA5, size: 0x8, addend: 0x0, symName: __ZN3MTL7Private8Selector21s_ksetPurgeableState_E, symObjAddr: 0x108A48, symBinAddr: 0x100041EA0, symSize: 0x0 }
  - { offset: 0x49BC0, size: 0x8, addend: 0x0, symName: __ZN3MTL7Private8Selector19s_ksetRAddressMode_E, symObjAddr: 0x108A50, symBinAddr: 0x100041EA8, symSize: 0x0 }
  - { offset: 0x49BDB, size: 0x8, addend: 0x0, symName: __ZN3MTL7Private8Selector19s_ksetRadiusBuffer_E, symObjAddr: 0x108A58, symBinAddr: 0x100041EB0, symSize: 0x0 }
  - { offset: 0x49BF6, size: 0x8, addend: 0x0, symName: __ZN3MTL7Private8Selector25s_ksetRadiusBufferOffset_E, symObjAddr: 0x108A60, symBinAddr: 0x100041EB8, symSize: 0x0 }
  - { offset: 0x49C11, size: 0x8, addend: 0x0, symName: __ZN3MTL7Private8Selector20s_ksetRadiusBuffers_E, symObjAddr: 0x108A68, symBinAddr: 0x100041EC0, symSize: 0x0 }
  - { offset: 0x49C2C, size: 0x8, addend: 0x0, symName: __ZN3MTL7Private8Selector19s_ksetRadiusFormat_E, symObjAddr: 0x108A70, symBinAddr: 0x100041EC8, symSize: 0x0 }
  - { offset: 0x49C47, size: 0x8, addend: 0x0, symName: __ZN3MTL7Private8Selector19s_ksetRadiusStride_E, symObjAddr: 0x108A78, symBinAddr: 0x100041ED0, symSize: 0x0 }
  - { offset: 0x49C62, size: 0x8, addend: 0x0, symName: __ZN3MTL7Private8Selector24s_ksetRasterSampleCount_E, symObjAddr: 0x108A80, symBinAddr: 0x100041ED8, symSize: 0x0 }
  - { offset: 0x49C7D, size: 0x8, addend: 0x0, symName: __ZN3MTL7Private8Selector27s_ksetRasterizationEnabled_E, symObjAddr: 0x108A88, symBinAddr: 0x100041EE0, symSize: 0x0 }
  - { offset: 0x49C98, size: 0x8, addend: 0x0, symName: __ZN3MTL7Private8Selector27s_ksetRasterizationRateMap_E, symObjAddr: 0x108A90, symBinAddr: 0x100041EE8, symSize: 0x0 }
  - { offset: 0x49CB3, size: 0x8, addend: 0x0, symName: __ZN3MTL7Private8Selector15s_ksetReadMask_E, symObjAddr: 0x108A98, symBinAddr: 0x100041EF0, symSize: 0x0 }
  - { offset: 0x49CCE, size: 0x8, addend: 0x0, symName: __ZN3MTL7Private8Selector26s_ksetRenderPipelineState_E, symObjAddr: 0x108AA0, symBinAddr: 0x100041EF8, symSize: 0x0 }
  - { offset: 0x49CE9, size: 0x8, addend: 0x0, symName: __ZN3MTL7Private8Selector34s_ksetRenderPipelineState_atIndex_E, symObjAddr: 0x108AA8, symBinAddr: 0x100041F00, symSize: 0x0 }
  - { offset: 0x49D04, size: 0x8, addend: 0x0, symName: __ZN3MTL7Private8Selector37s_ksetRenderPipelineStates_withRange_E, symObjAddr: 0x108AB0, symBinAddr: 0x100041F08, symSize: 0x0 }
  - { offset: 0x49D1F, size: 0x8, addend: 0x0, symName: __ZN3MTL7Private8Selector30s_ksetRenderTargetArrayLength_E, symObjAddr: 0x108AB8, symBinAddr: 0x100041F10, symSize: 0x0 }
  - { offset: 0x49D3A, size: 0x8, addend: 0x0, symName: __ZN3MTL7Private8Selector25s_ksetRenderTargetHeight_E, symObjAddr: 0x108AC0, symBinAddr: 0x100041F18, symSize: 0x0 }
  - { offset: 0x49D55, size: 0x8, addend: 0x0, symName: __ZN3MTL7Private8Selector24s_ksetRenderTargetWidth_E, symObjAddr: 0x108AC8, symBinAddr: 0x100041F20, symSize: 0x0 }
  - { offset: 0x49D70, size: 0x8, addend: 0x0, symName: __ZN3MTL7Private8Selector24s_ksetResolveDepthPlane_E, symObjAddr: 0x108AD0, symBinAddr: 0x100041F28, symSize: 0x0 }
  - { offset: 0x49D8B, size: 0x8, addend: 0x0, symName: __ZN3MTL7Private8Selector19s_ksetResolveLevel_E, symObjAddr: 0x108AD8, symBinAddr: 0x100041F30, symSize: 0x0 }
  - { offset: 0x49DA6, size: 0x8, addend: 0x0, symName: __ZN3MTL7Private8Selector19s_ksetResolveSlice_E, symObjAddr: 0x108AE0, symBinAddr: 0x100041F38, symSize: 0x0 }
  - { offset: 0x49DC1, size: 0x8, addend: 0x0, symName: __ZN3MTL7Private8Selector21s_ksetResolveTexture_E, symObjAddr: 0x108AE8, symBinAddr: 0x100041F40, symSize: 0x0 }
  - { offset: 0x49DDC, size: 0x8, addend: 0x0, symName: __ZN3MTL7Private8Selector22s_ksetResourceOptions_E, symObjAddr: 0x108AF0, symBinAddr: 0x100041F48, symSize: 0x0 }
  - { offset: 0x49DF7, size: 0x8, addend: 0x0, symName: __ZN3MTL7Private8Selector25s_ksetRetainedReferences_E, symObjAddr: 0x108AF8, symBinAddr: 0x100041F50, symSize: 0x0 }
  - { offset: 0x49E12, size: 0x8, addend: 0x0, symName: __ZN3MTL7Private8Selector24s_ksetRgbBlendOperation_E, symObjAddr: 0x108B00, symBinAddr: 0x100041F58, symSize: 0x0 }
  - { offset: 0x49E2D, size: 0x8, addend: 0x0, symName: __ZN3MTL7Private8Selector19s_ksetSAddressMode_E, symObjAddr: 0x108B08, symBinAddr: 0x100041F60, symSize: 0x0 }
  - { offset: 0x49E48, size: 0x8, addend: 0x0, symName: __ZN3MTL7Private8Selector19s_ksetSampleBuffer_E, symObjAddr: 0x108B10, symBinAddr: 0x100041F68, symSize: 0x0 }
  - { offset: 0x49E63, size: 0x8, addend: 0x0, symName: __ZN3MTL7Private8Selector18s_ksetSampleCount_E, symObjAddr: 0x108B18, symBinAddr: 0x100041F70, symSize: 0x0 }
  - { offset: 0x49E7E, size: 0x8, addend: 0x0, symName: __ZN3MTL7Private8Selector28s_ksetSamplePositions_count_E, symObjAddr: 0x108B20, symBinAddr: 0x100041F78, symSize: 0x0 }
  - { offset: 0x49E99, size: 0x8, addend: 0x0, symName: __ZN3MTL7Private8Selector27s_ksetSamplerState_atIndex_E, symObjAddr: 0x108B28, symBinAddr: 0x100041F80, symSize: 0x0 }
  - { offset: 0x49EB4, size: 0x8, addend: 0x0, symName: __ZN3MTL7Private8Selector51s_ksetSamplerState_lodMinClamp_lodMaxClamp_atIndex_E, symObjAddr: 0x108B30, symBinAddr: 0x100041F88, symSize: 0x0 }
  - { offset: 0x49ECF, size: 0x8, addend: 0x0, symName: __ZN3MTL7Private8Selector56s_ksetSamplerStates_lodMinClamps_lodMaxClamps_withRange_E, symObjAddr: 0x108B38, symBinAddr: 0x100041F90, symSize: 0x0 }
  - { offset: 0x49EEA, size: 0x8, addend: 0x0, symName: __ZN3MTL7Private8Selector30s_ksetSamplerStates_withRange_E, symObjAddr: 0x108B40, symBinAddr: 0x100041F98, symSize: 0x0 }
  - { offset: 0x49F05, size: 0x8, addend: 0x0, symName: __ZN3MTL7Private8Selector18s_ksetScissorRect_E, symObjAddr: 0x108B48, symBinAddr: 0x100041FA0, symSize: 0x0 }
  - { offset: 0x49F20, size: 0x8, addend: 0x0, symName: __ZN3MTL7Private8Selector25s_ksetScissorRects_count_E, symObjAddr: 0x108B50, symBinAddr: 0x100041FA8, symSize: 0x0 }
  - { offset: 0x49F3B, size: 0x8, addend: 0x0, symName: __ZN3MTL7Private8Selector29s_ksetScratchBufferAllocator_E, symObjAddr: 0x108B58, symBinAddr: 0x100041FB0, symSize: 0x0 }
  - { offset: 0x49F56, size: 0x8, addend: 0x0, symName: __ZN3MTL7Private8Selector17s_ksetScreenSize_E, symObjAddr: 0x108B60, symBinAddr: 0x100041FB8, symSize: 0x0 }
  - { offset: 0x49F71, size: 0x8, addend: 0x0, symName: __ZN3MTL7Private8Selector31s_ksetSegmentControlPointCount_E, symObjAddr: 0x108B68, symBinAddr: 0x100041FC0, symSize: 0x0 }
  - { offset: 0x49F8C, size: 0x8, addend: 0x0, symName: __ZN3MTL7Private8Selector19s_ksetSegmentCount_E, symObjAddr: 0x108B70, symBinAddr: 0x100041FC8, symSize: 0x0 }
  - { offset: 0x49FA7, size: 0x8, addend: 0x0, symName: __ZN3MTL7Private8Selector42s_ksetShouldMaximizeConcurrentCompilation_E, symObjAddr: 0x108B78, symBinAddr: 0x100041FD0, symSize: 0x0 }
  - { offset: 0x49FC2, size: 0x8, addend: 0x0, symName: __ZN3MTL7Private8Selector20s_ksetSignaledValue_E, symObjAddr: 0x108B80, symBinAddr: 0x100041FD8, symSize: 0x0 }
  - { offset: 0x49FDD, size: 0x8, addend: 0x0, symName: __ZN3MTL7Private8Selector11s_ksetSize_E, symObjAddr: 0x108B88, symBinAddr: 0x100041FE0, symSize: 0x0 }
  - { offset: 0x49FF8, size: 0x8, addend: 0x0, symName: __ZN3MTL7Private8Selector12s_ksetSlice_E, symObjAddr: 0x108B90, symBinAddr: 0x100041FE8, symSize: 0x0 }
  - { offset: 0x4A013, size: 0x8, addend: 0x0, symName: __ZN3MTL7Private8Selector29s_ksetSourceAlphaBlendFactor_E, symObjAddr: 0x108B98, symBinAddr: 0x100041FF0, symSize: 0x0 }
  - { offset: 0x4A02E, size: 0x8, addend: 0x0, symName: __ZN3MTL7Private8Selector27s_ksetSourceRGBBlendFactor_E, symObjAddr: 0x108BA0, symBinAddr: 0x100041FF8, symSize: 0x0 }
  - { offset: 0x4A049, size: 0x8, addend: 0x0, symName: __ZN3MTL7Private8Selector21s_ksetSparsePageSize_E, symObjAddr: 0x108BA8, symBinAddr: 0x100042000, symSize: 0x0 }
  - { offset: 0x4A064, size: 0x8, addend: 0x0, symName: __ZN3MTL7Private8Selector22s_ksetSpecializedName_E, symObjAddr: 0x108BB0, symBinAddr: 0x100042008, symSize: 0x0 }
  - { offset: 0x4A07F, size: 0x8, addend: 0x0, symName: __ZN3MTL7Private8Selector20s_ksetStageInRegion_E, symObjAddr: 0x108BB8, symBinAddr: 0x100042010, symSize: 0x0 }
  - { offset: 0x4A09A, size: 0x8, addend: 0x0, symName: __ZN3MTL7Private8Selector59s_ksetStageInRegionWithIndirectBuffer_indirectBufferOffset_E, symObjAddr: 0x108BC0, symBinAddr: 0x100042018, symSize: 0x0 }
  - { offset: 0x4A0B5, size: 0x8, addend: 0x0, symName: __ZN3MTL7Private8Selector27s_ksetStageInputDescriptor_E, symObjAddr: 0x108BC8, symBinAddr: 0x100042020, symSize: 0x0 }
  - { offset: 0x4A0D0, size: 0x8, addend: 0x0, symName: __ZN3MTL7Private8Selector32s_ksetStartOfEncoderSampleIndex_E, symObjAddr: 0x108BD0, symBinAddr: 0x100042028, symSize: 0x0 }
  - { offset: 0x4A0EB, size: 0x8, addend: 0x0, symName: __ZN3MTL7Private8Selector33s_ksetStartOfFragmentSampleIndex_E, symObjAddr: 0x108BD8, symBinAddr: 0x100042030, symSize: 0x0 }
  - { offset: 0x4A106, size: 0x8, addend: 0x0, symName: __ZN3MTL7Private8Selector31s_ksetStartOfVertexSampleIndex_E, symObjAddr: 0x108BE0, symBinAddr: 0x100042038, symSize: 0x0 }
  - { offset: 0x4A121, size: 0x8, addend: 0x0, symName: __ZN3MTL7Private8Selector24s_ksetStencilAttachment_E, symObjAddr: 0x108BE8, symBinAddr: 0x100042040, symSize: 0x0 }
  - { offset: 0x4A13C, size: 0x8, addend: 0x0, symName: __ZN3MTL7Private8Selector35s_ksetStencilAttachmentPixelFormat_E, symObjAddr: 0x108BF0, symBinAddr: 0x100042048, symSize: 0x0 }
  - { offset: 0x4A157, size: 0x8, addend: 0x0, symName: __ZN3MTL7Private8Selector29s_ksetStencilCompareFunction_E, symObjAddr: 0x108BF8, symBinAddr: 0x100042050, symSize: 0x0 }
  - { offset: 0x4A172, size: 0x8, addend: 0x0, symName: __ZN3MTL7Private8Selector30s_ksetStencilFailureOperation_E, symObjAddr: 0x108C00, symBinAddr: 0x100042058, symSize: 0x0 }
  - { offset: 0x4A18D, size: 0x8, addend: 0x0, symName: __ZN3MTL7Private8Selector52s_ksetStencilFrontReferenceValue_backReferenceValue_E, symObjAddr: 0x108C08, symBinAddr: 0x100042060, symSize: 0x0 }
  - { offset: 0x4A1A8, size: 0x8, addend: 0x0, symName: __ZN3MTL7Private8Selector28s_ksetStencilReferenceValue_E, symObjAddr: 0x108C10, symBinAddr: 0x100042068, symSize: 0x0 }
  - { offset: 0x4A1C3, size: 0x8, addend: 0x0, symName: __ZN3MTL7Private8Selector27s_ksetStencilResolveFilter_E, symObjAddr: 0x108C18, symBinAddr: 0x100042070, symSize: 0x0 }
  - { offset: 0x4A1DE, size: 0x8, addend: 0x0, symName: __ZN3MTL7Private8Selector25s_ksetStencilStoreAction_E, symObjAddr: 0x108C20, symBinAddr: 0x100042078, symSize: 0x0 }
  - { offset: 0x4A1F9, size: 0x8, addend: 0x0, symName: __ZN3MTL7Private8Selector32s_ksetStencilStoreActionOptions_E, symObjAddr: 0x108C28, symBinAddr: 0x100042080, symSize: 0x0 }
  - { offset: 0x4A214, size: 0x8, addend: 0x0, symName: __ZN3MTL7Private8Selector19s_ksetStepFunction_E, symObjAddr: 0x108C30, symBinAddr: 0x100042088, symSize: 0x0 }
  - { offset: 0x4A22F, size: 0x8, addend: 0x0, symName: __ZN3MTL7Private8Selector15s_ksetStepRate_E, symObjAddr: 0x108C38, symBinAddr: 0x100042090, symSize: 0x0 }
  - { offset: 0x4A24A, size: 0x8, addend: 0x0, symName: __ZN3MTL7Private8Selector18s_ksetStorageMode_E, symObjAddr: 0x108C40, symBinAddr: 0x100042098, symSize: 0x0 }
  - { offset: 0x4A265, size: 0x8, addend: 0x0, symName: __ZN3MTL7Private8Selector18s_ksetStoreAction_E, symObjAddr: 0x108C48, symBinAddr: 0x1000420A0, symSize: 0x0 }
  - { offset: 0x4A280, size: 0x8, addend: 0x0, symName: __ZN3MTL7Private8Selector25s_ksetStoreActionOptions_E, symObjAddr: 0x108C50, symBinAddr: 0x1000420A8, symSize: 0x0 }
  - { offset: 0x4A29B, size: 0x8, addend: 0x0, symName: __ZN3MTL7Private8Selector13s_ksetStride_E, symObjAddr: 0x108C58, symBinAddr: 0x1000420B0, symSize: 0x0 }
  - { offset: 0x4A2B6, size: 0x8, addend: 0x0, symName: __ZN3MTL7Private8Selector35s_ksetSupportAddingBinaryFunctions_E, symObjAddr: 0x108C60, symBinAddr: 0x1000420B8, symSize: 0x0 }
  - { offset: 0x4A2D1, size: 0x8, addend: 0x0, symName: __ZN3MTL7Private8Selector43s_ksetSupportAddingFragmentBinaryFunctions_E, symObjAddr: 0x108C68, symBinAddr: 0x1000420C0, symSize: 0x0 }
  - { offset: 0x4A2EC, size: 0x8, addend: 0x0, symName: __ZN3MTL7Private8Selector41s_ksetSupportAddingVertexBinaryFunctions_E, symObjAddr: 0x108C70, symBinAddr: 0x1000420C8, symSize: 0x0 }
  - { offset: 0x4A307, size: 0x8, addend: 0x0, symName: __ZN3MTL7Private8Selector29s_ksetSupportArgumentBuffers_E, symObjAddr: 0x108C78, symBinAddr: 0x1000420D0, symSize: 0x0 }
  - { offset: 0x4A322, size: 0x8, addend: 0x0, symName: __ZN3MTL7Private8Selector36s_ksetSupportDynamicAttributeStride_E, symObjAddr: 0x108C80, symBinAddr: 0x1000420D8, symSize: 0x0 }
  - { offset: 0x4A33D, size: 0x8, addend: 0x0, symName: __ZN3MTL7Private8Selector36s_ksetSupportIndirectCommandBuffers_E, symObjAddr: 0x108C88, symBinAddr: 0x1000420E0, symSize: 0x0 }
  - { offset: 0x4A358, size: 0x8, addend: 0x0, symName: __ZN3MTL7Private8Selector24s_ksetSupportRayTracing_E, symObjAddr: 0x108C90, symBinAddr: 0x1000420E8, symSize: 0x0 }
  - { offset: 0x4A373, size: 0x8, addend: 0x0, symName: __ZN3MTL7Private8Selector14s_ksetSwizzle_E, symObjAddr: 0x108C98, symBinAddr: 0x1000420F0, symSize: 0x0 }
  - { offset: 0x4A38E, size: 0x8, addend: 0x0, symName: __ZN3MTL7Private8Selector19s_ksetTAddressMode_E, symObjAddr: 0x108CA0, symBinAddr: 0x1000420F8, symSize: 0x0 }
  - { offset: 0x4A3A9, size: 0x8, addend: 0x0, symName: __ZN3MTL7Private8Selector40s_ksetTessellationControlPointIndexType_E, symObjAddr: 0x108CA8, symBinAddr: 0x100042100, symSize: 0x0 }
  - { offset: 0x4A3C4, size: 0x8, addend: 0x0, symName: __ZN3MTL7Private8Selector53s_ksetTessellationFactorBuffer_offset_instanceStride_E, symObjAddr: 0x108CB0, symBinAddr: 0x100042108, symSize: 0x0 }
  - { offset: 0x4A3DF, size: 0x8, addend: 0x0, symName: __ZN3MTL7Private8Selector31s_ksetTessellationFactorFormat_E, symObjAddr: 0x108CB8, symBinAddr: 0x100042110, symSize: 0x0 }
  - { offset: 0x4A3FA, size: 0x8, addend: 0x0, symName: __ZN3MTL7Private8Selector30s_ksetTessellationFactorScale_E, symObjAddr: 0x108CC0, symBinAddr: 0x100042118, symSize: 0x0 }
  - { offset: 0x4A415, size: 0x8, addend: 0x0, symName: __ZN3MTL7Private8Selector37s_ksetTessellationFactorScaleEnabled_E, symObjAddr: 0x108CC8, symBinAddr: 0x100042120, symSize: 0x0 }
  - { offset: 0x4A430, size: 0x8, addend: 0x0, symName: __ZN3MTL7Private8Selector37s_ksetTessellationFactorStepFunction_E, symObjAddr: 0x108CD0, symBinAddr: 0x100042128, symSize: 0x0 }
  - { offset: 0x4A44B, size: 0x8, addend: 0x0, symName: __ZN3MTL7Private8Selector37s_ksetTessellationOutputWindingOrder_E, symObjAddr: 0x108CD8, symBinAddr: 0x100042130, symSize: 0x0 }
  - { offset: 0x4A466, size: 0x8, addend: 0x0, symName: __ZN3MTL7Private8Selector32s_ksetTessellationPartitionMode_E, symObjAddr: 0x108CE0, symBinAddr: 0x100042138, symSize: 0x0 }
  - { offset: 0x4A481, size: 0x8, addend: 0x0, symName: __ZN3MTL7Private8Selector14s_ksetTexture_E, symObjAddr: 0x108CE8, symBinAddr: 0x100042140, symSize: 0x0 }
  - { offset: 0x4A49C, size: 0x8, addend: 0x0, symName: __ZN3MTL7Private8Selector22s_ksetTexture_atIndex_E, symObjAddr: 0x108CF0, symBinAddr: 0x100042148, symSize: 0x0 }
  - { offset: 0x4A4B7, size: 0x8, addend: 0x0, symName: __ZN3MTL7Private8Selector18s_ksetTextureType_E, symObjAddr: 0x108CF8, symBinAddr: 0x100042150, symSize: 0x0 }
  - { offset: 0x4A4D2, size: 0x8, addend: 0x0, symName: __ZN3MTL7Private8Selector25s_ksetTextures_withRange_E, symObjAddr: 0x108D00, symBinAddr: 0x100042158, symSize: 0x0 }
  - { offset: 0x4A4ED, size: 0x8, addend: 0x0, symName: __ZN3MTL7Private8Selector54s_ksetThreadGroupSizeIsMultipleOfThreadExecutionWidth_E, symObjAddr: 0x108D08, symBinAddr: 0x100042160, symSize: 0x0 }
  - { offset: 0x4A508, size: 0x8, addend: 0x0, symName: __ZN3MTL7Private8Selector30s_ksetThreadgroupMemoryLength_E, symObjAddr: 0x108D10, symBinAddr: 0x100042168, symSize: 0x0 }
  - { offset: 0x4A523, size: 0x8, addend: 0x0, symName: __ZN3MTL7Private8Selector38s_ksetThreadgroupMemoryLength_atIndex_E, symObjAddr: 0x108D18, symBinAddr: 0x100042170, symSize: 0x0 }
  - { offset: 0x4A53E, size: 0x8, addend: 0x0, symName: __ZN3MTL7Private8Selector45s_ksetThreadgroupMemoryLength_offset_atIndex_E, symObjAddr: 0x108D20, symBinAddr: 0x100042178, symSize: 0x0 }
  - { offset: 0x4A559, size: 0x8, addend: 0x0, symName: __ZN3MTL7Private8Selector37s_ksetThreadgroupSizeMatchesTileSize_E, symObjAddr: 0x108D28, symBinAddr: 0x100042180, symSize: 0x0 }
  - { offset: 0x4A574, size: 0x8, addend: 0x0, symName: __ZN3MTL7Private8Selector46s_ksetTileAccelerationStructure_atBufferIndex_E, symObjAddr: 0x108D30, symBinAddr: 0x100042188, symSize: 0x0 }
  - { offset: 0x4A58F, size: 0x8, addend: 0x0, symName: __ZN3MTL7Private8Selector36s_ksetTileAdditionalBinaryFunctions_E, symObjAddr: 0x108D38, symBinAddr: 0x100042190, symSize: 0x0 }
  - { offset: 0x4A5AA, size: 0x8, addend: 0x0, symName: __ZN3MTL7Private8Selector32s_ksetTileBuffer_offset_atIndex_E, symObjAddr: 0x108D40, symBinAddr: 0x100042198, symSize: 0x0 }
  - { offset: 0x4A5C5, size: 0x8, addend: 0x0, symName: __ZN3MTL7Private8Selector31s_ksetTileBufferOffset_atIndex_E, symObjAddr: 0x108D48, symBinAddr: 0x1000421A0, symSize: 0x0 }
  - { offset: 0x4A5E0, size: 0x8, addend: 0x0, symName: __ZN3MTL7Private8Selector36s_ksetTileBuffers_offsets_withRange_E, symObjAddr: 0x108D50, symBinAddr: 0x1000421A8, symSize: 0x0 }
  - { offset: 0x4A5FB, size: 0x8, addend: 0x0, symName: __ZN3MTL7Private8Selector31s_ksetTileBytes_length_atIndex_E, symObjAddr: 0x108D58, symBinAddr: 0x1000421B0, symSize: 0x0 }
  - { offset: 0x4A616, size: 0x8, addend: 0x0, symName: __ZN3MTL7Private8Selector19s_ksetTileFunction_E, symObjAddr: 0x108D60, symBinAddr: 0x1000421B8, symSize: 0x0 }
  - { offset: 0x4A631, size: 0x8, addend: 0x0, symName: __ZN3MTL7Private8Selector17s_ksetTileHeight_E, symObjAddr: 0x108D68, symBinAddr: 0x1000421C0, symSize: 0x0 }
  - { offset: 0x4A64C, size: 0x8, addend: 0x0, symName: __ZN3MTL7Private8Selector50s_ksetTileIntersectionFunctionTable_atBufferIndex_E, symObjAddr: 0x108D70, symBinAddr: 0x1000421C8, symSize: 0x0 }
  - { offset: 0x4A667, size: 0x8, addend: 0x0, symName: __ZN3MTL7Private8Selector53s_ksetTileIntersectionFunctionTables_withBufferRange_E, symObjAddr: 0x108D78, symBinAddr: 0x1000421D0, symSize: 0x0 }
  - { offset: 0x4A682, size: 0x8, addend: 0x0, symName: __ZN3MTL7Private8Selector31s_ksetTileSamplerState_atIndex_E, symObjAddr: 0x108D80, symBinAddr: 0x1000421D8, symSize: 0x0 }
  - { offset: 0x4A69D, size: 0x8, addend: 0x0, symName: __ZN3MTL7Private8Selector55s_ksetTileSamplerState_lodMinClamp_lodMaxClamp_atIndex_E, symObjAddr: 0x108D88, symBinAddr: 0x1000421E0, symSize: 0x0 }
  - { offset: 0x4A6B8, size: 0x8, addend: 0x0, symName: __ZN3MTL7Private8Selector60s_ksetTileSamplerStates_lodMinClamps_lodMaxClamps_withRange_E, symObjAddr: 0x108D90, symBinAddr: 0x1000421E8, symSize: 0x0 }
  - { offset: 0x4A6D3, size: 0x8, addend: 0x0, symName: __ZN3MTL7Private8Selector34s_ksetTileSamplerStates_withRange_E, symObjAddr: 0x108D98, symBinAddr: 0x1000421F0, symSize: 0x0 }
  - { offset: 0x4A6EE, size: 0x8, addend: 0x0, symName: __ZN3MTL7Private8Selector26s_ksetTileTexture_atIndex_E, symObjAddr: 0x108DA0, symBinAddr: 0x1000421F8, symSize: 0x0 }
  - { offset: 0x4A709, size: 0x8, addend: 0x0, symName: __ZN3MTL7Private8Selector29s_ksetTileTextures_withRange_E, symObjAddr: 0x108DA8, symBinAddr: 0x100042200, symSize: 0x0 }
  - { offset: 0x4A724, size: 0x8, addend: 0x0, symName: __ZN3MTL7Private8Selector45s_ksetTileVisibleFunctionTable_atBufferIndex_E, symObjAddr: 0x108DB0, symBinAddr: 0x100042208, symSize: 0x0 }
  - { offset: 0x4A73F, size: 0x8, addend: 0x0, symName: __ZN3MTL7Private8Selector48s_ksetTileVisibleFunctionTables_withBufferRange_E, symObjAddr: 0x108DB8, symBinAddr: 0x100042210, symSize: 0x0 }
  - { offset: 0x4A75A, size: 0x8, addend: 0x0, symName: __ZN3MTL7Private8Selector16s_ksetTileWidth_E, symObjAddr: 0x108DC0, symBinAddr: 0x100042218, symSize: 0x0 }
  - { offset: 0x4A775, size: 0x8, addend: 0x0, symName: __ZN3MTL7Private8Selector33s_ksetTransformationMatrixBuffer_E, symObjAddr: 0x108DC8, symBinAddr: 0x100042220, symSize: 0x0 }
  - { offset: 0x4A790, size: 0x8, addend: 0x0, symName: __ZN3MTL7Private8Selector39s_ksetTransformationMatrixBufferOffset_E, symObjAddr: 0x108DD0, symBinAddr: 0x100042228, symSize: 0x0 }
  - { offset: 0x4A7AB, size: 0x8, addend: 0x0, symName: __ZN3MTL7Private8Selector20s_ksetTriangleCount_E, symObjAddr: 0x108DD8, symBinAddr: 0x100042230, symSize: 0x0 }
  - { offset: 0x4A7C6, size: 0x8, addend: 0x0, symName: __ZN3MTL7Private8Selector23s_ksetTriangleFillMode_E, symObjAddr: 0x108DE0, symBinAddr: 0x100042238, symSize: 0x0 }
  - { offset: 0x4A7E1, size: 0x8, addend: 0x0, symName: __ZN3MTL7Private8Selector11s_ksetType_E, symObjAddr: 0x108DE8, symBinAddr: 0x100042240, symSize: 0x0 }
  - { offset: 0x4A7FC, size: 0x8, addend: 0x0, symName: __ZN3MTL7Private8Selector10s_ksetUrl_E, symObjAddr: 0x108DF0, symBinAddr: 0x100042248, symSize: 0x0 }
  - { offset: 0x4A817, size: 0x8, addend: 0x0, symName: __ZN3MTL7Private8Selector12s_ksetUsage_E, symObjAddr: 0x108DF8, symBinAddr: 0x100042250, symSize: 0x0 }
  - { offset: 0x4A832, size: 0x8, addend: 0x0, symName: __ZN3MTL7Private8Selector48s_ksetVertexAccelerationStructure_atBufferIndex_E, symObjAddr: 0x108E00, symBinAddr: 0x100042258, symSize: 0x0 }
  - { offset: 0x4A84D, size: 0x8, addend: 0x0, symName: __ZN3MTL7Private8Selector38s_ksetVertexAdditionalBinaryFunctions_E, symObjAddr: 0x108E08, symBinAddr: 0x100042260, symSize: 0x0 }
  - { offset: 0x4A868, size: 0x8, addend: 0x0, symName: __ZN3MTL7Private8Selector44s_ksetVertexAmplificationCount_viewMappings_E, symObjAddr: 0x108E10, symBinAddr: 0x100042268, symSize: 0x0 }
  - { offset: 0x4A883, size: 0x8, addend: 0x0, symName: __ZN3MTL7Private8Selector19s_ksetVertexBuffer_E, symObjAddr: 0x108E18, symBinAddr: 0x100042270, symSize: 0x0 }
  - { offset: 0x4A89E, size: 0x8, addend: 0x0, symName: __ZN3MTL7Private8Selector34s_ksetVertexBuffer_offset_atIndex_E, symObjAddr: 0x108E20, symBinAddr: 0x100042278, symSize: 0x0 }
  - { offset: 0x4A8B9, size: 0x8, addend: 0x0, symName: __ZN3MTL7Private8Selector50s_ksetVertexBuffer_offset_attributeStride_atIndex_E, symObjAddr: 0x108E28, symBinAddr: 0x100042280, symSize: 0x0 }
  - { offset: 0x4A8D4, size: 0x8, addend: 0x0, symName: __ZN3MTL7Private8Selector25s_ksetVertexBufferOffset_E, symObjAddr: 0x108E30, symBinAddr: 0x100042288, symSize: 0x0 }
  - { offset: 0x4A8EF, size: 0x8, addend: 0x0, symName: __ZN3MTL7Private8Selector33s_ksetVertexBufferOffset_atIndex_E, symObjAddr: 0x108E38, symBinAddr: 0x100042290, symSize: 0x0 }
  - { offset: 0x4A90A, size: 0x8, addend: 0x0, symName: __ZN3MTL7Private8Selector49s_ksetVertexBufferOffset_attributeStride_atIndex_E, symObjAddr: 0x108E40, symBinAddr: 0x100042298, symSize: 0x0 }
  - { offset: 0x4A925, size: 0x8, addend: 0x0, symName: __ZN3MTL7Private8Selector20s_ksetVertexBuffers_E, symObjAddr: 0x108E48, symBinAddr: 0x1000422A0, symSize: 0x0 }
  - { offset: 0x4A940, size: 0x8, addend: 0x0, symName: __ZN3MTL7Private8Selector55s_ksetVertexBuffers_offsets_attributeStrides_withRange_E, symObjAddr: 0x108E50, symBinAddr: 0x1000422A8, symSize: 0x0 }
  - { offset: 0x4A95B, size: 0x8, addend: 0x0, symName: __ZN3MTL7Private8Selector38s_ksetVertexBuffers_offsets_withRange_E, symObjAddr: 0x108E58, symBinAddr: 0x1000422B0, symSize: 0x0 }
  - { offset: 0x4A976, size: 0x8, addend: 0x0, symName: __ZN3MTL7Private8Selector33s_ksetVertexBytes_length_atIndex_E, symObjAddr: 0x108E60, symBinAddr: 0x1000422B8, symSize: 0x0 }
  - { offset: 0x4A991, size: 0x8, addend: 0x0, symName: __ZN3MTL7Private8Selector49s_ksetVertexBytes_length_attributeStride_atIndex_E, symObjAddr: 0x108E68, symBinAddr: 0x1000422C0, symSize: 0x0 }
  - { offset: 0x4A9AC, size: 0x8, addend: 0x0, symName: __ZN3MTL7Private8Selector23s_ksetVertexDescriptor_E, symObjAddr: 0x108E70, symBinAddr: 0x1000422C8, symSize: 0x0 }
  - { offset: 0x4A9C7, size: 0x8, addend: 0x0, symName: __ZN3MTL7Private8Selector19s_ksetVertexFormat_E, symObjAddr: 0x108E78, symBinAddr: 0x1000422D0, symSize: 0x0 }
  - { offset: 0x4A9E2, size: 0x8, addend: 0x0, symName: __ZN3MTL7Private8Selector21s_ksetVertexFunction_E, symObjAddr: 0x108E80, symBinAddr: 0x1000422D8, symSize: 0x0 }
  - { offset: 0x4A9FD, size: 0x8, addend: 0x0, symName: __ZN3MTL7Private8Selector52s_ksetVertexIntersectionFunctionTable_atBufferIndex_E, symObjAddr: 0x108E88, symBinAddr: 0x1000422E0, symSize: 0x0 }
  - { offset: 0x4AA18, size: 0x8, addend: 0x0, symName: __ZN3MTL7Private8Selector55s_ksetVertexIntersectionFunctionTables_withBufferRange_E, symObjAddr: 0x108E90, symBinAddr: 0x1000422E8, symSize: 0x0 }
  - { offset: 0x4AA33, size: 0x8, addend: 0x0, symName: __ZN3MTL7Private8Selector28s_ksetVertexLinkedFunctions_E, symObjAddr: 0x108E98, symBinAddr: 0x1000422F0, symSize: 0x0 }
  - { offset: 0x4AA4E, size: 0x8, addend: 0x0, symName: __ZN3MTL7Private8Selector31s_ksetVertexPreloadedLibraries_E, symObjAddr: 0x108EA0, symBinAddr: 0x1000422F8, symSize: 0x0 }
  - { offset: 0x4AA69, size: 0x8, addend: 0x0, symName: __ZN3MTL7Private8Selector33s_ksetVertexSamplerState_atIndex_E, symObjAddr: 0x108EA8, symBinAddr: 0x100042300, symSize: 0x0 }
  - { offset: 0x4AA84, size: 0x8, addend: 0x0, symName: __ZN3MTL7Private8Selector57s_ksetVertexSamplerState_lodMinClamp_lodMaxClamp_atIndex_E, symObjAddr: 0x108EB0, symBinAddr: 0x100042308, symSize: 0x0 }
  - { offset: 0x4AA9F, size: 0x8, addend: 0x0, symName: __ZN3MTL7Private8Selector62s_ksetVertexSamplerStates_lodMinClamps_lodMaxClamps_withRange_E, symObjAddr: 0x108EB8, symBinAddr: 0x100042310, symSize: 0x0 }
  - { offset: 0x4AABA, size: 0x8, addend: 0x0, symName: __ZN3MTL7Private8Selector36s_ksetVertexSamplerStates_withRange_E, symObjAddr: 0x108EC0, symBinAddr: 0x100042318, symSize: 0x0 }
  - { offset: 0x4AAD5, size: 0x8, addend: 0x0, symName: __ZN3MTL7Private8Selector19s_ksetVertexStride_E, symObjAddr: 0x108EC8, symBinAddr: 0x100042320, symSize: 0x0 }
  - { offset: 0x4AAF0, size: 0x8, addend: 0x0, symName: __ZN3MTL7Private8Selector28s_ksetVertexTexture_atIndex_E, symObjAddr: 0x108ED0, symBinAddr: 0x100042328, symSize: 0x0 }
  - { offset: 0x4AB0B, size: 0x8, addend: 0x0, symName: __ZN3MTL7Private8Selector31s_ksetVertexTextures_withRange_E, symObjAddr: 0x108ED8, symBinAddr: 0x100042330, symSize: 0x0 }
  - { offset: 0x4AB26, size: 0x8, addend: 0x0, symName: __ZN3MTL7Private8Selector47s_ksetVertexVisibleFunctionTable_atBufferIndex_E, symObjAddr: 0x108EE0, symBinAddr: 0x100042338, symSize: 0x0 }
  - { offset: 0x4AB41, size: 0x8, addend: 0x0, symName: __ZN3MTL7Private8Selector50s_ksetVertexVisibleFunctionTables_withBufferRange_E, symObjAddr: 0x108EE8, symBinAddr: 0x100042340, symSize: 0x0 }
  - { offset: 0x4AB5C, size: 0x8, addend: 0x0, symName: __ZN3MTL7Private8Selector15s_ksetViewport_E, symObjAddr: 0x108EF0, symBinAddr: 0x100042348, symSize: 0x0 }
  - { offset: 0x4AB77, size: 0x8, addend: 0x0, symName: __ZN3MTL7Private8Selector22s_ksetViewports_count_E, symObjAddr: 0x108EF8, symBinAddr: 0x100042350, symSize: 0x0 }
  - { offset: 0x4AB92, size: 0x8, addend: 0x0, symName: __ZN3MTL7Private8Selector29s_ksetVisibilityResultBuffer_E, symObjAddr: 0x108F00, symBinAddr: 0x100042358, symSize: 0x0 }
  - { offset: 0x4ABAD, size: 0x8, addend: 0x0, symName: __ZN3MTL7Private8Selector34s_ksetVisibilityResultMode_offset_E, symObjAddr: 0x108F08, symBinAddr: 0x100042360, symSize: 0x0 }
  - { offset: 0x4ABC8, size: 0x8, addend: 0x0, symName: __ZN3MTL7Private8Selector41s_ksetVisibleFunctionTable_atBufferIndex_E, symObjAddr: 0x108F10, symBinAddr: 0x100042368, symSize: 0x0 }
  - { offset: 0x4ABE3, size: 0x8, addend: 0x0, symName: __ZN3MTL7Private8Selector35s_ksetVisibleFunctionTable_atIndex_E, symObjAddr: 0x108F18, symBinAddr: 0x100042370, symSize: 0x0 }
  - { offset: 0x4ABFE, size: 0x8, addend: 0x0, symName: __ZN3MTL7Private8Selector44s_ksetVisibleFunctionTables_withBufferRange_E, symObjAddr: 0x108F20, symBinAddr: 0x100042378, symSize: 0x0 }
  - { offset: 0x4AC19, size: 0x8, addend: 0x0, symName: __ZN3MTL7Private8Selector38s_ksetVisibleFunctionTables_withRange_E, symObjAddr: 0x108F28, symBinAddr: 0x100042380, symSize: 0x0 }
  - { offset: 0x4AC34, size: 0x8, addend: 0x0, symName: __ZN3MTL7Private8Selector12s_ksetWidth_E, symObjAddr: 0x108F30, symBinAddr: 0x100042388, symSize: 0x0 }
  - { offset: 0x4AC4F, size: 0x8, addend: 0x0, symName: __ZN3MTL7Private8Selector16s_ksetWriteMask_E, symObjAddr: 0x108F38, symBinAddr: 0x100042390, symSize: 0x0 }
  - { offset: 0x4AC6A, size: 0x8, addend: 0x0, symName: __ZN3MTL7Private8Selector23s_ksharedCaptureManagerE, symObjAddr: 0x108F40, symBinAddr: 0x100042398, symSize: 0x0 }
  - { offset: 0x4AC85, size: 0x8, addend: 0x0, symName: __ZN3MTL7Private8Selector38s_kshouldMaximizeConcurrentCompilationE, symObjAddr: 0x108F48, symBinAddr: 0x1000423A0, symSize: 0x0 }
  - { offset: 0x4ACA0, size: 0x8, addend: 0x0, symName: __ZN3MTL7Private8Selector21s_ksignalEvent_value_E, symObjAddr: 0x108F50, symBinAddr: 0x1000423A8, symSize: 0x0 }
  - { offset: 0x4ACBB, size: 0x8, addend: 0x0, symName: __ZN3MTL7Private8Selector16s_ksignaledValueE, symObjAddr: 0x108F58, symBinAddr: 0x1000423B0, symSize: 0x0 }
  - { offset: 0x4ACD6, size: 0x8, addend: 0x0, symName: __ZN3MTL7Private8Selector7s_ksizeE, symObjAddr: 0x108F60, symBinAddr: 0x1000423B8, symSize: 0x0 }
  - { offset: 0x4ACF1, size: 0x8, addend: 0x0, symName: __ZN3MTL7Private8Selector8s_ksliceE, symObjAddr: 0x108F68, symBinAddr: 0x1000423C0, symSize: 0x0 }
  - { offset: 0x4AD0C, size: 0x8, addend: 0x0, symName: __ZN3MTL7Private8Selector25s_ksourceAlphaBlendFactorE, symObjAddr: 0x108F70, symBinAddr: 0x1000423C8, symSize: 0x0 }
  - { offset: 0x4AD27, size: 0x8, addend: 0x0, symName: __ZN3MTL7Private8Selector23s_ksourceRGBBlendFactorE, symObjAddr: 0x108F78, symBinAddr: 0x1000423D0, symSize: 0x0 }
  - { offset: 0x4AD42, size: 0x8, addend: 0x0, symName: __ZN3MTL7Private8Selector17s_ksparsePageSizeE, symObjAddr: 0x108F80, symBinAddr: 0x1000423D8, symSize: 0x0 }
  - { offset: 0x4AD5D, size: 0x8, addend: 0x0, symName: __ZN3MTL7Private8Selector24s_ksparseTileSizeInBytesE, symObjAddr: 0x108F88, symBinAddr: 0x1000423E0, symSize: 0x0 }
  - { offset: 0x4AD78, size: 0x8, addend: 0x0, symName: __ZN3MTL7Private8Selector42s_ksparseTileSizeInBytesForSparsePageSize_E, symObjAddr: 0x108F90, symBinAddr: 0x1000423E8, symSize: 0x0 }
  - { offset: 0x4AD93, size: 0x8, addend: 0x0, symName: __ZN3MTL7Private8Selector57s_ksparseTileSizeWithTextureType_pixelFormat_sampleCount_E, symObjAddr: 0x108F98, symBinAddr: 0x1000423F0, symSize: 0x0 }
  - { offset: 0x4ADAE, size: 0x8, addend: 0x0, symName: __ZN3MTL7Private8Selector72s_ksparseTileSizeWithTextureType_pixelFormat_sampleCount_sparsePageSize_E, symObjAddr: 0x108FA0, symBinAddr: 0x1000423F8, symSize: 0x0 }
  - { offset: 0x4ADC9, size: 0x8, addend: 0x0, symName: __ZN3MTL7Private8Selector18s_kspecializedNameE, symObjAddr: 0x108FA8, symBinAddr: 0x100042400, symSize: 0x0 }
  - { offset: 0x4ADE4, size: 0x8, addend: 0x0, symName: __ZN3MTL7Private8Selector23s_kstageInputAttributesE, symObjAddr: 0x108FB0, symBinAddr: 0x100042408, symSize: 0x0 }
  - { offset: 0x4ADFF, size: 0x8, addend: 0x0, symName: __ZN3MTL7Private8Selector23s_kstageInputDescriptorE, symObjAddr: 0x108FB8, symBinAddr: 0x100042410, symSize: 0x0 }
  - { offset: 0x4AE1A, size: 0x8, addend: 0x0, symName: __ZN3MTL7Private8Selector29s_kstageInputOutputDescriptorE, symObjAddr: 0x108FC0, symBinAddr: 0x100042418, symSize: 0x0 }
  - { offset: 0x4AE35, size: 0x8, addend: 0x0, symName: __ZN3MTL7Private8Selector32s_kstartCaptureWithCommandQueue_E, symObjAddr: 0x108FC8, symBinAddr: 0x100042420, symSize: 0x0 }
  - { offset: 0x4AE50, size: 0x8, addend: 0x0, symName: __ZN3MTL7Private8Selector36s_kstartCaptureWithDescriptor_error_E, symObjAddr: 0x108FD0, symBinAddr: 0x100042428, symSize: 0x0 }
  - { offset: 0x4AE6B, size: 0x8, addend: 0x0, symName: __ZN3MTL7Private8Selector26s_kstartCaptureWithDevice_E, symObjAddr: 0x108FD8, symBinAddr: 0x100042430, symSize: 0x0 }
  - { offset: 0x4AE86, size: 0x8, addend: 0x0, symName: __ZN3MTL7Private8Selector25s_kstartCaptureWithScope_E, symObjAddr: 0x108FE0, symBinAddr: 0x100042438, symSize: 0x0 }
  - { offset: 0x4AEA1, size: 0x8, addend: 0x0, symName: __ZN3MTL7Private8Selector28s_kstartOfEncoderSampleIndexE, symObjAddr: 0x108FE8, symBinAddr: 0x100042440, symSize: 0x0 }
  - { offset: 0x4AEBC, size: 0x8, addend: 0x0, symName: __ZN3MTL7Private8Selector29s_kstartOfFragmentSampleIndexE, symObjAddr: 0x108FF0, symBinAddr: 0x100042448, symSize: 0x0 }
  - { offset: 0x4AED7, size: 0x8, addend: 0x0, symName: __ZN3MTL7Private8Selector27s_kstartOfVertexSampleIndexE, symObjAddr: 0x108FF8, symBinAddr: 0x100042450, symSize: 0x0 }
  - { offset: 0x4AEF2, size: 0x8, addend: 0x0, symName: __ZN3MTL7Private8Selector32s_kstaticThreadgroupMemoryLengthE, symObjAddr: 0x109000, symBinAddr: 0x100042458, symSize: 0x0 }
  - { offset: 0x4AF0D, size: 0x8, addend: 0x0, symName: __ZN3MTL7Private8Selector9s_kstatusE, symObjAddr: 0x109008, symBinAddr: 0x100042460, symSize: 0x0 }
  - { offset: 0x4AF28, size: 0x8, addend: 0x0, symName: __ZN3MTL7Private8Selector20s_kstencilAttachmentE, symObjAddr: 0x109010, symBinAddr: 0x100042468, symSize: 0x0 }
  - { offset: 0x4AF43, size: 0x8, addend: 0x0, symName: __ZN3MTL7Private8Selector31s_kstencilAttachmentPixelFormatE, symObjAddr: 0x109018, symBinAddr: 0x100042470, symSize: 0x0 }
  - { offset: 0x4AF5E, size: 0x8, addend: 0x0, symName: __ZN3MTL7Private8Selector25s_kstencilCompareFunctionE, symObjAddr: 0x109020, symBinAddr: 0x100042478, symSize: 0x0 }
  - { offset: 0x4AF79, size: 0x8, addend: 0x0, symName: __ZN3MTL7Private8Selector26s_kstencilFailureOperationE, symObjAddr: 0x109028, symBinAddr: 0x100042480, symSize: 0x0 }
  - { offset: 0x4AF94, size: 0x8, addend: 0x0, symName: __ZN3MTL7Private8Selector23s_kstencilResolveFilterE, symObjAddr: 0x109030, symBinAddr: 0x100042488, symSize: 0x0 }
  - { offset: 0x4AFAF, size: 0x8, addend: 0x0, symName: __ZN3MTL7Private8Selector15s_kstepFunctionE, symObjAddr: 0x109038, symBinAddr: 0x100042490, symSize: 0x0 }
  - { offset: 0x4AFCA, size: 0x8, addend: 0x0, symName: __ZN3MTL7Private8Selector11s_kstepRateE, symObjAddr: 0x109040, symBinAddr: 0x100042498, symSize: 0x0 }
  - { offset: 0x4AFE5, size: 0x8, addend: 0x0, symName: __ZN3MTL7Private8Selector14s_kstopCaptureE, symObjAddr: 0x109048, symBinAddr: 0x1000424A0, symSize: 0x0 }
  - { offset: 0x4B000, size: 0x8, addend: 0x0, symName: __ZN3MTL7Private8Selector14s_kstorageModeE, symObjAddr: 0x109050, symBinAddr: 0x1000424A8, symSize: 0x0 }
  - { offset: 0x4B01B, size: 0x8, addend: 0x0, symName: __ZN3MTL7Private8Selector14s_kstoreActionE, symObjAddr: 0x109058, symBinAddr: 0x1000424B0, symSize: 0x0 }
  - { offset: 0x4B036, size: 0x8, addend: 0x0, symName: __ZN3MTL7Private8Selector21s_kstoreActionOptionsE, symObjAddr: 0x109060, symBinAddr: 0x1000424B8, symSize: 0x0 }
  - { offset: 0x4B051, size: 0x8, addend: 0x0, symName: __ZN3MTL7Private8Selector9s_kstrideE, symObjAddr: 0x109068, symBinAddr: 0x1000424C0, symSize: 0x0 }
  - { offset: 0x4B06C, size: 0x8, addend: 0x0, symName: __ZN3MTL7Private8Selector13s_kstructTypeE, symObjAddr: 0x109070, symBinAddr: 0x1000424C8, symSize: 0x0 }
  - { offset: 0x4B087, size: 0x8, addend: 0x0, symName: __ZN3MTL7Private8Selector31s_ksupportAddingBinaryFunctionsE, symObjAddr: 0x109078, symBinAddr: 0x1000424D0, symSize: 0x0 }
  - { offset: 0x4B0A2, size: 0x8, addend: 0x0, symName: __ZN3MTL7Private8Selector39s_ksupportAddingFragmentBinaryFunctionsE, symObjAddr: 0x109080, symBinAddr: 0x1000424D8, symSize: 0x0 }
  - { offset: 0x4B0BD, size: 0x8, addend: 0x0, symName: __ZN3MTL7Private8Selector37s_ksupportAddingVertexBinaryFunctionsE, symObjAddr: 0x109088, symBinAddr: 0x1000424E0, symSize: 0x0 }
  - { offset: 0x4B0D8, size: 0x8, addend: 0x0, symName: __ZN3MTL7Private8Selector25s_ksupportArgumentBuffersE, symObjAddr: 0x109090, symBinAddr: 0x1000424E8, symSize: 0x0 }
  - { offset: 0x4B0F3, size: 0x8, addend: 0x0, symName: __ZN3MTL7Private8Selector32s_ksupportDynamicAttributeStrideE, symObjAddr: 0x109098, symBinAddr: 0x1000424F0, symSize: 0x0 }
  - { offset: 0x4B10E, size: 0x8, addend: 0x0, symName: __ZN3MTL7Private8Selector32s_ksupportIndirectCommandBuffersE, symObjAddr: 0x1090A0, symBinAddr: 0x1000424F8, symSize: 0x0 }
  - { offset: 0x4B129, size: 0x8, addend: 0x0, symName: __ZN3MTL7Private8Selector20s_ksupportRayTracingE, symObjAddr: 0x1090A8, symBinAddr: 0x100042500, symSize: 0x0 }
  - { offset: 0x4B144, size: 0x8, addend: 0x0, symName: __ZN3MTL7Private8Selector30s_ksupports32BitFloatFilteringE, symObjAddr: 0x1090B0, symBinAddr: 0x100042508, symSize: 0x0 }
  - { offset: 0x4B15F, size: 0x8, addend: 0x0, symName: __ZN3MTL7Private8Selector20s_ksupports32BitMSAAE, symObjAddr: 0x1090B8, symBinAddr: 0x100042510, symSize: 0x0 }
  - { offset: 0x4B17A, size: 0x8, addend: 0x0, symName: __ZN3MTL7Private8Selector31s_ksupportsBCTextureCompressionE, symObjAddr: 0x1090C0, symBinAddr: 0x100042518, symSize: 0x0 }
  - { offset: 0x4B195, size: 0x8, addend: 0x0, symName: __ZN3MTL7Private8Selector27s_ksupportsCounterSampling_E, symObjAddr: 0x1090C8, symBinAddr: 0x100042520, symSize: 0x0 }
  - { offset: 0x4B1B0, size: 0x8, addend: 0x0, symName: __ZN3MTL7Private8Selector23s_ksupportsDestination_E, symObjAddr: 0x1090D0, symBinAddr: 0x100042528, symSize: 0x0 }
  - { offset: 0x4B1CB, size: 0x8, addend: 0x0, symName: __ZN3MTL7Private8Selector27s_ksupportsDynamicLibrariesE, symObjAddr: 0x1090D8, symBinAddr: 0x100042530, symSize: 0x0 }
